(lp0
(lp1
F-1.495150391255514
aF-1.717921559010641
aF-2.005233112965719
aF-0.972180191670553
aF1.5401535034179688
aF-0.019856754933492482
aa(lp2
F-1.4951384703265589
aF-1.717921559010641
aF-2.005245033894674
aF-0.9722159544574183
aF1.5401654243469238
aF-0.01986867586244756
aa(lp3
F-1.495162312184469
aF-1.7179096380816858
aF-2.0052207151996058
aF-0.9721921125995081
aF1.5401414632797241
aF-0.0198443571673792
aa(lp4
F-1.4950788656817835
aF-1.7179458777057093
aF-2.0052688757525843
aF-0.972180191670553
aF1.5401535034179688
aF-0.01986867586244756
aa(lp5
F-1.4951384703265589
aF-1.7179096380816858
aF-2.005233112965719
aF-0.9721558729754847
aF1.5401175022125244
aF-0.019832436238424123
aa(lp6
F-1.4951384703265589
aF-1.7179096380816858
aF-2.005245033894674
aF-0.9722040335284632
aF1.5401535034179688
aF-0.0198443571673792
aa(lp7
F-1.495150391255514
aF-1.717921559010641
aF-2.005233112965719
aF-0.9721558729754847
aF1.5401535034179688
aF-0.019880596791402638
aa(lp8
F-1.4951384703265589
aF-1.7179458777057093
aF-2.005245033894674
aF-0.9721921125995081
aF1.5401414632797241
aF-0.01986867586244756
aa(lp9
F-1.4951742331134241
aF-1.717921559010641
aF-2.005256954823629
aF-0.9721921125995081
aF1.540129542350769
aF-0.019856754933492482
aa(lp10
F-1.4951384703265589
aF-1.7179096380816858
aF-2.0052207151996058
aF-0.9721921125995081
aF1.540129542350769
aF-0.0198443571673792
aa(lp11
F-1.4951384703265589
aF-1.7179577986346644
aF-2.0052688757525843
aF-0.9721921125995081
aF1.540129542350769
aF-0.019880596791402638
aa(lp12
F-1.4951022307025355
aF-1.7179577986346644
aF-2.0052207151996058
aF-0.972180191670553
aF1.5401535034179688
aF-0.0198443571673792
aa(lp13
F-1.495162312184469
aF-1.7179339567767542
aF-2.0052688757525843
aF-0.972168270741598
aF1.5401535034179688
aF-0.01986867586244756
aa(lp14
F-1.4951260725604456
aF-1.7179096380816858
aF-2.005256954823629
aF-0.9721558729754847
aF1.5401414632797241
aF-0.0198443571673792
aa(lp15
F-1.4951861540423792
aF-1.7179339567767542
aF-2.005256954823629
aF-0.9722159544574183
aF1.5401654243469238
aF-0.019832436238424123
aa(lp16
F-1.4951861540423792
aF-1.7179339567767542
aF-2.005256954823629
aF-0.9722159544574183
aF1.5401414632797241
aF-0.019832436238424123
aa(lp17
F-1.495162312184469
aF-1.7179697195636194
aF-2.005233112965719
aF-0.972168270741598
aF1.5401535034179688
aF-0.0198443571673792
aa(lp18
F-1.4951384703265589
aF-1.7179096380816858
aF-2.005256954823629
aF-0.972180191670553
aF1.5401414632797241
aF-0.019832436238424123
aa(lp19
F-1.4951260725604456
aF-1.717921559010641
aF-2.005233112965719
aF-0.972180191670553
aF1.5401414632797241
aF-0.019856754933492482
aa(lp20
F-1.4951141516314905
aF-1.717921559010641
aF-2.005209271107809
aF-0.9721921125995081
aF1.5401175022125244
aF-0.0198443571673792
aa(lp21
F-1.4951141516314905
aF-1.7179096380816858
aF-2.005209271107809
aF-0.972180191670553
aF1.5401654243469238
aF-0.019856754933492482
aa(lp22
F-1.4951384703265589
aF-1.7179339567767542
aF-2.0052207151996058
aF-0.972180191670553
aF1.540129542350769
aF-0.019856754933492482
aa(lp23
F-1.4951384703265589
aF-1.7179339567767542
aF-2.005256954823629
aF-0.9721921125995081
aF1.5401414632797241
aF-0.019856754933492482
aa(lp24
F-1.4951384703265589
aF-1.7179096380816858
aF-2.005209271107809
aF-0.9722159544574183
aF1.5401414632797241
aF-0.019856754933492482
aa(lp25
F-1.495162312184469
aF-1.7178977171527308
aF-2.005233112965719
aF-0.9721558729754847
aF1.5401774644851685
aF-0.01986867586244756
aa(lp26
F-1.495162312184469
aF-1.7179096380816858
aF-2.0051968733416956
aF-0.972180191670553
aF1.540129542350769
aF-0.01989299455751592
aa(lp27
F-1.4951980749713343
aF-1.7178857962237757
aF-2.0051849524127405
aF-0.9721921125995081
aF1.5401535034179688
aF-0.019832436238424123
aa(lp28
F-1.4951861540423792
aF-1.7179096380816858
aF-2.005136791859762
aF-0.972168270741598
aF1.5401535034179688
aF-0.019856754933492482
aa(lp29
F-1.4951384703265589
aF-1.7179096380816858
aF-2.005136791859762
aF-0.972168270741598
aF1.5401535034179688
aF-0.019856754933492482
aa(lp30
F-1.4951861540423792
aF-1.7179458777057093
aF-2.0050175825702112
aF-0.9721558729754847
aF1.5401535034179688
aF-0.019856754933492482
aa(lp31
F-1.4951861540423792
aF-1.7179577986346644
aF-2.0046942869769495
aF-0.972180191670553
aF1.540129542350769
aF-0.01986867586244756
aa(lp32
F-1.4951384703265589
aF-1.7179816404925745
aF-2.0040715376483362
aF-0.9721320311175745
aF1.5401654243469238
aF-0.019856754933492482
aa(lp33
F-1.4951141516314905
aF-1.7179935614215296
aF-2.0008629004107874
aF-0.972180191670553
aF1.5401654243469238
aF-0.019820515309469044
aa(lp34
F-1.4948275724994105
aF-1.718029801045553
aF-1.993570629750387
aF-0.9721921125995081
aF1.5401893854141235
aF-0.01986867586244756
aa(lp35
F-1.49382192293276
aF-1.7182453314410608
aF-1.9792268911944788
aF-0.9721320311175745
aF1.5402014255523682
aF-0.019832436238424123
aa(lp36
F-1.4927690664874476
aF-1.7188685576068323
aF-1.961578671132223
aF-0.9721201101886194
aF1.5402133464813232
aF-0.0198443571673792
aa(lp37
F-1.4902799765216272
aF-1.7209423224078577
aF-1.93719989458193
aF-0.9721439520465296
aF1.5402133464813232
aF-0.019832436238424123
aa(lp38
F-1.4866660276996058
aF-1.7247660795794886
aF-1.9129164854632776
aF-0.9721921125995081
aF1.5401654243469238
aF-0.019856754933492482
aa(lp39
F-1.4815204779254358
aF-1.7313345114337366
aF-1.8827045599566858
aF-0.972168270741598
aF1.5401774644851685
aF-0.019832436238424123
aa(lp40
F-1.4756692091571253
aF-1.7395804564105433
aF-1.854204003010885
aF-0.9721320311175745
aF1.5401893854141235
aF-0.019856754933492482
aa(lp41
F-1.4679864088641565
aF-1.7510517279254358
aF-1.8201335112201136
aF-0.9721201101886194
aF1.5402014255523682
aF-0.0198443571673792
aa(lp42
F-1.4601486364947718
aF-1.7631099859820765
aF-1.788840119038717
aF-0.9721201101886194
aF1.5401893854141235
aF-0.019856754933492482
aa(lp43
F-1.4505985418902796
aF-1.7774341742144983
aF-1.751688305531637
aF-0.9721439520465296
aF1.540237307548523
aF-0.019856754933492482
aa(lp44
F-1.4420660177813929
aF-1.7896602789508265
aF-1.7185705343829554
aF-0.9722040335284632
aF1.5402133464813232
aF-0.019856754933492482
aa(lp45
F-1.4326961676227015
aF-1.8026302496539515
aF-1.6805885473834437
aF-0.972168270741598
aF1.5401893854141235
aF-0.0198443571673792
aa(lp46
F-1.424821678792135
aF-1.811751667653219
aF-1.648437801991598
aF-0.972168270741598
aF1.5401774644851685
aF-0.01986867586244756
aa(lp47
F-1.4166834990130823
aF-1.8199504057513636
aF-1.6127398649798792
aF-0.9720962683307093
aF1.5401893854141235
aF-0.019856754933492482
aa(lp48
F-1.4100173155414026
aF-1.8258960882769983
aF-1.5820830504046839
aF-0.9721320311175745
aF1.5402014255523682
aF-0.01986867586244756
aa(lp49
F-1.403351132069723
aF-1.8316620031939905
aF-1.548490349446432
aF-0.9720600287066858
aF1.540129542350769
aF-0.019832436238424123
aa(lp50
F-1.3973434607135218
aF-1.8371523062335413
aF-1.520334545766012
aF-0.9721201101886194
aF1.5401774644851685
aF-0.019808594380513966
aa(lp51
F-1.3908446470843714
aF-1.8452313582049769
aF-1.4900935331927698
aF-0.9720962683307093
aF1.5401535034179688
aF-0.0198443571673792
aa(lp52
F-1.3853395620929163
aF-1.8547847906695765
aF-1.4648950735675257
aF-0.9721320311175745
aF1.540129542350769
aF-0.0198443571673792
aa(lp53
F-1.3817012945758265
aF-1.8677666823016565
aF-1.4358490149127405
aF-0.9720962683307093
aF1.5401893854141235
aF-0.019832436238424123
aa(lp54
F-1.380432430897848
aF-1.8794902006732386
aF-1.4092581907855433
aF-0.9721081892596644
aF1.5401414632797241
aF-0.019856754933492482
aa(lp55
F-1.3802288214312952
aF-1.893982235585348
aF-1.3772252241717737
aF-0.9721201101886194
aF1.5401654243469238
aF-0.019820515309469044
aa(lp56
F-1.3802412191974085
aF-1.9062216917621058
aF-1.3483198324786585
aF-0.9720481077777308
aF1.5401654243469238
aF-0.019880596791402638
aa(lp57
F-1.380181614552633
aF-1.9199231306659144
aF-1.3151453177081507
aF-0.9720242659198206
aF1.5401654243469238
aF-0.01986867586244756
aa(lp58
F-1.3801572958575647
aF-1.931047264729635
aF-1.2865718046771448
aF-0.9720242659198206
aF1.5401893854141235
aF-0.01986867586244756
aa(lp59
F-1.3800495306598108
aF-1.9426868597613733
aF-1.2549527327166956
aF-0.9720004240619105
aF1.5401535034179688
aF-0.01989299455751592
aa(lp60
F-1.379822079335348
aF-1.9526365439044397
aF-1.228234593068258
aF-0.9720123449908655
aF1.5401654243469238
aF-0.019832436238424123
aa(lp61
F-1.379474941884176
aF-1.9621184507953089
aF-1.2017067114459437
aF-0.9741938749896448
aF1.5402253866195679
aF-0.019329373036519826
aa(lp62
F-1.3786490599261683
aF-1.967980686818258
aF-1.182347599660055
aF-0.9732831160174769
aF1.5402014255523682
aF-0.019425217305318654
aa(lp63
F-1.3768542448626917
aF-1.9721043745623987
aF-1.162494961415426
aF-0.9733789602862757
aF1.5401893854141235
aF-0.019437138234273732
aa(lp64
F-1.3748553434955042
aF-1.9733150641070765
aF-1.149787727986471
aF-0.9733670393573206
aF1.5402014255523682
aF-0.01944905916322881
aa(lp65
F-1.3730123678790491
aF-1.973278824483053
aF-1.1406763235675257
aF-0.9733789602862757
aF1.5402133464813232
aF-0.019437138234273732
aa(lp66
F-1.372521702443258
aF-1.973266903554098
aF-1.1352217833148401
aF-0.9733427206622522
aF1.5402253866195679
aF-0.019425217305318654
aa(lp67
F-1.3724859396563929
aF-1.9733269850360315
aF-1.1317809263812464
aF-0.9733427206622522
aF1.5402253866195679
aF-0.019413296376363576
aa(lp68
F-1.3725574652301233
aF-1.9733150641070765
aF-1.1298506895648401
aF-0.9733307997332972
aF1.5402014255523682
aF-0.019437138234273732
aa(lp69
F-1.3725336233722132
aF-1.9733031431781214
aF-1.1262062231646937
aF-0.9733546415912073
aF1.5401774644851685
aF-0.019413296376363576
aa(lp70
F-1.372521702443258
aF-1.973266903554098
aF-1.1213744322406214
aF-0.973306957875387
aF1.5402133464813232
aF-0.019425217305318654
aa(lp71
F-1.372509781514303
aF-1.9732549826251429
aF-1.1152122656451624
aF-0.9733670393573206
aF1.5402014255523682
aF-0.019388977681295216
aa(lp72
F-1.372521702443258
aF-1.9732912222491663
aF-1.1099613348590296
aF-0.9733307997332972
aF1.5402014255523682
aF-0.019413296376363576
aa(lp73
F-1.3725336233722132
aF-1.9732072989093226
aF-1.105884853993551
aF-0.9733427206622522
aF1.5402014255523682
aF-0.019413296376363576
aa(lp74
F-1.3725574652301233
aF-1.9732311407672327
aF-1.1027196089373987
aF-0.9733427206622522
aF1.540237307548523
aF-0.019413296376363576
aa(lp75
F-1.372509781514303
aF-1.9732311407672327
aF-1.0984037558185022
aF-0.9733427206622522
aF1.540237307548523
aF-0.019388977681295216
aa(lp76
F-1.372509781514303
aF-1.9732311407672327
aF-1.0958855787860315
aF-0.9733670393573206
aF1.5402133464813232
aF-0.01944905916322881
aa(lp77
F-1.3725336233722132
aF-1.9732912222491663
aF-1.095825497304098
aF-0.9734147230731409
aF1.540237307548523
aF-0.019425217305318654
aa(lp78
F-1.372509781514303
aF-1.973266903554098
aF-1.0957658926593226
aF-0.9733789602862757
aF1.5402493476867676
aF-0.019413296376363576
aa(lp79
F-1.3725336233722132
aF-1.9732549826251429
aF-1.0957778135882776
aF-0.9733546415912073
aF1.5401774644851685
aF-0.019425217305318654
aa(lp80
F-1.3725455443011683
aF-1.9732311407672327
aF-1.0957539717303675
aF-0.9733427206622522
aF1.5401893854141235
aF-0.019388977681295216
aa(lp81
F-1.372521702443258
aF-1.973266903554098
aF-1.0957897345172327
aF-0.9733546415912073
aF1.5402253866195679
aF-0.019401375447408498
aa(lp82
F-1.3726051489459437
aF-1.9731953779803675
aF-1.0957778135882776
aF-0.9733908812152308
aF1.5401893854141235
aF-0.019413296376363576
aa(lp83
F-1.3725813070880335
aF-1.9731953779803675
aF-1.0957420508014124
aF-0.9733789602862757
aF1.5401893854141235
aF-0.019413296376363576
aa(lp84
F-1.3725932280169886
aF-1.9731352964984339
aF-1.0956938902484339
aF-0.9733307997332972
aF1.5401893854141235
aF-0.019425217305318654
aa(lp85
F-1.3726533094989222
aF-1.9729316870318812
aF-1.0953462759601038
aF-0.9733670393573206
aF1.5402253866195679
aF-0.019388977681295216
aa(lp86
F-1.372641388569967
aF-1.9729674498187464
aF-1.0939553419696253
aF-0.9733546415912073
aF1.5402133464813232
aF-0.019388977681295216
aa(lp87
F-1.3726652304278772
aF-1.9729674498187464
aF-1.0901668707477015
aF-0.9733188788043421
aF1.5402133464813232
aF-0.019413296376363576
aa(lp88
F-1.3727129141436976
aF-1.9729316870318812
aF-1.0852153936969202
aF-0.9733670393573206
aF1.5402253866195679
aF-0.019425217305318654
aa(lp89
F-1.3727009932147425
aF-1.9729316870318812
aF-1.0796883741961878
aF-0.973306957875387
aF1.540237307548523
aF-0.019425217305318654
aa(lp90
F-1.372641388569967
aF-1.9729073683368128
aF-1.0745323340045374
aF-0.9733670393573206
aF1.5402253866195679
aF-0.019413296376363576
aa(lp91
F-1.3726533094989222
aF-1.9729073683368128
aF-1.0688732306109827
aF-0.9733427206622522
aF1.540237307548523
aF-0.019401375447408498
aa(lp92
F-1.3726771513568323
aF-1.9728954474078577
aF-1.0635016600238245
aF-0.9733188788043421
aF1.540237307548523
aF-0.019401375447408498
aa(lp93
F-1.3726890722857874
aF-1.9729073683368128
aF-1.0579984823810022
aF-0.9733188788043421
aF1.5401893854141235
aF-0.019437138234273732
aa(lp94
F-1.3726890722857874
aF-1.9729436079608362
aF-1.0544493834124964
aF-0.9732950369464319
aF1.5402133464813232
aF-0.019401375447408498
aa(lp95
F-1.3726652304278772
aF-1.9729073683368128
aF-1.0514400641070765
aF-0.9733307997332972
aF1.540237307548523
aF-0.019401375447408498
aa(lp96
F-1.372737232838766
aF-1.9728835264789026
aF-1.0490296522723597
aF-0.9733670393573206
aF1.5402253866195679
aF-0.019425217305318654
aa(lp97
F-1.3727009932147425
aF-1.9728954474078577
aF-1.0473750273333948
aF-0.9733427206622522
aF1.5402014255523682
aF-0.019425217305318654
aa(lp98
F-1.3727129141436976
aF-1.9729192892657679
aF-1.0471470991717737
aF-0.9733789602862757
aF1.5402014255523682
aF-0.019425217305318654
aa(lp99
F-1.3727009932147425
aF-1.9729436079608362
aF-1.047171417866842
aF-0.9733427206622522
aF1.5402253866195679
aF-0.019460980092183888
aa(lp100
F-1.3726652304278772
aF-1.9729316870318812
aF-1.0471833387957972
aF-0.9734028021441858
aF1.5402133464813232
aF-0.019413296376363576
aa(lp101
F-1.3726890722857874
aF-1.9729436079608362
aF-1.0472310225116175
aF-0.9733789602862757
aF1.5402133464813232
aF-0.019388977681295216
aa(lp102
F-1.3727009932147425
aF-1.9729674498187464
aF-1.0472310225116175
aF-0.9733546415912073
aF1.5402253866195679
aF-0.019413296376363576
aa(lp103
F-1.3727129141436976
aF-1.9729436079608362
aF-1.047279183064596
aF-0.9733307997332972
aF1.5402014255523682
aF-0.019413296376363576
aa(lp104
F-1.3726890722857874
aF-1.9729793707477015
aF-1.0472310225116175
aF-0.9733670393573206
aF1.5401654243469238
aF-0.019413296376363576
aa(lp105
F-1.3727729956256312
aF-1.9729555288897913
aF-1.0472310225116175
aF-0.9733908812152308
aF1.5402014255523682
aF-0.019388977681295216
aa(lp106
F-1.372749153767721
aF-1.9729316870318812
aF-1.0472434202777308
aF-0.9733789602862757
aF1.5401654243469238
aF-0.019413296376363576
aa(lp107
F-1.372761074696676
aF-1.9729555288897913
aF-1.047291103993551
aF-0.9733427206622522
aF1.5402253866195679
aF-0.019425217305318654
aa(lp108
F-1.3728206793414515
aF-1.9730032126056116
aF-1.047398869191305
aF-0.9733546415912073
aF1.5401893854141235
aF-0.019425217305318654
aa(lp109
F-1.3727849165545862
aF-1.973039452229635
aF-1.0474351088153284
aF-0.9733789602862757
aF1.5401893854141235
aF-0.019413296376363576
aa(lp110
F-1.3727729956256312
aF-1.9730032126056116
aF-1.0474227110492151
aF-0.9733908812152308
aF1.5402014255523682
aF-0.019401375447408498
aa(lp111
F-1.3727849165545862
aF-1.9729912916766565
aF-1.0474112669574183
aF-0.9734147230731409
aF1.5402014255523682
aF-0.019401375447408498
aa(lp112
F-1.372749153767721
aF-1.9730032126056116
aF-1.0474227110492151
aF-0.9733789602862757
aF1.5402133464813232
aF-0.019425217305318654
aa(lp113
F-1.372749153767721
aF-1.9731710592852991
aF-1.047398869191305
aF-0.9734028021441858
aF1.540237307548523
aF-0.019401375447408498
aa(lp114
F-1.3727248350726526
aF-1.9734709898578089
aF-1.0476511160479944
aF-0.9733908812152308
aF1.5402133464813232
aF-0.019401375447408498
aa(lp115
F-1.372749153767721
aF-1.9737227598773401
aF-1.0476983229266565
aF-0.9733789602862757
aF1.5402014255523682
aF-0.019425217305318654
aa(lp116
F-1.3727248350726526
aF-1.9737227598773401
aF-1.0477107206927698
aF-0.9734147230731409
aF1.5402014255523682
aF-0.019413296376363576
aa(lp117
F-1.3726890722857874
aF-1.9737227598773401
aF-1.047722641621725
aF-0.9733670393573206
aF1.540237307548523
aF-0.019413296376363576
aa(lp118
F-1.372749153767721
aF-1.97369891801943
aF-1.0476744810687464
aF-0.9734147230731409
aF1.5402133464813232
aF-0.019388977681295216
aa(lp119
F-1.3727248350726526
aF-1.973686997090475
aF-1.0477107206927698
aF-0.9734028021441858
aF1.5402133464813232
aF-0.019401375447408498
aa(lp120
F-1.3727729956256312
aF-1.9737346808062952
aF-1.0477107206927698
aF-0.9734748045550745
aF1.5402133464813232
aF-0.019413296376363576
aa(lp121
F-1.3728087584124964
aF-1.9736626783954065
aF-1.0477107206927698
aF-0.9734028021441858
aF1.5401893854141235
aF-0.019425217305318654
aa(lp122
F-1.3728087584124964
aF-1.9736750761615198
aF-1.047722641621725
aF-0.9733908812152308
aF1.5401654243469238
aF-0.019401375447408498
aa(lp123
F-1.3728206793414515
aF-1.9736626783954065
aF-1.0476744810687464
aF-0.9734147230731409
aF1.5402133464813232
aF-0.019401375447408498
aa(lp124
F-1.3727849165545862
aF-1.9736388365374964
aF-1.047722641621725
aF-0.973426644002096
aF1.5402133464813232
aF-0.019413296376363576
aa(lp125
F-1.3728330771075647
aF-1.9736149946795862
aF-1.0476625601397913
aF-0.9733789602862757
aF1.5402014255523682
aF-0.019388977681295216
aa(lp126
F-1.3727968374835413
aF-1.9736507574664515
aF-1.0476868788348597
aF-0.9734147230731409
aF1.540237307548523
aF-0.019388977681295216
aa(lp127
F-1.3727968374835413
aF-1.9736388365374964
aF-1.0476983229266565
aF-0.973426644002096
aF1.5402133464813232
aF-0.019388977681295216
aa(lp128
F-1.3728206793414515
aF-1.9736388365374964
aF-1.0476868788348597
aF-0.9734028021441858
aF1.5402133464813232
aF-0.019437138234273732
aa(lp129
F-1.3728206793414515
aF-1.9736507574664515
aF-1.0476868788348597
aF-0.973426644002096
aF1.540237307548523
aF-0.019413296376363576
aa(lp130
F-1.3728445211993616
aF-1.9736626783954065
aF-1.0476744810687464
aF-0.9733670393573206
aF1.5401774644851685
aF-0.019377056752340138
aa(lp131
F-1.3728206793414515
aF-1.9736750761615198
aF-1.0476983229266565
aF-0.973426644002096
aF1.5402493476867676
aF-0.019401375447408498
aa(lp132
F-1.3727968374835413
aF-1.9736626783954065
aF-1.047722641621725
aF-0.9734028021441858
aF1.5402133464813232
aF-0.019413296376363576
aa(lp133
F-1.3728206793414515
aF-1.9736507574664515
aF-1.0476868788348597
aF-0.9734147230731409
aF1.5402014255523682
aF-0.019401375447408498
aa(lp134
F-1.3728206793414515
aF-1.9736507574664515
aF-1.0476744810687464
aF-0.973426644002096
aF1.5401654243469238
aF-0.019413296376363576
aa(lp135
F-1.3727968374835413
aF-1.9736388365374964
aF-1.0476983229266565
aF-0.9734628836261194
aF1.5401774644851685
aF-0.019413296376363576
aa(lp136
F-1.3727849165545862
aF-1.9736507574664515
aF-1.0476983229266565
aF-0.9734028021441858
aF1.5402133464813232
aF-0.019425217305318654
aa(lp137
F-1.3727968374835413
aF-1.9736507574664515
aF-1.0477107206927698
aF-0.9734147230731409
aF1.5401893854141235
aF-0.019437138234273732
aa(lp138
F-1.3728683630572718
aF-1.9736626783954065
aF-1.0476983229266565
aF-0.9734385649310511
aF1.5402014255523682
aF-0.019388977681295216
aa(lp139
F-1.3727729956256312
aF-1.9736388365374964
aF-1.0476983229266565
aF-0.9734028021441858
aF1.5402133464813232
aF-0.01944905916322881
aa(lp140
F-1.3728087584124964
aF-1.9736507574664515
aF-1.0477107206927698
aF-0.9734028021441858
aF1.5402133464813232
aF-0.019413296376363576
aa(lp141
F-1.372761074696676
aF-1.9737346808062952
aF-1.04773456255068
aF-0.973426644002096
aF1.540237307548523
aF-0.019425217305318654
aa(lp142
F-1.3727009932147425
aF-1.9743817488299769
aF-1.0477588812457483
aF-0.9734028021441858
aF1.5401654243469238
aF-0.019437138234273732
aa(lp143
F-1.3727009932147425
aF-1.975964371358053
aF-1.0477708021747034
aF-0.9734147230731409
aF1.5401893854141235
aF-0.019413296376363576
aa(lp144
F-1.372761074696676
aF-1.978985611592428
aF-1.0476868788348597
aF-0.9733546415912073
aF1.5401535034179688
aF-0.019401375447408498
aa(lp145
F-1.372761074696676
aF-1.9826892058001917
aF-1.0476153532611292
aF-0.9733546415912073
aF1.5402133464813232
aF-0.019401375447408498
aa(lp146
F-1.3727009932147425
aF-1.9868133703814905
aF-1.0476153532611292
aF-0.9733670393573206
aF1.5402133464813232
aF-0.019437138234273732
aa(lp147
F-1.3727009932147425
aF-1.9898579756366175
aF-1.0476511160479944
aF-0.9733670393573206
aF1.5402253866195679
aF-0.019413296376363576
aa(lp148
F-1.3724859396563929
aF-1.9932387510882776
aF-1.0474112669574183
aF-0.9733427206622522
aF1.5401774644851685
aF-0.019401375447408498
aa(lp149
F-1.3724616209613245
aF-1.9969185034381312
aF-1.0472191015826624
aF-0.973306957875387
aF1.5402014255523682
aF-0.019413296376363576
aa(lp150
F-1.3724735418902796
aF-2.000862423573629
aF-1.0469911734210413
aF-0.9732950369464319
aF1.5402253866195679
aF-0.019437138234273732
aa(lp151
F-1.3724616209613245
aF-2.0029009024249476
aF-1.0464995543109339
aF-0.973306957875387
aF1.5402014255523682
aF-0.019425217305318654
aa(lp152
F-1.3724616209613245
aF-2.004531208668844
aF-1.0448210875140589
aF-0.9732950369464319
aF1.5402253866195679
aF-0.019388977681295216
aa(lp153
F-1.3724377791034144
aF-2.0065811316119593
aF-1.041823689137594
aF-0.9732707182513636
aF1.5402014255523682
aF-0.019388977681295216
aa(lp154
F-1.3724859396563929
aF-2.0100095907794397
aF-1.0361884276019495
aF-0.9732468763934534
aF1.5402014255523682
aF-0.019388977681295216
aa(lp155
F-1.3724497000323694
aF-2.0131266752826136
aF-1.0312960783587855
aF-0.9732587973224085
aF1.5402014255523682
aF-0.019413296376363576
aa(lp156
F-1.3724139372455042
aF-2.017250363026754
aF-1.025360409413473
aF-0.9732707182513636
aF1.5402014255523682
aF-0.019437138234273732
aa(lp157
F-1.3724258581744593
aF-2.020930592213766
aF-1.0206602255450647
aF-0.9732707182513636
aF1.5402014255523682
aF-0.019401375447408498
aa(lp158
F-1.3724377791034144
aF-2.023987595235006
aF-1.0170391241656702
aF-0.9732468763934534
aF1.5402014255523682
aF-0.019388977681295216
aa(lp159
F-1.3724258581744593
aF-2.026013199483053
aF-1.0145209471331995
aF-0.9732707182513636
aF1.5401774644851685
aF-0.019413296376363576
aa(lp160
F-1.3724258581744593
aF-2.027379814778463
aF-1.0125544706927698
aF-0.9732831160174769
aF1.5401535034179688
aF-0.019413296376363576
aa(lp161
F-1.3724377791034144
aF-2.028111282979147
aF-1.0117276350604456
aF-0.9732831160174769
aF1.5401893854141235
aF-0.019401375447408498
aa(lp162
F-1.3724616209613245
aF-2.0285308996783655
aF-1.0116913954364222
aF-0.9732831160174769
aF1.5402014255523682
aF-0.019413296376363576
aa(lp163
F-1.3724859396563929
aF-2.028698746358053
aF-1.0116913954364222
aF-0.9732707182513636
aF1.5401774644851685
aF-0.019377056752340138
aa(lp164
F-1.372509781514303
aF-2.0286386648761194
aF-1.0115593115436
aF-0.9732587973224085
aF1.5401774644851685
aF-0.019413296376363576
aa(lp165
F-1.3725574652301233
aF-2.0286148230182093
aF-1.0113194624530237
aF-0.9732587973224085
aF1.5402014255523682
aF-0.019413296376363576
aa(lp166
F-1.3725813070880335
aF-2.0285666624652308
aF-1.0111992994891565
aF-0.973306957875387
aF1.5402014255523682
aF-0.019401375447408498
aa(lp167
F-1.3725813070880335
aF-2.0285308996783655
aF-1.0110438505755823
aF-0.9732831160174769
aF1.5401893854141235
aF-0.019413296376363576
aa(lp168
F-1.372641388569967
aF-2.0285189787494105
aF-1.0109718481646937
aF-0.9732950369464319
aF1.5401535034179688
aF-0.019401375447408498
aa(lp169
F-1.3727129141436976
aF-2.0284350554095667
aF-1.0109480063067835
aF-0.973306957875387
aF1.5402014255523682
aF-0.019413296376363576
aa(lp170
F-1.3728683630572718
aF-2.0284231344806116
aF-1.0109718481646937
aF-0.9732831160174769
aF1.5401893854141235
aF-0.019401375447408498
aa(lp171
F-1.3730123678790491
aF-2.0283988157855433
aF-1.0109480063067835
aF-0.9733188788043421
aF1.5402253866195679
aF-0.019413296376363576
aa(lp172
F-1.3731077353106897
aF-2.0283988157855433
aF-1.0109718481646937
aF-0.973306957875387
aF1.5402253866195679
aF-0.019401375447408498
aa(lp173
F-1.3730600515948694
aF-2.028363052998678
aF-1.0109599272357386
aF-0.9733307997332972
aF1.5402133464813232
aF-0.019425217305318654
aa(lp174
F-1.3730838934527796
aF-2.028374973927633
aF-1.0110076109515589
aF-0.9733188788043421
aF1.5402253866195679
aF-0.019401375447408498
aa(lp175
F-1.3731077353106897
aF-2.028386894856588
aF-1.0110076109515589
aF-0.9733789602862757
aF1.5401893854141235
aF-0.019388977681295216
aa(lp176
F-1.3731196562396448
aF-2.028386894856588
aF-1.0110076109515589
aF-0.9733670393573206
aF1.5401893854141235
aF-0.019425217305318654
aa(lp177
F-1.3731315771686
aF-2.028374973927633
aF-1.0110324064837855
aF-0.9733427206622522
aF1.5402133464813232
aF-0.019425217305318654
aa(lp178
F-1.3731077353106897
aF-2.028386894856588
aF-1.0110324064837855
aF-0.9733188788043421
aF1.5401893854141235
aF-0.019425217305318654
aa(lp179
F-1.3731439749347132
aF-2.0283988157855433
aF-1.0110681692706507
aF-0.9733427206622522
aF1.540237307548523
aF-0.019425217305318654
aa(lp180
F-1.3730958143817347
aF-2.0284107367144983
aF-1.0110324064837855
aF-0.9733789602862757
aF1.5402014255523682
aF-0.019413296376363576
aa(lp181
F-1.3731315771686
aF-2.028363052998678
aF-1.0110324064837855
aF-0.9733670393573206
aF1.5402014255523682
aF-0.019413296376363576
aa(lp182
F-1.3731315771686
aF-2.0284107367144983
aF-1.0110324064837855
aF-0.9733789602862757
aF1.5402133464813232
aF-0.019401375447408498
aa(lp183
F-1.3731558958636683
aF-2.028446976338522
aF-1.0110324064837855
aF-0.9733307997332972
aF1.5401893854141235
aF-0.019401375447408498
aa(lp184
F-1.3731916586505335
aF-2.0284350554095667
aF-1.0110562483416956
aF-0.9733670393573206
aF1.5402133464813232
aF-0.019401375447408498
aa(lp185
F-1.3731196562396448
aF-2.0283988157855433
aF-1.011103932057516
aF-0.9733427206622522
aF1.5402133464813232
aF-0.019413296376363576
aa(lp186
F-1.3731916586505335
aF-2.0284231344806116
aF-1.011103932057516
aF-0.9733427206622522
aF1.5401774644851685
aF-0.019425217305318654
aa(lp187
F-1.3731916586505335
aF-2.0283988157855433
aF-1.0110800901996058
aF-0.9733546415912073
aF1.5402133464813232
aF-0.019413296376363576
aa(lp188
F-1.3731558958636683
aF-2.0283988157855433
aF-1.0110681692706507
aF-0.9733427206622522
aF1.5402014255523682
aF-0.019413296376363576
aa(lp189
F-1.3732035795794886
aF-2.0284350554095667
aF-1.0110681692706507
aF-0.9733670393573206
aF1.5402133464813232
aF-0.019401375447408498
aa(lp190
F-1.3732155005084437
aF-2.0284107367144983
aF-1.0110438505755823
aF-0.9733789602862757
aF1.540237307548523
aF-0.019425217305318654
aa(lp191
F-1.373275105153219
aF-2.0284107367144983
aF-1.0110681692706507
aF-0.9733427206622522
aF1.5402133464813232
aF-0.019413296376363576
aa(lp192
F-1.3733590284930628
aF-2.0283988157855433
aF-1.0110681692706507
aF-0.9733546415912073
aF1.5402014255523682
aF-0.019388977681295216
aa(lp193
F-1.3733471075641077
aF-2.028339211140768
aF-1.0110438505755823
aF-0.9733908812152308
aF1.5402133464813232
aF-0.019377056752340138
aa(lp194
F-1.3733952681170862
aF-2.0282910505877894
aF-1.0109837690936487
aF-0.9733307997332972
aF1.5402253866195679
aF-0.019401375447408498
aa(lp195
F-1.3734071890460413
aF-2.0283148924456995
aF-1.0109718481646937
aF-0.9733789602862757
aF1.5401774644851685
aF-0.019413296376363576
aa(lp196
F-1.3734071890460413
aF-2.028255287800924
aF-1.0110076109515589
aF-0.9733546415912073
aF1.5401893854141235
aF-0.019401375447408498
aa.