(lp0
(lp1
F-1.1130970160113733
aF-1.5310052076922815
aF-2.045520607625143
aF-0.9837606588946741
aF1.540069580078125
aF-0.0198443571673792
aa(lp2
F-1.1130850950824183
aF-1.5310171286212366
aF-2.045520607625143
aF-0.9837124983416956
aF1.5400575399398804
aF-0.01978475252260381
aa(lp3
F-1.1131203810321253
aF-1.5310171286212366
aF-2.045532528554098
aF-0.9837244192706507
aF1.540069580078125
aF-0.019808594380513966
aa(lp4
F-1.1131089369403284
aF-1.531041447316305
aF-2.045532528554098
aF-0.9837244192706507
aF1.540069580078125
aF-0.019796673451558888
aa(lp5
F-1.1130850950824183
aF-1.5310171286212366
aF-2.045520607625143
aF-0.9837244192706507
aF1.5400335788726807
aF-0.019796673451558888
aa(lp6
F-1.1131323019610804
aF-1.5310171286212366
aF-2.045544449483053
aF-0.9837244192706507
aF1.54008150100708
aF-0.019808594380513966
aa(lp7
F-1.1130970160113733
aF-1.531041447316305
aF-2.045532528554098
aF-0.983748737965719
aF1.540069580078125
aF-0.019820515309469044
aa(lp8
F-1.1130850950824183
aF-1.5310171286212366
aF-2.045544449483053
aF-0.9837124983416956
aF1.54008150100708
aF-0.019796673451558888
aa(lp9
F-1.1130970160113733
aF-1.5310290495501917
aF-2.045532528554098
aF-0.9836886564837855
aF1.5400575399398804
aF-0.019832436238424123
aa(lp10
F-1.1130850950824183
aF-1.5310652891742151
aF-2.045544449483053
aF-0.983748737965719
aF1.540069580078125
aF-0.019796673451558888
aa(lp11
F-1.1130850950824183
aF-1.5310290495501917
aF-2.045532528554098
aF-0.983748737965719
aF1.54008150100708
aF-0.01978475252260381
aa(lp12
F-1.1130731741534632
aF-1.5311134497271937
aF-2.045556370412008
aF-0.983748737965719
aF1.5401054620742798
aF-0.019772831593648732
aa(lp13
F-1.1130850950824183
aF-1.5311253706561487
aF-2.0456765333758753
aF-0.9837005774127405
aF1.5400575399398804
aF-0.019796673451558888
aa(lp14
F-1.11306077638735
aF-1.5313532988177698
aF-2.046239201222555
aF-0.9837606588946741
aF1.54008150100708
aF-0.01978475252260381
aa(lp15
F-1.1130369345294397
aF-1.5318086783038538
aF-2.0463107267962855
aF-0.9837244192706507
aF1.5400335788726807
aF-0.019820515309469044
aa(lp16
F-1.1130850950824183
aF-1.532851521168844
aF-2.04651385942568
aF-0.9837363401996058
aF1.5400335788726807
aF-0.019808594380513966
aa(lp17
F-1.11306077638735
aF-1.5351880232440394
aF-2.0468376318561
aF-0.9837725798236292
aF1.5400335788726807
aF-0.019820515309469044
aa(lp18
F-1.11306077638735
aF-1.538567845021383
aF-2.0473044554339808
aF-0.9837606588946741
aF1.54008150100708
aF-0.01978475252260381
aa(lp19
F-1.1130488554583948
aF-1.5424631277667444
aF-2.0478552023517054
aF-0.9837363401996058
aF1.5400935411453247
aF-0.019820515309469044
aa(lp20
F-1.1130369345294397
aF-1.5468977133380335
aF-2.048190418873922
aF-0.983748737965719
aF1.54008150100708
aF-0.01978475252260381
aa(lp21
F-1.1130011717425745
aF-1.5513561407672327
aF-2.0488246122943323
aF-0.983748737965719
aF1.5400575399398804
aF-0.019808594380513966
aa(lp22
F-1.1130130926715296
aF-1.5550711790667933
aF-2.0500577131854456
aF-0.9837363401996058
aF1.540069580078125
aF-0.019796673451558888
aa(lp23
F-1.112953011189596
aF-1.5582359472857874
aF-2.051410977040426
aF-0.9837964216815394
aF1.5400575399398804
aF-0.019820515309469044
aa(lp24
F-1.1127374807940882
aF-1.5625742117511194
aF-2.0543559233294886
aF-0.9837244192706507
aF1.540069580078125
aF-0.019796673451558888
aa(lp25
F-1.1124981085406702
aF-1.5672128836261194
aF-2.0610483328448694
aF-0.983748737965719
aF1.540069580078125
aF-0.019820515309469044
aa(lp26
F-1.1123903433429163
aF-1.5728338400470179
aF-2.0697038809405726
aF-0.9837606588946741
aF1.54008150100708
aF-0.019796673451558888
aa(lp27
F-1.1120665709124964
aF-1.5793541113482874
aF-2.0791495482074183
aF-0.983748737965719
aF1.540069580078125
aF-0.019808594380513966
aa(lp28
F-1.1114800612079065
aF-1.5855982939349573
aF-2.0897086302386683
aF-0.9837606588946741
aF1.5401054620742798
aF-0.019808594380513966
aa(lp29
F-1.1110370794879358
aF-1.5911715666400355
aF-2.098926846181051
aF-0.9837363401996058
aF1.5400575399398804
aF-0.019796673451558888
aa(lp30
F-1.1105578581439417
aF-1.5971525351153772
aF-2.105738941823141
aF-0.983748737965719
aF1.54008150100708
aF-0.019796673451558888
aa(lp31
F-1.1104982534991663
aF-1.6027854124652308
aF-2.106624428425924
aF-0.983748737965719
aF1.5400575399398804
aF-0.019808594380513966
aa(lp32
F-1.1105340162860315
aF-1.6064289251910608
aF-2.1065405050860804
aF-0.983748737965719
aF1.5400935411453247
aF-0.01978475252260381
aa(lp33
F-1.1104500929461878
aF-1.6092456022845667
aF-2.1065524260150355
aF-0.9837005774127405
aF1.5401054620742798
aF-0.019820515309469044
aa(lp34
F-1.1104143301593226
aF-1.6115949789630335
aF-2.1065285841571253
aF-0.9837244192706507
aF1.54008150100708
aF-0.019808594380513966
aa(lp35
F-1.1100075880633753
aF-1.6134408156024378
aF-2.106492344533102
aF-0.9837244192706507
aF1.540069580078125
aF-0.01978475252260381
aa(lp36
F-1.1081274191485804
aF-1.6154659430133265
aF-2.1063969771014612
aF-0.9837725798236292
aF1.5401054620742798
aF-0.019808594380513966
aa(lp37
F-1.1029790083514612
aF-1.617647949849264
aF-2.1056788603412073
aF-0.9837725798236292
aF1.5400575399398804
aF-0.019820515309469044
aa(lp38
F-1.0958417097674769
aF-1.6205719153033655
aF-2.1036675612079065
aF-0.983748737965719
aF1.54008150100708
aF-0.019808594380513966
aa(lp39
F-1.0883820692645472
aF-1.623005215321676
aF-2.1014769713031214
aF-0.9836886564837855
aF1.540069580078125
aF-0.019796673451558888
aa(lp40
F-1.0788381735431116
aF-1.6245153586017054
aF-2.0980408827411097
aF-0.9837363401996058
aF1.540069580078125
aF-0.019796673451558888
aa(lp41
F-1.0725396315204065
aF-1.6249950567828577
aF-2.0951083342181605
aF-0.983748737965719
aF1.5400935411453247
aF-0.019796673451558888
aa(lp42
F-1.0676897207843226
aF-1.6259892622577112
aF-2.092533890401022
aF-0.9837124983416956
aF1.54008150100708
aF-0.019772831593648732
aa(lp43
F-1.064899746571676
aF-1.6283510367022913
aF-2.0920432249652308
aF-0.9836886564837855
aF1.540069580078125
aF-0.019808594380513966
aa(lp44
F-1.0646961371051233
aF-1.6336725393878382
aF-2.0920432249652308
aF-0.9837124983416956
aF1.5400456190109253
aF-0.019808594380513966
aa(lp45
F-1.0646598974811
aF-1.6430090109454554
aF-2.0920189062701624
aF-0.9837363401996058
aF1.5401054620742798
aF-0.019772831593648732
aa(lp46
F-1.0646961371051233
aF-1.6536887327777308
aF-2.0918877760516565
aF-0.9837363401996058
aF1.5401175022125244
aF-0.019796673451558888
aa(lp47
F-1.0647080580340784
aF-1.668023411427633
aF-2.0916722456561487
aF-0.9837005774127405
aF1.5400456190109253
aF-0.019796673451558888
aa(lp48
F-1.0647318998919886
aF-1.6831019560443323
aF-2.091564480458395
aF-0.983748737965719
aF1.54008150100708
aF-0.019832436238424123
aa(lp49
F-1.0647318998919886
aF-1.6986239592181605
aF-2.091253105794088
aF-0.9836886564837855
aF1.5400935411453247
aF-0.019772831593648732
aa(lp50
F-1.0647442976581019
aF-1.7133668104754847
aF-2.0911219755755823
aF-0.983652416859762
aF1.540069580078125
aF-0.019808594380513966
aa(lp51
F-1.0646961371051233
aF-1.7269471327411097
aF-2.0911458174334925
aF-0.9837244192706507
aF1.540069580078125
aF-0.019808594380513966
aa(lp52
F-1.0647442976581019
aF-1.7388375441180628
aF-2.091229263936178
aF-0.9837363401996058
aF1.5400575399398804
aF-0.019796673451558888
aa(lp53
F-1.064768139516012
aF-1.7484028975116175
aF-2.091205898915426
aF-0.9837244192706507
aF1.5400456190109253
aF-0.019808594380513966
aa(lp54
F-1.0647318998919886
aF-1.7553189436541956
aF-2.091241184865133
aF-0.9837005774127405
aF1.5400456190109253
aF-0.019808594380513966
aa(lp55
F-1.0647199789630335
aF-1.7624509970294397
aF-2.091360870991842
aF-0.9837244192706507
aF1.54008150100708
aF-0.019808594380513966
aa(lp56
F-1.0647080580340784
aF-1.7672575155841272
aF-2.091553036366598
aF-0.9836886564837855
aF1.54008150100708
aF-0.01978475252260381
aa(lp57
F-1.064756218587057
aF-1.76947528520693
aF-2.091553036366598
aF-0.9837124983416956
aF1.54008150100708
aF-0.019808594380513966
aa(lp58
F-1.0647318998919886
aF-1.7699545065509241
aF-2.0915406386004847
aF-0.9837244192706507
aF1.5400575399398804
aF-0.019820515309469044
aa(lp59
F-1.0647080580340784
aF-1.7699545065509241
aF-2.091553036366598
aF-0.9837124983416956
aF1.5400335788726807
aF-0.019796673451558888
aa(lp60
F-1.0647442976581019
aF-1.7699545065509241
aF-2.091564480458395
aF-0.9837244192706507
aF1.5400935411453247
aF-0.019808594380513966
aa(lp61
F-1.0646961371051233
aF-1.7699545065509241
aF-2.091588322316305
aF-0.9837005774127405
aF1.5400575399398804
aF-0.019832436238424123
aa(lp62
F-1.064756218587057
aF-1.769942585621969
aF-2.0916484037982386
aF-0.9837005774127405
aF1.540069580078125
aF-0.019808594380513966
aa(lp63
F-1.0647318998919886
aF-1.7699664274798792
aF-2.091743771229879
aF-0.9837124983416956
aF1.5400935411453247
aF-0.019772831593648732
aa(lp64
F-1.0647318998919886
aF-1.7700026671039026
aF-2.0926535765277308
aF-0.9837244192706507
aF1.540069580078125
aF-0.019796673451558888
aa(lp65
F-1.064768139516012
aF-1.7700145880328577
aF-2.0937674681292933
aF-0.9837005774127405
aF1.540069580078125
aF-0.019820515309469044
aa(lp66
F-1.064756218587057
aF-1.7700265089618128
aF-2.0947373549090784
aF-0.9836886564837855
aF1.54008150100708
aF-0.019820515309469044
aa(lp67
F-1.064756218587057
aF-1.7700145880328577
aF-2.09534722963442
aF-0.9837124983416956
aF1.5400575399398804
aF-0.019796673451558888
aa(lp68
F-1.064768139516012
aF-1.7700265089618128
aF-2.095454994832174
aF-0.9837005774127405
aF1.540069580078125
aF-0.019808594380513966
aa(lp69
F-1.0647318998919886
aF-1.7700265089618128
aF-2.0954907576190394
aF-0.9837363401996058
aF1.5400575399398804
aF-0.019796673451558888
aa(lp70
F-1.0647442976581019
aF-1.770050350819723
aF-2.0955989996539515
aF-0.9837244192706507
aF1.540069580078125
aF-0.019796673451558888
aa(lp71
F-1.0647924582110804
aF-1.7700145880328577
aF-2.095670525227682
aF-0.9836767355548304
aF1.540069580078125
aF-0.019808594380513966
aa(lp72
F-1.064768139516012
aF-1.7699788252459925
aF-2.0959699789630335
aF-0.9837005774127405
aF1.54008150100708
aF-0.019808594380513966
aa(lp73
F-1.0647318998919886
aF-1.7699788252459925
aF-2.0974186102496546
aF-0.9837124983416956
aF1.5400575399398804
aF-0.019820515309469044
aa(lp74
F-1.0647442976581019
aF-1.769942585621969
aF-2.099849049245016
aF-0.9836886564837855
aF1.5401175022125244
aF-0.019832436238424123
aa(lp75
F-1.0647442976581019
aF-1.769930664693014
aF-2.104182545338766
aF-0.9836767355548304
aF1.5401054620742798
aF-0.01978475252260381
aa(lp76
F-1.0646961371051233
aF-1.7699068228351038
aF-2.109833065663473
aF-0.9836886564837855
aF1.5400575399398804
aF-0.019796673451558888
aa(lp77
F-1.0647199789630335
aF-1.769810978566305
aF-2.1143820921527308
aF-0.9836767355548304
aF1.5400575399398804
aF-0.01978475252260381
aa(lp78
F-1.0647080580340784
aF-1.7697270552264612
aF-2.118595902119772
aF-0.9836886564837855
aF1.540069580078125
aF-0.019808594380513966
aa(lp79
F-1.0647442976581019
aF-1.7697151342975062
aF-2.122366730366842
aF-0.9836886564837855
aF1.5400575399398804
aF-0.01978475252260381
aa(lp80
F-1.064768139516012
aF-1.7696669737445276
aF-2.126664463673727
aF-0.9836648146258753
aF1.540069580078125
aF-0.01978475252260381
aa(lp81
F-1.0647442976581019
aF-1.7695110479937952
aF-2.131285015736715
aF-0.9836404959308069
aF1.5400935411453247
aF-0.01978475252260381
aa(lp82
F-1.064756218587057
aF-1.7692950407611292
aF-2.1359179655658167
aF-0.9837124983416956
aF1.54008150100708
aF-0.019796673451558888
aa(lp83
F-1.064756218587057
aF-1.7686718145953577
aF-2.139808003102438
aF-0.9836767355548304
aF1.5400575399398804
aF-0.019760910664693654
aa(lp84
F-1.064756218587057
aF-1.7664778868304651
aF-2.1453149954425257
aF-0.9836886564837855
aF1.5400935411453247
aF-0.01978475252260381
aa(lp85
F-1.064756218587057
aF-1.761024300252096
aF-2.154867474232809
aF-0.9836047331439417
aF1.5401054620742798
aF-0.01978475252260381
aa(lp86
F-1.064780060444967
aF-1.75185472169985
aF-2.1690762678729456
aF-0.9836404959308069
aF1.5401054620742798
aF-0.019796673451558888
aa(lp87
F-1.0647199789630335
aF-1.739544693623678
aF-2.1852248350726526
aF-0.9836285750018519
aF1.5401175022125244
aF-0.019760910664693654
aa(lp88
F-1.0646961371051233
aF-1.725281063710348
aF-2.2008817831622522
aF-0.9837363401996058
aF1.5400575399398804
aF-0.01978475252260381
aa(lp89
F-1.0647080580340784
aF-1.711053196583883
aF-2.2147071997271937
aF-0.983652416859762
aF1.5401054620742798
aF-0.019772831593648732
aa(lp90
F-1.0647318998919886
aF-1.6965621153460901
aF-2.228065315877096
aF-0.9836404959308069
aF1.5401054620742798
aF-0.019796673451558888
aa(lp91
F-1.064756218587057
aF-1.684192959462301
aF-2.2387660185443323
aF-0.9836285750018519
aF1.5401175022125244
aF-0.019796673451558888
aa(lp92
F-1.0647199789630335
aF-1.6706965605365198
aF-2.2523396650897425
aF-0.983652416859762
aF1.5401175022125244
aF-0.019808594380513966
aa(lp93
F-1.0647318998919886
aF-1.6573446432696741
aF-2.2668469587909144
aF-0.9836166540728968
aF1.54008150100708
aF-0.019796673451558888
aa(lp94
F-1.0647080580340784
aF-1.6447232405291956
aF-2.282466236745016
aF-0.9836404959308069
aF1.5401175022125244
aF-0.019796673451558888
aa(lp95
F-1.0647199789630335
aF-1.6323421637164515
aF-2.29873234430422
aF-0.983652416859762
aF1.5401175022125244
aF-0.019808594380513966
aa(lp96
F-1.0646961371051233
aF-1.6203444639789026
aF-2.3152127901660364
aF-0.9836285750018519
aF1.540129542350769
aF-0.019796673451558888
aa(lp97
F-1.0647199789630335
aF-1.6084664503680628
aF-2.3314903418170374
aF-0.9836047331439417
aF1.540129542350769
aF-0.019760910664693654
aa(lp98
F-1.064671818410055
aF-1.5960257689105433
aF-2.346642557774679
aF-0.9836285750018519
aF1.5401054620742798
aF-0.019772831593648732
aa(lp99
F-1.0647080580340784
aF-1.585226837788717
aF-2.3585150877581995
aF-0.9836285750018519
aF1.540129542350769
aF-0.01978475252260381
aa(lp100
F-1.0647318998919886
aF-1.5725944677936
aF-2.371333185826437
aF-0.9836047331439417
aF1.5401654243469238
aF-0.01978475252260381
aa(lp101
F-1.0647199789630335
aF-1.5596616903888147
aF-2.3838277498828333
aF-0.9836404959308069
aF1.5401654243469238
aF-0.019748512898580373
aa(lp102
F-1.0646961371051233
aF-1.54753286043276
aF-2.3937371412860315
aF-0.983652416859762
aF1.5401774644851685
aF-0.019796673451558888
aa(lp103
F-1.0646961371051233
aF-1.5357635656939905
aF-2.4030478636371058
aF-0.9835928122149866
aF1.5401893854141235
aF-0.01978475252260381
aa(lp104
F-1.0647442976581019
aF-1.5242942015277308
aF-2.413064781819479
aF-0.9836404959308069
aF1.5401893854141235
aF-0.019772831593648732
aa(lp105
F-1.0647080580340784
aF-1.513303581868307
aF-2.422243897114889
aF-0.983652416859762
aF1.540237307548523
aF-0.01978475252260381
aa(lp106
F-1.0646598974811
aF-1.5026009718524378
aF-2.4307530562030237
aF-0.9836166540728968
aF1.5401893854141235
aF-0.019760910664693654
aa(lp107
F-1.0647442976581019
aF-1.4926655928241175
aF-2.4399803320514124
aF-0.983652416859762
aF1.540237307548523
aF-0.019772831593648732
aa(lp108
F-1.064768139516012
aF-1.4843843618976038
aF-2.447686735783712
aF-0.9836285750018519
aF1.5401535034179688
aF-0.01978475252260381
aa(lp109
F-1.064756218587057
aF-1.47508412996401
aF-2.454867664967672
aF-0.9836285750018519
aF1.5402493476867676
aF-0.019760910664693654
aa(lp110
F-1.064768139516012
aF-1.4661672751056116
aF-2.4606836477862757
aF-0.9836166540728968
aF1.540237307548523
aF-0.019748512898580373
aa(lp111
F-1.064756218587057
aF-1.459132496510641
aF-2.464069906865255
aF-0.9836648146258753
aF1.5402253866195679
aF-0.019748512898580373
aa(lp112
F-1.064768139516012
aF-1.4529007116900843
aF-2.4677322546588343
aF-0.9836404959308069
aF1.5402253866195679
aF-0.01978475252260381
aa(lp113
F-1.064780060444967
aF-1.4489334265338343
aF-2.469790283833639
aF-0.9836404959308069
aF1.5402253866195679
aF-0.019772831593648732
aa(lp114
F-1.064780060444967
aF-1.4476988951312464
aF-2.469898049031393
aF-0.9836767355548304
aF1.5402493476867676
aF-0.019748512898580373
aa(lp115
F-1.0648396650897425
aF-1.44775897661318
aF-2.4698501268969935
aF-0.9836166540728968
aF1.540237307548523
aF-0.019748512898580373
aa(lp116
F-1.0647924582110804
aF-1.4477351347552698
aF-2.4698501268969935
aF-0.983652416859762
aF1.5402014255523682
aF-0.01978475252260381
aa(lp117
F-1.0647442976581019
aF-1.447770897542135
aF-2.4698262850390833
aF-0.9836404959308069
aF1.5402133464813232
aF-0.019820515309469044
aa(lp118
F-1.064780060444967
aF-1.447747055684225
aF-2.4698382059680384
aF-0.9836404959308069
aF1.5402133464813232
aF-0.019796673451558888
aa(lp119
F-1.0648043791400355
aF-1.4477832953082483
aF-2.469814125691549
aF-0.9836166540728968
aF1.5402014255523682
aF-0.01978475252260381
aa(lp120
F-1.0648043791400355
aF-1.4478791395770472
aF-2.4697423616992396
aF-0.983652416859762
aF1.5402133464813232
aF-0.019808594380513966
aa(lp121
F-1.064756218587057
aF-1.4479029814349573
aF-2.469778362904684
aF-0.983652416859762
aF1.5401654243469238
aF-0.01978475252260381
aa(lp122
F-1.0647924582110804
aF-1.4478910605060022
aF-2.4697302023517054
aF-0.9836648146258753
aF1.5401774644851685
aF-0.01978475252260381
aa(lp123
F-1.0648043791400355
aF-1.4478910605060022
aF-2.469671074544088
aF-0.9836648146258753
aF1.5402133464813232
aF-0.019832436238424123
aa.