(lp0
(lp1
F-1.5402138868915003
aF-1.9477575461017054
aF-1.68658954301943
aF-0.9701421896563929
aF1.5405845642089844
aF-0.019712750111715138
aa(lp2
F-1.5402258078204554
aF-1.9477575461017054
aF-1.68658954301943
aF-0.9701183477984827
aF1.5405845642089844
aF-0.019724671040670216
aa(lp3
F-1.5402138868915003
aF-1.9477813879596155
aF-1.686577622090475
aF-0.9701064268695276
aF1.5405845642089844
aF-0.01970082918276006
aa(lp4
F-1.5402258078204554
aF-1.9477093855487269
aF-1.68658954301943
aF-0.9701302687274378
aF1.540608525276184
aF-0.019712750111715138
aa(lp5
F-1.5401900450335901
aF-1.9477337042437952
aF-1.6865657011615198
aF-0.9700945059405726
aF1.5405725240707397
aF-0.019724671040670216
aa(lp6
F-1.54016620317568
aF-1.9477456251727503
aF-1.68658954301943
aF-0.9701183477984827
aF1.5405845642089844
aF-0.019724671040670216
aa(lp7
F-1.540178124104635
aF-1.9477093855487269
aF-1.6865418593036097
aF-0.9701183477984827
aF1.5405845642089844
aF-0.019736591969625294
aa(lp8
F-1.5402138868915003
aF-1.9477575461017054
aF-1.686577622090475
aF-0.9700701872455042
aF1.5405725240707397
aF-0.019772831593648732
aa(lp9
F-1.540178124104635
aF-1.9477337042437952
aF-1.686577622090475
aF-0.9701183477984827
aF1.5405725240707397
aF-0.019724671040670216
aa(lp10
F-1.5401900450335901
aF-1.9477575461017054
aF-1.686601463948385
aF-0.9701064268695276
aF1.54054856300354
aF-0.019724671040670216
aa(lp11
F-1.5402138868915003
aF-1.9477456251727503
aF-1.686577622090475
aF-0.9701064268695276
aF1.540608525276184
aF-0.019712750111715138
aa(lp12
F-1.540178124104635
aF-1.9477456251727503
aF-1.68658954301943
aF-0.9701064268695276
aF1.5405845642089844
aF-0.019760910664693654
aa(lp13
F-1.5402258078204554
aF-1.9476974646197718
aF-1.6865537802325647
aF-0.9700945059405726
aF1.5405845642089844
aF-0.019724671040670216
aa(lp14
F-1.540178124104635
aF-1.9477337042437952
aF-1.686577622090475
aF-0.9701302687274378
aF1.5405845642089844
aF-0.019736591969625294
aa(lp15
F-1.5402377287494105
aF-1.9477337042437952
aF-1.6865537802325647
aF-0.9701183477984827
aF1.5405845642089844
aF-0.019736591969625294
aa(lp16
F-1.5401900450335901
aF-1.9477575461017054
aF-1.68658954301943
aF-0.9701302687274378
aF1.5405725240707397
aF-0.019724671040670216
aa(lp17
F-1.54016620317568
aF-1.9477093855487269
aF-1.6865418593036097
aF-0.9701064268695276
aF1.5405964851379395
aF-0.019724671040670216
aa(lp18
F-1.5402258078204554
aF-1.9477093855487269
aF-1.68658954301943
aF-0.9701064268695276
aF1.5405845642089844
aF-0.019724671040670216
aa(lp19
F-1.5402019659625452
aF-1.9477456251727503
aF-1.6865418593036097
aF-0.9701183477984827
aF1.5405845642089844
aF-0.019760910664693654
aa(lp20
F-1.5401900450335901
aF-1.9477456251727503
aF-1.6865537802325647
aF-0.9700945059405726
aF1.5405725240707397
aF-0.019736591969625294
aa(lp21
F-1.5402019659625452
aF-1.9477337042437952
aF-1.686577622090475
aF-0.9701183477984827
aF1.5405964851379395
aF-0.019724671040670216
aa(lp22
F-1.5401900450335901
aF-1.9477575461017054
aF-1.686577622090475
aF-0.9701183477984827
aF1.5405964851379395
aF-0.019748512898580373
aa(lp23
F-1.5402138868915003
aF-1.9477575461017054
aF-1.6865537802325647
aF-0.9701064268695276
aF1.5405845642089844
aF-0.019724671040670216
aa(lp24
F-1.5402019659625452
aF-1.9477575461017054
aF-1.686601463948385
aF-0.9701421896563929
aF1.5405725240707397
aF-0.019736591969625294
aa(lp25
F-1.540178124104635
aF-1.9477217833148401
aF-1.6865537802325647
aF-0.9700945059405726
aF1.5406204462051392
aF-0.019724671040670216
aa(lp26
F-1.540178124104635
aF-1.9477456251727503
aF-1.6865657011615198
aF-0.9701064268695276
aF1.5405845642089844
aF-0.019736591969625294
aa(lp27
F-1.540178124104635
aF-1.9477337042437952
aF-1.686577622090475
aF-0.9700701872455042
aF1.540608525276184
aF-0.019736591969625294
aa(lp28
F-1.5402138868915003
aF-1.9477337042437952
aF-1.68658954301943
aF-0.9701183477984827
aF1.540608525276184
aF-0.019724671040670216
aa(lp29
F-1.5402258078204554
aF-1.9477337042437952
aF-1.686601463948385
aF-0.9701302687274378
aF1.540608525276184
aF-0.01970082918276006
aa(lp30
F-1.5402138868915003
aF-1.9477337042437952
aF-1.686577622090475
aF-0.9700825850116175
aF1.5405725240707397
aF-0.019724671040670216
aa(lp31
F-1.540178124104635
aF-1.9477456251727503
aF-1.6865418593036097
aF-0.9701064268695276
aF1.5405725240707397
aF-0.019736591969625294
aa(lp32
F-1.5402501265155237
aF-1.9477217833148401
aF-1.686601463948385
aF-0.9701302687274378
aF1.5405845642089844
aF-0.019712750111715138
aa(lp33
F-1.5402258078204554
aF-1.9477456251727503
aF-1.68658954301943
aF-0.9701302687274378
aF1.5405845642089844
aF-0.019724671040670216
aa(lp34
F-1.5401418844806116
aF-1.9477456251727503
aF-1.686577622090475
aF-0.9701302687274378
aF1.5405606031417847
aF-0.019736591969625294
aa(lp35
F-1.54016620317568
aF-1.9477575461017054
aF-1.686577622090475
aF-0.9701064268695276
aF1.5405964851379395
aF-0.019712750111715138
aa(lp36
F-1.5402138868915003
aF-1.9477575461017054
aF-1.686577622090475
aF-0.9701064268695276
aF1.5405964851379395
aF-0.019724671040670216
aa(lp37
F-1.5402138868915003
aF-1.9477456251727503
aF-1.686577622090475
aF-0.9701183477984827
aF1.5405845642089844
aF-0.019736591969625294
aa(lp38
F-1.5402258078204554
aF-1.9477337042437952
aF-1.6865537802325647
aF-0.9700945059405726
aF1.5405845642089844
aF-0.019724671040670216
aa(lp39
F-1.5402377287494105
aF-1.9477217833148401
aF-1.686601463948385
aF-0.9701421896563929
aF1.5405606031417847
aF-0.019712750111715138
aa(lp40
F-1.540178124104635
aF-1.9477575461017054
aF-1.68658954301943
aF-0.9700945059405726
aF1.54054856300354
aF-0.019724671040670216
aa(lp41
F-1.5402019659625452
aF-1.9477337042437952
aF-1.686601463948385
aF-0.9701064268695276
aF1.540608525276184
aF-0.019736591969625294
aa(lp42
F-1.5402258078204554
aF-1.9477456251727503
aF-1.68658954301943
aF-0.9701421896563929
aF1.540608525276184
aF-0.019760910664693654
aa(lp43
F-1.5402138868915003
aF-1.9477337042437952
aF-1.68658954301943
aF-0.9701183477984827
aF1.5405964851379395
aF-0.019724671040670216
aa(lp44
F-1.540178124104635
aF-1.9477456251727503
aF-1.68658954301943
aF-0.9701665083514612
aF1.5405845642089844
aF-0.019736591969625294
aa(lp45
F-1.540178124104635
aF-1.9477456251727503
aF-1.68658954301943
aF-0.9701183477984827
aF1.5406204462051392
aF-0.019736591969625294
aa(lp46
F-1.5402019659625452
aF-1.9477217833148401
aF-1.6865537802325647
aF-0.9700701872455042
aF1.540608525276184
aF-0.019736591969625294
aa(lp47
F-1.5402138868915003
aF-1.9477337042437952
aF-1.6865657011615198
aF-0.9701302687274378
aF1.5405606031417847
aF-0.019736591969625294
aa(lp48
F-1.5402138868915003
aF-1.9477093855487269
aF-1.6865418593036097
aF-0.9701064268695276
aF1.5405845642089844
aF-0.019748512898580373
aa(lp49
F-1.5402138868915003
aF-1.9477575461017054
aF-1.6865657011615198
aF-0.9701183477984827
aF1.5406204462051392
aF-0.019724671040670216
aa(lp50
F-1.5401900450335901
aF-1.9477337042437952
aF-1.6865537802325647
aF-0.9701183477984827
aF1.5405606031417847
aF-0.019736591969625294
aa(lp51
F-1.540178124104635
aF-1.9477217833148401
aF-1.6865537802325647
aF-0.9701183477984827
aF1.5405845642089844
aF-0.019736591969625294
aa(lp52
F-1.5402019659625452
aF-1.9477337042437952
aF-1.6865657011615198
aF-0.9701421896563929
aF1.540608525276184
aF-0.019724671040670216
aa(lp53
F-1.5402377287494105
aF-1.9477093855487269
aF-1.68658954301943
aF-0.9700701872455042
aF1.5405606031417847
aF-0.019760910664693654
aa(lp54
F-1.5402138868915003
aF-1.9477093855487269
aF-1.6865657011615198
aF-0.9701421896563929
aF1.5405964851379395
aF-0.019688908253804982
aa(lp55
F-1.5402501265155237
aF-1.9477217833148401
aF-1.6865537802325647
aF-0.9701421896563929
aF1.5405845642089844
aF-0.019748512898580373
aa(lp56
F-1.5402258078204554
aF-1.9477694670306605
aF-1.6865180174456995
aF-0.9701183477984827
aF1.5405725240707397
aF-0.019724671040670216
aa(lp57
F-1.5402377287494105
aF-1.9477337042437952
aF-1.6864936987506312
aF-0.9701302687274378
aF1.5405606031417847
aF-0.019736591969625294
aa(lp58
F-1.5402501265155237
aF-1.9477337042437952
aF-1.6865056196795862
aF-0.9701064268695276
aF1.5405725240707397
aF-0.019748512898580373
aa(lp59
F-1.5402377287494105
aF-1.9477337042437952
aF-1.6864936987506312
aF-0.9701064268695276
aF1.5405845642089844
aF-0.019688908253804982
aa(lp60
F-1.5402501265155237
aF-1.9477575461017054
aF-1.686469856892721
aF-0.9701183477984827
aF1.5405964851379395
aF-0.019736591969625294
aa(lp61
F-1.5402258078204554
aF-1.9477456251727503
aF-1.686469856892721
aF-0.9700945059405726
aF1.5405725240707397
aF-0.019772831593648732
aa(lp62
F-1.5402019659625452
aF-1.9477575461017054
aF-1.6864216963397425
aF-0.9700825850116175
aF1.5405845642089844
aF-0.019760910664693654
aa(lp63
F-1.5402258078204554
aF-1.9477456251727503
aF-1.6864340941058558
aF-0.9701302687274378
aF1.540608525276184
aF-0.019736591969625294
aa(lp64
F-1.5402138868915003
aF-1.9477813879596155
aF-1.686230484639303
aF-0.9701064268695276
aF1.540608525276184
aF-0.019712750111715138
aa(lp65
F-1.5402258078204554
aF-1.9477694670306605
aF-1.6857031027423304
aF-0.970154110585348
aF1.5405725240707397
aF-0.019748512898580373
aa(lp66
F-1.5402620474444788
aF-1.9477575461017054
aF-1.685188118611471
aF-0.9700582663165491
aF1.5405845642089844
aF-0.019724671040670216
aa(lp67
F-1.5402377287494105
aF-1.9477694670306605
aF-1.684493366871969
aF-0.9700701872455042
aF1.5405725240707397
aF-0.01970082918276006
aa(lp68
F-1.5402138868915003
aF-1.9477933088885706
aF-1.6834753195392054
aF-0.9700945059405726
aF1.540608525276184
aF-0.019724671040670216
aa(lp69
F-1.5402138868915003
aF-1.947829548512594
aF-1.6825650374041956
aF-0.9700945059405726
aF1.540608525276184
aF-0.019724671040670216
aa(lp70
F-1.5402138868915003
aF-1.9478414694415491
aF-1.6818822065936487
aF-0.9701302687274378
aF1.5405964851379395
aF-0.019748512898580373
aa(lp71
F-1.5401900450335901
aF-1.9479253927813929
aF-1.6817386786090296
aF-0.9701302687274378
aF1.5405964851379395
aF-0.019748512898580373
aa(lp72
F-1.5402019659625452
aF-1.9480212370501917
aF-1.6815226713763636
aF-0.9701183477984827
aF1.54054856300354
aF-0.019736591969625294
aa(lp73
F-1.5402377287494105
aF-1.9482129255877894
aF-1.6810196081744593
aF-0.9700825850116175
aF1.5405725240707397
aF-0.019724671040670216
aa(lp74
F-1.5402138868915003
aF-1.9486449400531214
aF-1.6800015608416956
aF-0.9701302687274378
aF1.5405964851379395
aF-0.019736591969625294
aa(lp75
F-1.540178124104635
aF-1.9496877829181116
aF-1.677701775227682
aF-0.9701302687274378
aF1.5405964851379395
aF-0.019724671040670216
aa(lp76
F-1.5401900450335901
aF-1.9510300795184534
aF-1.6736891905414026
aF-0.9701183477984827
aF1.5406204462051392
aF-0.019712750111715138
aa(lp77
F-1.5401900450335901
aF-1.9524086157428187
aF-1.6672685782061976
aF-0.970154110585348
aF1.5405606031417847
aF-0.019736591969625294
aa(lp78
F-1.5402019659625452
aF-1.9536073843585413
aF-1.6598060766803187
aF-0.9701183477984827
aF1.5405964851379395
aF-0.019736591969625294
aa(lp79
F-1.5402258078204554
aF-1.9553936163531702
aF-1.6496241728412073
aF-0.9701064268695276
aF1.5405845642089844
aF-0.019736591969625294
aa(lp80
F-1.540178124104635
aF-1.9581988493548792
aF-1.6389744917498987
aF-0.9701421896563929
aF1.5405606031417847
aF-0.019748512898580373
aa(lp81
F-1.5401418844806116
aF-1.9616387526141565
aF-1.6275103727923792
aF-0.9700945059405726
aF1.5405964851379395
aF-0.01970082918276006
aa(lp82
F-1.5401061216937464
aF-1.964731518422262
aF-1.6167290846454065
aF-0.9701183477984827
aF1.540608525276184
aF-0.019712750111715138
aa(lp83
F-1.5400942007647913
aF-1.9683883825885218
aF-1.6047733465777796
aF-0.9700825850116175
aF1.5405606031417847
aF-0.019736591969625294
aa(lp84
F-1.540046517048971
aF-1.9738548437701624
aF-1.5923979918109339
aF-0.9701183477984827
aF1.5405845642089844
aF-0.019736591969625294
aa(lp85
F-1.539938751851217
aF-1.9809272925006312
aF-1.580010716115133
aF-0.9701064268695276
aF1.5405964851379395
aF-0.019772831593648732
aa(lp86
F-1.539938751851217
aF-1.9903138319598597
aF-1.5671199003802698
aF-0.9701183477984827
aF1.5405845642089844
aF-0.019736591969625294
aa(lp87
F-1.5399025122271937
aF-2.000706974660055
aF-1.5539773146258753
aF-0.9700701872455042
aF1.5405725240707397
aF-0.019748512898580373
aa(lp88
F-1.5398910681353968
aF-2.011388127003805
aF-1.5414693991290491
aF-0.9701183477984827
aF1.5406204462051392
aF-0.019724671040670216
aa(lp89
F-1.5398910681353968
aF-2.021278206502096
aF-1.5300872961627405
aF-0.9701183477984827
aF1.5405725240707397
aF-0.019724671040670216
aa(lp90
F-1.539914909993307
aF-2.0321276823626917
aF-1.5170519987689417
aF-0.9702141920672815
aF1.5405845642089844
aF-0.019688908253804982
aa(lp91
F-1.5398309866534632
aF-2.042305294667379
aF-1.5046752134906214
aF-0.9702261129962366
aF1.54054856300354
aF-0.019712750111715138
aa(lp92
F-1.539819065724508
aF-2.052182976399557
aF-1.4914830366717737
aF-0.9702861944781702
aF1.5405725240707397
aF-0.019724671040670216
aa(lp93
F-1.539819065724508
aF-2.0608742872821253
aF-1.4791057745562952
aF-0.9702623526202601
aF1.5405845642089844
aF-0.019676987324849904
aa(lp94
F-1.539819065724508
aF-2.069014851246969
aF-1.466788117085592
aF-0.9702261129962366
aF1.5406204462051392
aF-0.019712750111715138
aa(lp95
F-1.539807144795553
aF-2.077574078236715
aF-1.4542425314532679
aF-0.9702742735492151
aF1.5405725240707397
aF-0.019748512898580373
aa(lp96
F-1.5397947470294397
aF-2.0846107641803187
aF-1.4437454382525843
aF-0.9702623526202601
aF1.5405964851379395
aF-0.019712750111715138
aa(lp97
F-1.539807144795553
aF-2.091839615498678
aF-1.4321940580951136
aF-0.9703100363360804
aF1.5405725240707397
aF-0.019736591969625294
aa(lp98
F-1.539807144795553
aF-2.098002258931295
aF-1.4222000280963343
aF-0.9702981154071253
aF1.5405606031417847
aF-0.019712750111715138
aa(lp99
F-1.5397947470294397
aF-2.1027615706073206
aF-1.4138239065753382
aF-0.9703219572650355
aF1.54054856300354
aF-0.019712750111715138
aa(lp100
F-1.5397947470294397
aF-2.107065025960104
aF-1.4054597059832972
aF-0.9702981154071253
aF1.5405845642089844
aF-0.019724671040670216
aa(lp101
F-1.5397947470294397
aF-2.111692253743307
aF-1.3970587889300745
aF-0.9703338781939905
aF1.540608525276184
aF-0.019712750111715138
aa(lp102
F-1.539819065724508
aF-2.115025345479147
aF-1.3912227789508265
aF-0.9703100363360804
aF1.5405725240707397
aF-0.019724671040670216
aa(lp103
F-1.5397709051715296
aF-2.116751495991842
aF-1.3879993597613733
aF-0.9702861944781702
aF1.5406204462051392
aF-0.019724671040670216
aa(lp104
F-1.5397828261004847
aF-2.1191495100604456
aF-1.384188477193014
aF-0.9702861944781702
aF1.54054856300354
aF-0.019736591969625294
aa(lp105
F-1.5397828261004847
aF-2.1217029730426233
aF-1.3809531370746058
aF-0.9702742735492151
aF1.5405725240707397
aF-0.019724671040670216
aa(lp106
F-1.5397828261004847
aF-2.1246159712420862
aF-1.3768423239337366
aF-0.970250431691305
aF1.5405606031417847
aF-0.019724671040670216
aa(lp107
F-1.5397947470294397
aF-2.127181355153219
aF-1.37223989168276
aF-0.9702742735492151
aF1.5405725240707397
aF-0.019724671040670216
aa(lp108
F-1.539807144795553
aF-2.1304429213153284
aF-1.3672431151019495
aF-0.9703100363360804
aF1.540608525276184
aF-0.019724671040670216
aa(lp109
F-1.5397709051715296
aF-2.135202232991354
aF-1.3616703192340296
aF-0.9702742735492151
aF1.5405725240707397
aF-0.019736591969625294
aa(lp110
F-1.5397709051715296
aF-2.1395538488971155
aF-1.3571160475360315
aF-0.970250431691305
aF1.54054856300354
aF-0.019712750111715138
aa(lp111
F-1.539807144795553
aF-2.1437857786761683
aF-1.3529694716082972
aF-0.9702742735492151
aF1.54054856300354
aF-0.019712750111715138
aa(lp112
F-1.539807144795553
aF-2.1475260893451136
aF-1.3477805296527308
aF-0.9702742735492151
aF1.5405606031417847
aF-0.019712750111715138
aa(lp113
F-1.5397828261004847
aF-2.149971310292379
aF-1.343597714100973
aF-0.9702742735492151
aF1.54054856300354
aF-0.019724671040670216
aa(lp114
F-1.5397947470294397
aF-2.1512425581561487
aF-1.3407214323626917
aF-0.9702623526202601
aF1.5405964851379395
aF-0.019736591969625294
aa(lp115
F-1.5397947470294397
aF-2.152153793965475
aF-1.337569538746969
aF-0.9702623526202601
aF1.5405845642089844
aF-0.019712750111715138
aa(lp116
F-1.539807144795553
aF-2.1527050177203577
aF-1.335508171712057
aF-0.9702742735492151
aF1.5405964851379395
aF-0.019736591969625294
aa(lp117
F-1.5397828261004847
aF-2.1531484762774866
aF-1.334381405507223
aF-0.9702742735492151
aF1.5405845642089844
aF-0.019736591969625294
aa(lp118
F-1.5397470633136194
aF-2.1534364859210413
aF-1.3342378775226038
aF-0.9702380339251917
aF1.5405964851379395
aF-0.019724671040670216
aa(lp119
F-1.5398309866534632
aF-2.1537841002093714
aF-1.3340094725238245
aF-0.9703100363360804
aF1.5405725240707397
aF-0.01970082918276006
aa(lp120
F-1.539819065724508
aF-2.153951946889059
aF-1.3338778654681605
aF-0.9702380339251917
aF1.5405725240707397
aF-0.019724671040670216
aa(lp121
F-1.5397947470294397
aF-2.1539276281939905
aF-1.3339017073260706
aF-0.970250431691305
aF1.5405964851379395
aF-0.019724671040670216
aa(lp122
F-1.539819065724508
aF-2.153975788746969
aF-1.3339617888080042
aF-0.9702861944781702
aF1.5405725240707397
aF-0.019736591969625294
aa(lp123
F-1.539819065724508
aF-2.1539157072650355
aF-1.3340218702899378
aF-0.970250431691305
aF1.5405606031417847
aF-0.019772831593648732
aa(lp124
F-1.5398433844195765
aF-2.1539157072650355
aF-1.334142033253805
aF-0.9702380339251917
aF1.5405606031417847
aF-0.019736591969625294
aa(lp125
F-1.539819065724508
aF-2.15387994447817
aF-1.3342378775226038
aF-0.9702623526202601
aF1.54054856300354
aF-0.019748512898580373
aa(lp126
F-1.5398309866534632
aF-2.1539157072650355
aF-1.334381405507223
aF-0.9702623526202601
aF1.5405725240707397
aF-0.019736591969625294
aa(lp127
F-1.539807144795553
aF-2.15387994447817
aF-1.3344767729388636
aF-0.9702623526202601
aF1.5405964851379395
aF-0.019712750111715138
aa(lp128
F-1.539807144795553
aF-2.1539037863360804
aF-1.3345015684710901
aF-0.970250431691305
aF1.5406204462051392
aF-0.019760910664693654
aa(lp129
F-1.539819065724508
aF-2.1539276281939905
aF-1.3345854918109339
aF-0.970250431691305
aF1.5405725240707397
aF-0.01970082918276006
aa(lp130
F-1.5398309866534632
aF-2.1539395491229456
aF-1.3346331755267542
aF-0.970250431691305
aF1.5405725240707397
aF-0.019748512898580373
aa(lp131
F-1.539819065724508
aF-2.1538918654071253
aF-1.3346932570086878
aF-0.970250431691305
aF1.54054856300354
aF-0.019748512898580373
aa(lp132
F-1.5398553053485315
aF-2.15387994447817
aF-1.3347051779376429
aF-0.9702261129962366
aF1.5405725240707397
aF-0.019724671040670216
aa(lp133
F-1.5398433844195765
aF-2.1538918654071253
aF-1.3346808592425745
aF-0.9702141920672815
aF1.5405964851379395
aF-0.019736591969625294
aa(lp134
F-1.5397947470294397
aF-2.1538918654071253
aF-1.334717098866598
aF-0.970250431691305
aF1.5406204462051392
aF-0.019772831593648732
aa(lp135
F-1.539807144795553
aF-2.1539037863360804
aF-1.334740940724508
aF-0.9702623526202601
aF1.5405845642089844
aF-0.019712750111715138
aa(lp136
F-1.5398309866534632
aF-2.1539276281939905
aF-1.334717098866598
aF-0.970250431691305
aF1.5405606031417847
aF-0.019724671040670216
aa(lp137
F-1.5398553053485315
aF-2.1539157072650355
aF-1.3347528616534632
aF-0.970250431691305
aF1.5405725240707397
aF-0.019724671040670216
aa(lp138
F-1.5398553053485315
aF-2.1539157072650355
aF-1.3347528616534632
aF-0.9702022711383265
aF1.5405725240707397
aF-0.019724671040670216
aa(lp139
F-1.5398791472064417
aF-2.1538918654071253
aF-1.334717098866598
aF-0.9701784292804163
aF1.5406324863433838
aF-0.01970082918276006
aa(lp140
F-1.5398553053485315
aF-2.1539037863360804
aF-1.334740940724508
aF-0.970250431691305
aF1.54054856300354
aF-0.019724671040670216
aa(lp141
F-1.5398309866534632
aF-2.1538918654071253
aF-1.334740940724508
aF-0.970250431691305
aF1.5406204462051392
aF-0.019736591969625294
aa(lp142
F-1.539807144795553
aF-2.1538918654071253
aF-1.334729019795553
aF-0.9702742735492151
aF1.5405845642089844
aF-0.019712750111715138
aa(lp143
F-1.539807144795553
aF-2.1539157072650355
aF-1.334740940724508
aF-0.970250431691305
aF1.5405845642089844
aF-0.019736591969625294
aa(lp144
F-1.5398433844195765
aF-2.15387994447817
aF-1.334740940724508
aF-0.9702742735492151
aF1.5405964851379395
aF-0.019736591969625294
aa(lp145
F-1.539807144795553
aF-2.1539157072650355
aF-1.3347771803485315
aF-0.9702022711383265
aF1.5405725240707397
aF-0.019748512898580373
aa(lp146
F-1.539819065724508
aF-2.1539037863360804
aF-1.334740940724508
aF-0.9702380339251917
aF1.5405845642089844
aF-0.019724671040670216
aa(lp147
F-1.539807144795553
aF-2.1539157072650355
aF-1.3347528616534632
aF-0.9702261129962366
aF1.5405725240707397
aF-0.019736591969625294
aa(lp148
F-1.5398553053485315
aF-2.1539157072650355
aF-1.334729019795553
aF-0.9702380339251917
aF1.5405725240707397
aF-0.019712750111715138
aa(lp149
F-1.5398433844195765
aF-2.1539395491229456
aF-1.3347647825824183
aF-0.9702861944781702
aF1.540608525276184
aF-0.019724671040670216
aa(lp150
F-1.5398309866534632
aF-2.1539037863360804
aF-1.334729019795553
aF-0.970250431691305
aF1.5405725240707397
aF-0.019712750111715138
aa(lp151
F-1.5397947470294397
aF-2.1539157072650355
aF-1.3347771803485315
aF-0.9702742735492151
aF1.54054856300354
aF-0.019724671040670216
aa(lp152
F-1.5398433844195765
aF-2.1539037863360804
aF-1.334729019795553
aF-0.970250431691305
aF1.5405725240707397
aF-0.01970082918276006
aa(lp153
F-1.539819065724508
aF-2.1539037863360804
aF-1.3347771803485315
aF-0.9702742735492151
aF1.5405725240707397
aF-0.019724671040670216
aa(lp154
F-1.5398553053485315
aF-2.1539276281939905
aF-1.3347528616534632
aF-0.9702623526202601
aF1.5405964851379395
aF-0.019724671040670216
aa.