(lp0
(lp1
F-1.4504430929767054
aF-1.880305592213766
aF-1.7999661604510706
aF-0.9698908964740198
aF1.5400216579437256
aF-0.019916836415426076
aa(lp2
F-1.4504669348346155
aF-1.880305592213766
aF-1.8000019232379358
aF-0.9699266592608851
aF1.5399737358093262
aF-0.019928757344381154
aa(lp3
F-1.4504788557635706
aF-1.8802931944476526
aF-1.7999780813800257
aF-0.9699505011187952
aF1.5399856567382812
aF-0.019904915486470998
aa(lp4
F-1.4504669348346155
aF-1.880317513142721
aF-1.7999537626849573
aF-0.9699748198138636
aF1.5399737358093262
aF-0.019916836415426076
aa(lp5
F-1.4504788557635706
aF-1.8802812735186976
aF-1.7999900023089808
aF-0.9699266592608851
aF1.5400216579437256
aF-0.019904915486470998
aa(lp6
F-1.4504550139056605
aF-1.880317513142721
aF-1.7999661604510706
aF-0.96991473833193
aF1.5400216579437256
aF-0.019916836415426076
aa(lp7
F-1.4504430929767054
aF-1.880329434071676
aF-1.7999780813800257
aF-0.9699266592608851
aF1.5400216579437256
aF-0.019916836415426076
aa(lp8
F-1.4504912535296839
aF-1.880305592213766
aF-1.7999900023089808
aF-0.9699266592608851
aF1.5400216579437256
aF-0.019904915486470998
aa(lp9
F-1.4504669348346155
aF-1.880329434071676
aF-1.7999423185931605
aF-0.9699505011187952
aF1.540009617805481
aF-0.019928757344381154
aa(lp10
F-1.4504550139056605
aF-1.880317513142721
aF-1.7999661604510706
aF-0.9699385801898401
aF1.5400216579437256
aF-0.019916836415426076
aa(lp11
F-1.4504550139056605
aF-1.880317513142721
aF-1.7999537626849573
aF-0.96991473833193
aF1.5400216579437256
aF-0.019928757344381154
aa(lp12
F-1.4504669348346155
aF-1.880317513142721
aF-1.7999900023089808
aF-0.9699266592608851
aF1.540009617805481
aF-0.019904915486470998
aa(lp13
F-1.4504669348346155
aF-1.880329434071676
aF-1.7999780813800257
aF-0.9699028174029749
aF1.5400456190109253
aF-0.019928757344381154
aa(lp14
F-1.4504430929767054
aF-1.880317513142721
aF-1.7999537626849573
aF-0.9699505011187952
aF1.540009617805481
aF-0.019916836415426076
aa(lp15
F-1.4504669348346155
aF-1.8803413550006312
aF-1.7999661604510706
aF-0.9699266592608851
aF1.5399976968765259
aF-0.01989299455751592
aa(lp16
F-1.4504669348346155
aF-1.8803413550006312
aF-1.7999900023089808
aF-0.9699505011187952
aF1.5399737358093262
aF-0.019904915486470998
aa(lp17
F-1.4504192511187952
aF-1.880329434071676
aF-1.7999900023089808
aF-0.9699624220477503
aF1.5399737358093262
aF-0.01995259920229131
aa(lp18
F-1.4504430929767054
aF-1.880329434071676
aF-1.7999423185931605
aF-0.9699266592608851
aF1.5399976968765259
aF-0.019928757344381154
aa(lp19
F-1.4504550139056605
aF-1.880305592213766
aF-1.7999900023089808
aF-0.9699385801898401
aF1.540009617805481
aF-0.019940678273336232
aa(lp20
F-1.4504430929767054
aF-1.880329434071676
aF-1.7999661604510706
aF-0.9699505011187952
aF1.5400575399398804
aF-0.019880596791402638
aa(lp21
F-1.4504550139056605
aF-1.8803532759295862
aF-1.7999780813800257
aF-0.9699385801898401
aF1.540009617805481
aF-0.019928757344381154
aa(lp22
F-1.4504311720477503
aF-1.8803413550006312
aF-1.7999661604510706
aF-0.9699266592608851
aF1.5399856567382812
aF-0.01995259920229131
aa(lp23
F-1.4504912535296839
aF-1.8803413550006312
aF-1.8000019232379358
aF-0.9699385801898401
aF1.5400216579437256
aF-0.019916836415426076
aa(lp24
F-1.4504550139056605
aF-1.880317513142721
aF-1.7999780813800257
aF-0.9699266592608851
aF1.5399856567382812
aF-0.019928757344381154
aa(lp25
F-1.4504669348346155
aF-1.880329434071676
aF-1.8000019232379358
aF-0.96991473833193
aF1.5400216579437256
aF-0.019928757344381154
aa(lp26
F-1.4504788557635706
aF-1.880317513142721
aF-1.8000019232379358
aF-0.96991473833193
aF1.5399976968765259
aF-0.019916836415426076
aa(lp27
F-1.4504669348346155
aF-1.880317513142721
aF-1.7999661604510706
aF-0.9699505011187952
aF1.5400216579437256
aF-0.019904915486470998
aa(lp28
F-1.450503174458639
aF-1.880317513142721
aF-1.7999661604510706
aF-0.9699028174029749
aF1.5400216579437256
aF-0.019880596791402638
aa(lp29
F-1.4504912535296839
aF-1.880329434071676
aF-1.7999423185931605
aF-0.96991473833193
aF1.5400216579437256
aF-0.019904915486470998
aa(lp30
F-1.4507301489459437
aF-1.880305592213766
aF-1.7999299208270472
aF-0.9699505011187952
aF1.540009617805481
aF-0.019904915486470998
aa(lp31
F-1.4514125029193323
aF-1.8802693525897425
aF-1.799894158040182
aF-0.9699028174029749
aF1.5399976968765259
aF-0.01989299455751592
aa(lp32
F-1.4527528921710413
aF-1.8802931944476526
aF-1.7998459974872034
aF-0.9699266592608851
aF1.5399976968765259
aF-0.019904915486470998
aa(lp33
F-1.4544637838946741
aF-1.8802812735186976
aF-1.7998102347003382
aF-0.9699028174029749
aF1.5400335788726807
aF-0.01989299455751592
aa(lp34
F-1.4575155417071741
aF-1.8802812735186976
aF-1.7994630972491663
aF-0.9699028174029749
aF1.5400456190109253
aF-0.019904915486470998
aa(lp35
F-1.4624818007098597
aF-1.8802931944476526
aF-1.7991040388690394
aF-0.9699505011187952
aF1.5400216579437256
aF-0.019904915486470998
aa(lp36
F-1.4707029501544397
aF-1.8803651968585413
aF-1.799067799245016
aF-0.9699385801898401
aF1.5399976968765259
aF-0.019904915486470998
aa(lp37
F-1.4808390776263636
aF-1.880305592213766
aF-1.7986725012408655
aF-0.9699385801898401
aF1.5400216579437256
aF-0.019916836415426076
aa(lp38
F-1.4904001394854944
aF-1.8803532759295862
aF-1.7973907629596155
aF-0.9698908964740198
aF1.5399976968765259
aF-0.019940678273336232
aa(lp39
F-1.499686066304342
aF-1.880305592213766
aF-1.7952473799334925
aF-0.9699028174029749
aF1.5399856567382812
aF-0.019928757344381154
aa(lp40
F-1.5099166075335901
aF-1.880329434071676
aF-1.7922771612750452
aF-0.96991473833193
aF1.5400335788726807
aF-0.019928757344381154
aa(lp41
F-1.5185917059527796
aF-1.880329434071676
aF-1.7899296919452112
aF-0.9699266592608851
aF1.5399856567382812
aF-0.019916836415426076
aa(lp42
F-1.5280688444720667
aF-1.880317513142721
aF-1.7865288893329065
aF-0.9699385801898401
aF1.5400216579437256
aF-0.019904915486470998
aa(lp43
F-1.5351641813861292
aF-1.8803413550006312
aF-1.7833789030658167
aF-0.9699266592608851
aF1.540009617805481
aF-0.019940678273336232
aa(lp44
F-1.5421159903155726
aF-1.880329434071676
aF-1.7809117476092737
aF-0.96991473833193
aF1.5400216579437256
aF-0.019928757344381154
aa(lp45
F-1.545239273701803
aF-1.8802931944476526
aF-1.7799533049212855
aF-0.9699266592608851
aF1.5400216579437256
aF-0.01989299455751592
aa(lp46
F-1.545872990285055
aF-1.880317513142721
aF-1.779677693043844
aF-0.9699028174029749
aF1.5400456190109253
aF-0.019916836415426076
aa(lp47
F-1.5458610693561
aF-1.880317513142721
aF-1.7796180883990687
aF-0.9699385801898401
aF1.540009617805481
aF-0.019904915486470998
aa(lp48
F-1.5458133856402796
aF-1.8802931944476526
aF-1.7796300093280237
aF-0.9698908964740198
aF1.5400216579437256
aF-0.01989299455751592
aa(lp49
F-1.5458491484271448
aF-1.8802693525897425
aF-1.7796300093280237
aF-0.9699266592608851
aF1.5399976968765259
aF-0.019916836415426076
aa(lp50
F-1.5458257834063929
aF-1.880305592213766
aF-1.779677693043844
aF-0.9699266592608851
aF1.5400335788726807
aF-0.01996499696840459
aa(lp51
F-1.5458372274981897
aF-1.880305592213766
aF-1.779665772114889
aF-0.96991473833193
aF1.5399976968765259
aF-0.019916836415426076
aa(lp52
F-1.5458372274981897
aF-1.880305592213766
aF-1.779665772114889
aF-0.9699266592608851
aF1.5399976968765259
aF-0.019928757344381154
aa(lp53
F-1.5458257834063929
aF-1.880305592213766
aF-1.7796300093280237
aF-0.9699028174029749
aF1.5400216579437256
aF-0.019928757344381154
aa(lp54
F-1.5457895437823694
aF-1.880329434071676
aF-1.779665772114889
aF-0.9699624220477503
aF1.5399856567382812
aF-0.019916836415426076
aa(lp55
F-1.5458257834063929
aF-1.8803413550006312
aF-1.7796061674701136
aF-0.9699385801898401
aF1.540009617805481
aF-0.019904915486470998
aa(lp56
F-1.5458372274981897
aF-1.8804014364825647
aF-1.7795823256122034
aF-0.9699385801898401
aF1.540009617805481
aF-0.019904915486470998
aa(lp57
F-1.5458372274981897
aF-1.8806408087359827
aF-1.7792704741107386
aF-0.9699385801898401
aF1.540009617805481
aF-0.019916836415426076
aa(lp58
F-1.5457895437823694
aF-1.8810961882220667
aF-1.7774623076068323
aF-0.9699266592608851
aF1.5399976968765259
aF-0.019916836415426076
aa(lp59
F-1.5458014647113245
aF-1.882019344960348
aF-1.7720606962787073
aF-0.9699505011187952
aF1.540009617805481
aF-0.019916836415426076
aa(lp60
F-1.5458133856402796
aF-1.883937184010641
aF-1.7620604673968714
aF-0.9699385801898401
aF1.5399976968765259
aF-0.019904915486470998
aa(lp61
F-1.5459211508380335
aF-1.8871377150165003
aF-1.748753849660055
aF-0.9699028174029749
aF1.5399976968765259
aF-0.019904915486470998
aa(lp62
F-1.5458973089801233
aF-1.890601936970846
aF-1.737171475087301
aF-0.9699266592608851
aF1.540009617805481
aF-0.019928757344381154
aa(lp63
F-1.5458257834063929
aF-1.8941505591021937
aF-1.7291467825519007
aF-0.9699028174029749
aF1.5400216579437256
aF-0.019904915486470998
aa(lp64
F-1.545872990285055
aF-1.8988736311541956
aF-1.722978417073385
aF-0.96991473833193
aF1.540009617805481
aF-0.019928757344381154
aa(lp65
F-1.54588491121401
aF-1.9036081472979944
aF-1.7179597059832972
aF-0.9699028174029749
aF1.540009617805481
aF-0.019928757344381154
aa(lp66
F-1.5458491484271448
aF-1.9077914396869105
aF-1.7150853315936487
aF-0.9699266592608851
aF1.5400456190109253
aF-0.019904915486470998
aa(lp67
F-1.5458610693561
aF-1.912778679524557
aF-1.7128694693194788
aF-0.9699028174029749
aF1.540009617805481
aF-0.019928757344381154
aa(lp68
F-1.5458610693561
aF-1.9190476576434534
aF-1.7114556471454065
aF-0.9699028174029749
aF1.5399856567382812
aF-0.019928757344381154
aa(lp69
F-1.5458491484271448
aF-1.9247782866107386
aF-1.7097790876971644
aF-0.9699028174029749
aF1.5399976968765259
aF-0.019928757344381154
aa(lp70
F-1.545872990285055
aF-1.93004018465151
aF-1.7068684736834925
aF-0.9699266592608851
aF1.5399976968765259
aF-0.019904915486470998
aa(lp71
F-1.5458610693561
aF-1.9336608091937464
aF-1.7036226431476038
aF-0.9699266592608851
aF1.5400216579437256
aF-0.019904915486470998
aa(lp72
F-1.5458610693561
aF-1.9379876295672815
aF-1.6971305052386683
aF-0.9699385801898401
aF1.5399616956710815
aF-0.019940678273336232
aa(lp73
F-1.545872990285055
aF-1.9428547064410608
aF-1.687284294758932
aF-0.9699385801898401
aF1.5400216579437256
aF-0.019928757344381154
aa(lp74
F-1.5458610693561
aF-1.9482486883746546
aF-1.6763718763934534
aF-0.9699624220477503
aF1.5400216579437256
aF-0.019928757344381154
aa(lp75
F-1.5458372274981897
aF-1.9541829268084925
aF-1.664285961781637
aF-0.9699266592608851
aF1.5399976968765259
aF-0.019904915486470998
aa(lp76
F-1.5458133856402796
aF-1.9616149107562464
aF-1.6494439283954065
aF-0.96991473833193
aF1.5400335788726807
aF-0.019916836415426076
aa(lp77
F-1.5458372274981897
aF-1.969778839741842
aF-1.6357396284686487
aF-0.9699028174029749
aF1.5399856567382812
aF-0.019904915486470998
aa(lp78
F-1.54588491121401
aF-1.978325668965475
aF-1.6243718306170862
aF-0.9699028174029749
aF1.5400456190109253
aF-0.019928757344381154
aa(lp79
F-1.5458372274981897
aF-1.9877007643329065
aF-1.6136983076678675
aF-0.9699505011187952
aF1.540009617805481
aF-0.019916836415426076
aa(lp80
F-1.54588491121401
aF-1.9980576674090784
aF-1.6029165426837366
aF-0.9699505011187952
aF1.5399976968765259
aF-0.019940678273336232
aa(lp81
F-1.54588491121401
aF-2.0074084440814417
aF-1.593799893056051
aF-0.9699266592608851
aF1.5400456190109253
aF-0.019916836415426076
aa(lp82
F-1.5459211508380335
aF-2.0182932058917444
aF-1.5834487120257776
aF-0.9699028174029749
aF1.540009617805481
aF-0.019940678273336232
aa(lp83
F-1.5458610693561
aF-2.0267565886126917
aF-1.574787441884176
aF-0.96991473833193
aF1.5399976968765259
aF-0.019904915486470998
aa(lp84
F-1.5458973089801233
aF-2.0354960600482386
aF-1.5640409628497522
aF-0.9698784987079065
aF1.540009617805481
aF-0.019928757344381154
aa(lp85
F-1.545872990285055
aF-2.0441153685199183
aF-1.5523961226092737
aF-0.9699266592608851
aF1.5399856567382812
aF-0.01995259920229131
aa(lp86
F-1.54588491121401
aF-2.0512598196612757
aF-1.5427153746234339
aF-0.9700105826007288
aF1.5399501323699951
aF-0.01989299455751592
aa(lp87
F-1.54588491121401
aF-2.0569785276996058
aF-1.5344365278827112
aF-0.9701302687274378
aF1.540009617805481
aF-0.019916836415426076
aa(lp88
F-1.5459211508380335
aF-2.0618212858783167
aF-1.5262416044818323
aF-0.9701302687274378
aF1.540009617805481
aF-0.019880596791402638
aa(lp89
F-1.5459092299090784
aF-2.0649502913104456
aF-1.5186331907855433
aF-0.9701064268695276
aF1.540009617805481
aF-0.019916836415426076
aa(lp90
F-1.5458973089801233
aF-2.0662692228900355
aF-1.5130017439471644
aF-0.9701421896563929
aF1.5399976968765259
aF-0.019904915486470998
aa(lp91
F-1.5459211508380335
aF-2.067815605794088
aF-1.5066035429583948
aF-0.9701064268695276
aF1.5399976968765259
aF-0.019904915486470998
aa(lp92
F-1.5459335486041468
aF-2.069817845021383
aF-1.5014999548541468
aF-0.9701302687274378
aF1.540009617805481
aF-0.019916836415426076
aa(lp93
F-1.5459454695331019
aF-2.0723350683795374
aF-1.4967549482928675
aF-0.9701665083514612
aF1.5400216579437256
aF-0.01989299455751592
aa(lp94
F-1.5459335486041468
aF-2.0753563086139124
aF-1.4926570097552698
aF-0.9701421896563929
aF1.5399976968765259
aF-0.019904915486470998
aa(lp95
F-1.545969311391012
aF-2.077801529561178
aF-1.4900453726397913
aF-0.9701064268695276
aF1.5399976968765259
aF-0.019904915486470998
aa(lp96
F-1.545957390462057
aF-2.079563919697897
aF-1.4874213377581995
aF-0.9701665083514612
aF1.5399856567382812
aF-0.019916836415426076
aa(lp97
F-1.5459454695331019
aF-2.0821173826800745
aF-1.483455006276266
aF-0.9701421896563929
aF1.5399856567382812
aF-0.01986867586244756
aa(lp98
F-1.5459454695331019
aF-2.0848987738238733
aF-1.4795129934894007
aF-0.9701421896563929
aF1.5400216579437256
aF-0.01989299455751592
aa(lp99
F-1.5458973089801233
aF-2.088231865559713
aF-1.4744322935687464
aF-0.9701421896563929
aF1.5399856567382812
aF-0.01989299455751592
aa(lp100
F-1.545981232319967
aF-2.091264549885885
aF-1.4699271360980433
aF-0.9701064268695276
aF1.5400456190109253
aF-0.019904915486470998
aa(lp101
F-1.5460289160357874
aF-2.09530479112734
aF-1.4651101271258753
aF-0.9701421896563929
aF1.5399856567382812
aF-0.019916836415426076
aa(lp102
F-1.5461128393756312
aF-2.099464718495504
aF-1.4596822897540491
aF-0.9701421896563929
aF1.5400335788726807
aF-0.019928757344381154
aa(lp103
F-1.5461848417865198
aF-2.104487721120016
aF-1.4531520048724573
aF-0.9701903502093714
aF1.5400216579437256
aF-0.019904915486470998
aa(lp104
F-1.546340290700094
aF-2.109534565602438
aF-1.4455187956439417
aF-0.9701183477984827
aF1.5399976968765259
aF-0.019916836415426076
aa(lp105
F-1.5465315024005335
aF-2.1153371969806116
aF-1.4355734030352991
aF-0.970154110585348
aF1.5399976968765259
aF-0.01989299455751592
aa(lp106
F-1.5466631094561976
aF-2.1197965780841272
aF-1.4271252791034144
aF-0.9701665083514612
aF1.540009617805481
aF-0.019928757344381154
aa(lp107
F-1.546830956135885
aF-2.1247480551349085
aF-1.4177420775042933
aF-0.9701784292804163
aF1.540009617805481
aF-0.019904915486470998
aa(lp108
F-1.5468786398517054
aF-2.128739658986227
aF-1.4098332563983362
aF-0.9701665083514612
aF1.540009617805481
aF-0.019880596791402638
aa(lp109
F-1.5469263235675257
aF-2.1332595984088343
aF-1.402259651814596
aF-0.970154110585348
aF1.5400216579437256
aF-0.019916836415426076
aa(lp110
F-1.5469983259784144
aF-2.139266316090719
aF-1.3937752882586878
aF-0.9701302687274378
aF1.5399976968765259
aF-0.019880596791402638
aa(lp111
F-1.5469983259784144
aF-2.1441929976092737
aF-1.3866332213031214
aF-0.9701421896563929
aF1.5399976968765259
aF-0.019928757344381154
aa(lp112
F-1.5470102469073694
aF-2.1491926352130335
aF-1.3786876837359827
aF-0.9701421896563929
aF1.5400216579437256
aF-0.019880596791402638
aa(lp113
F-1.5470102469073694
aF-2.1532204786883753
aF-1.371856991444723
aF-0.9701421896563929
aF1.5399737358093262
aF-0.019928757344381154
aa(lp114
F-1.5469983259784144
aF-2.156421486531393
aF-1.3677461783038538
aF-0.9701421896563929
aF1.540009617805481
aF-0.019916836415426076
aa(lp115
F-1.5470460096942347
aF-2.160233799611227
aF-1.3637550512896937
aF-0.970154110585348
aF1.540009617805481
aF-0.019916836415426076
aa(lp116
F-1.546985928212301
aF-2.163471047078268
aF-1.3607237974749964
aF-0.9701064268695276
aF1.5399856567382812
aF-0.019916836415426076
aa(lp117
F-1.5470221678363245
aF-2.1666958967791956
aF-1.3578112761126917
aF-0.9701302687274378
aF1.5400216579437256
aF-0.019916836415426076
aa(lp118
F-1.5470698515521448
aF-2.1695969740497034
aF-1.355126682912008
aF-0.9701665083514612
aF1.5399856567382812
aF-0.019916836415426076
aa(lp119
F-1.5471175352679651
aF-2.1734336058246058
aF-1.3500331083880823
aF-0.9701064268695276
aF1.5399856567382812
aF-0.01989299455751592
aa(lp120
F-1.547093693410055
aF-2.1764543692218226
aF-1.345072094594137
aF-0.9701302687274378
aF1.5400216579437256
aF-0.019880596791402638
aa(lp121
F-1.547093693410055
aF-2.1780250708209437
aF-1.341776196156637
aF-0.970154110585348
aF1.5399856567382812
aF-0.019904915486470998
aa(lp122
F-1.5470698515521448
aF-2.1785882155047815
aF-1.338611904774801
aF-0.9701421896563929
aF1.540009617805481
aF-0.019880596791402638
aa(lp123
F-1.547093693410055
aF-2.1785524527179163
aF-1.3364909330951136
aF-0.9701302687274378
aF1.540009617805481
aF-0.019904915486470998
aa(lp124
F-1.547093693410055
aF-2.1785882155047815
aF-1.3341777960406702
aF-0.9701665083514612
aF1.540009617805481
aF-0.019880596791402638
aa(lp125
F-1.5470817724811
aF-2.1786001364337366
aF-1.3334582487689417
aF-0.9701302687274378
aF1.540009617805481
aF-0.019904915486470998
aa(lp126
F-1.54710561433901
aF-2.1786120573626917
aF-1.3334701696978968
aF-0.9701302687274378
aF1.5399737358093262
aF-0.019940678273336232
aa(lp127
F-1.5471294561969202
aF-2.1787079016314905
aF-1.3334701696978968
aF-0.9701421896563929
aF1.5400335788726807
aF-0.01989299455751592
aa(lp128
F-1.54710561433901
aF-2.1789243857013147
aF-1.3334105650531214
aF-0.9700701872455042
aF1.5400216579437256
aF-0.019916836415426076
aa(lp129
F-1.54710561433901
aF-2.1792839209186
aF-1.3330753485309046
aF-0.9701421896563929
aF1.5399856567382812
aF-0.019904915486470998
aa(lp130
F-1.5470817724811
aF-2.1804588476764124
aF-1.3326552549945276
aF-0.9700945059405726
aF1.5399856567382812
aF-0.01986867586244756
aa(lp131
F-1.5470698515521448
aF-2.1826165358172815
aF-1.3326314131366175
aF-0.970154110585348
aF1.5400216579437256
aF-0.01989299455751592
aa(lp132
F-1.5471175352679651
aF-2.185146156941549
aF-1.3321159521686
aF-0.9701421896563929
aF1.540009617805481
aF-0.01989299455751592
aa(lp133
F-1.54710561433901
aF-2.188395325337545
aF-1.3292635122882288
aF-0.9701421896563929
aF1.5399976968765259
aF-0.019880596791402638
aa(lp134
F-1.5471294561969202
aF-2.1917880217181605
aF-1.3234151045428675
aF-0.9701421896563929
aF1.5399856567382812
aF-0.019904915486470998
aa(lp135
F-1.5471537748919886
aF-2.1969550291644495
aF-1.3142584005938929
aF-0.9701183477984827
aF1.5399856567382812
aF-0.01989299455751592
aa(lp136
F-1.5471413771258753
aF-2.2050235907184046
aF-1.3014100233661097
aF-0.9701421896563929
aF1.5399856567382812
aF-0.019928757344381154
aa(lp137
F-1.5471895376788538
aF-2.2134397665606897
aF-1.2897241751300257
aF-0.9701302687274378
aF1.540009617805481
aF-0.019904915486470998
aa(lp138
F-1.5471537748919886
aF-2.2183311621295374
aF-1.2827122847186487
aF-0.9701064268695276
aF1.5399856567382812
aF-0.019904915486470998
aa(lp139
F-1.5471175352679651
aF-2.2190983931170862
aF-1.2810943762408655
aF-0.9701302687274378
aF1.5399856567382812
aF-0.019904915486470998
aa(lp140
F-1.5471175352679651
aF-2.21885854402651
aF-1.2810705343829554
aF-0.9701302687274378
aF1.540009617805481
aF-0.019928757344381154
aa(lp141
F-1.5471413771258753
aF-2.218846623097555
aF-1.2811062971698206
aF-0.9701302687274378
aF1.540009617805481
aF-0.019916836415426076
aa(lp142
F-1.5471413771258753
aF-2.2188108603106897
aF-1.2811301390277308
aF-0.9701302687274378
aF1.5399737358093262
aF-0.01989299455751592
aa(lp143
F-1.54710561433901
aF-2.2185705343829554
aF-1.2811544577227991
aF-0.9701064268695276
aF1.540009617805481
aF-0.01989299455751592
aa(lp144
F-1.5470698515521448
aF-2.2177675406085413
aF-1.2811544577227991
aF-0.970154110585348
aF1.5399737358093262
aF-0.019940678273336232
aa(lp145
F-1.5470460096942347
aF-2.215597454701559
aF-1.2812979857074183
aF-0.9701784292804163
aF1.540009617805481
aF-0.01989299455751592
aa(lp146
F-1.5470102469073694
aF-2.212001148854391
aF-1.2817896048175257
aF-0.9701183477984827
aF1.540009617805481
aF-0.01989299455751592
aa(lp147
F-1.546962086354391
aF-2.205766503010885
aF-1.2830842177020472
aF-0.9701421896563929
aF1.540009617805481
aF-0.019928757344381154
aa(lp148
F-1.546985928212301
aF-2.1991732756244105
aF-1.2852538267718714
aF-0.9701064268695276
aF1.5400216579437256
aF-0.01995259920229131
aa(lp149
F-1.5469501654254358
aF-2.1913564840899866
aF-1.2884658018695276
aF-0.9701302687274378
aF1.5399976968765259
aF-0.019916836415426076
aa(lp150
F-1.5469263235675257
aF-2.1853020826922815
aF-1.2911503950702112
aF-0.9701183477984827
aF1.540009617805481
aF-0.019928757344381154
aa(lp151
F-1.5468547979937952
aF-2.1801469961749476
aF-1.2934635321246546
aF-0.9701421896563929
aF1.5400216579437256
aF-0.01989299455751592
aa(lp152
F-1.5467947165118616
aF-2.174812142048971
aF-1.2980902830706995
aF-0.970154110585348
aF1.5400216579437256
aF-0.01989299455751592
aa(lp153
F-1.5465076605426233
aF-2.1691654364215296
aF-1.3088410536395472
aF-0.9700701872455042
aF1.5400216579437256
aF-0.01989299455751592
aa(lp154
F-1.546088997517721
aF-2.1647895018206995
aF-1.3230317274676722
aF-0.9700945059405726
aF1.5399976968765259
aF-0.01989299455751592
aa(lp155
F-1.5452750364886683
aF-2.1601017157184046
aF-1.3414881865130823
aF-0.9701183477984827
aF1.5399856567382812
aF-0.019940678273336232
aa(lp156
F-1.5445454756366175
aF-2.155857865010397
aF-1.3550189177142542
aF-0.9701183477984827
aF1.5400456190109253
aF-0.019916836415426076
aa(lp157
F-1.542511288319723
aF-2.150930706654684
aF-1.3659489790545862
aF-0.9700945059405726
aF1.540009617805481
aF-0.01986867586244756
aa(lp158
F-1.5393760840045374
aF-2.1459434668170374
aF-1.3754642645465296
aF-0.970154110585348
aF1.5400335788726807
aF-0.019928757344381154
aa(lp159
F-1.5355356375323694
aF-2.1411240736590784
aF-1.3830979506122034
aF-0.9701183477984827
aF1.540009617805481
aF-0.019928757344381154
aa(lp160
F-1.531191651021139
aF-2.1358969847308558
aF-1.3888137976275843
aF-0.9701183477984827
aF1.5399737358093262
aF-0.019928757344381154
aa(lp161
F-1.5255559126483362
aF-2.1308863798724573
aF-1.3906720320331019
aF-0.970154110585348
aF1.540009617805481
aF-0.019940678273336232
aa(lp162
F-1.5197885672198694
aF-2.1267383734332483
aF-1.3907073179828089
aF-0.9701064268695276
aF1.540009617805481
aF-0.019928757344381154
aa(lp163
F-1.5125611464129847
aF-2.1221945921527308
aF-1.3909109274493616
aF-0.9701183477984827
aF1.5399856567382812
aF-0.019916836415426076
aa(lp164
F-1.5035865942584437
aF-2.1174472014056605
aF-1.3915584723102015
aF-0.9701302687274378
aF1.5399976968765259
aF-0.019916836415426076
aa(lp165
F-1.4937503973590296
aF-2.113011185322897
aF-1.3931406180011194
aF-0.9700945059405726
aF1.5400216579437256
aF-0.019904915486470998
aa(lp166
F-1.484715763722555
aF-2.108659569417135
aF-1.396315876637594
aF-0.9700825850116175
aF1.540069580078125
aF-0.019916836415426076
aa(lp167
F-1.4761117140399378
aF-2.104499642048971
aF-1.4014571348773401
aF-0.9701064268695276
aF1.5400216579437256
aF-0.01989299455751592
aa(lp168
F-1.4682138601886194
aF-2.1015265623675745
aF-1.4077842871295374
aF-0.9701183477984827
aF1.5400456190109253
aF-0.01989299455751592
aa(lp169
F-1.4613092581378382
aF-2.099452797566549
aF-1.4143150488482874
aF-0.9701183477984827
aF1.540009617805481
aF-0.019904915486470998
aa(lp170
F-1.4561517874347132
aF-2.0987213293658655
aF-1.4170354048358362
aF-0.9701064268695276
aF1.540009617805481
aF-0.019916836415426076
aa(lp171
F-1.4495099226581019
aF-2.0986135641681116
aF-1.4171789328204554
aF-0.9701183477984827
aF1.5400216579437256
aF-0.019904915486470998
aa(lp172
F-1.4444835821734827
aF-2.098661247883932
aF-1.4172270933734339
aF-0.9700701872455042
aF1.5400216579437256
aF-0.019904915486470998
aa(lp173
F-1.438775364552633
aF-2.0986254850970667
aF-1.417250935231344
aF-0.9701064268695276
aF1.5400335788726807
aF-0.019904915486470998
aa(lp174
F-1.434610668812887
aF-2.0986254850970667
aF-1.417358700429098
aF-0.9701064268695276
aF1.540009617805481
aF-0.019916836415426076
aa(lp175
F-1.4300749937640589
aF-2.098649326954977
aF-1.4176223913775843
aF-0.9701183477984827
aF1.5399737358093262
aF-0.01989299455751592
aa(lp176
F-1.4251444975482386
aF-2.098661247883932
aF-1.4179819265948694
aF-0.9700945059405726
aF1.5400335788726807
aF-0.019880596791402638
aa(lp177
F-1.4201419989215296
aF-2.0986016432391565
aF-1.4186771551715296
aF-0.9701302687274378
aF1.5400335788726807
aF-0.019940678273336232
aa(lp178
F-1.416778866444723
aF-2.0986135641681116
aF-1.4189284483539026
aF-0.9701421896563929
aF1.5400216579437256
aF-0.019904915486470998
aa(lp179
F-1.4141700903521937
aF-2.098565403615133
aF-1.4188807646380823
aF-0.9700825850116175
aF1.5400335788726807
aF-0.019880596791402638
aa(lp180
F-1.4138472715960901
aF-2.098565403615133
aF-1.4188807646380823
aF-0.9701064268695276
aF1.5399856567382812
aF-0.019928757344381154
aa(lp181
F-1.4138715902911585
aF-2.098529640828268
aF-1.418845001851217
aF-0.9701064268695276
aF1.5399976968765259
aF-0.019928757344381154
aa(lp182
F-1.413835350667135
aF-2.098517719899313
aF-1.418833080922262
aF-0.970154110585348
aF1.5400216579437256
aF-0.019904915486470998
aa(lp183
F-1.4138715902911585
aF-2.0985057989703577
aF-1.418845001851217
aF-0.9701665083514612
aF1.540009617805481
aF-0.01995259920229131
aa(lp184
F-1.4139073530780237
aF-2.098313633595602
aF-1.4188688437091272
aF-0.970154110585348
aF1.5400335788726807
aF-0.019904915486470998
aa(lp185
F-1.4139073530780237
aF-2.0980261007892054
aF-1.4190123716937464
aF-0.9701302687274378
aF1.5399856567382812
aF-0.019904915486470998
aa(lp186
F-1.4138472715960901
aF-2.0975826422320765
aF-1.420199219380514
aF-0.9700701872455042
aF1.5400216579437256
aF-0.01989299455751592
aa(lp187
F-1.4136675039874476
aF-2.095748249684469
aF-1.4253037611590784
aF-0.9700582663165491
aF1.5400216579437256
aF-0.019916836415426076
aa(lp188
F-1.4129732290851038
aF-2.0922353903399866
aF-1.434890095387594
aF-0.970046345387594
aF1.5399737358093262
aF-0.019904915486470998
aa(lp189
F-1.4109867254840296
aF-2.085749928151266
aF-1.452432934437887
aF-0.970034424458639
aF1.5400456190109253
aF-0.019928757344381154
aa(lp190
F-1.4085095564471644
aF-2.077801529561178
aF-1.471269432698385
aF-0.9700582663165491
aF1.540009617805481
aF-0.019904915486470998
aa(lp191
F-1.4041526953326624
aF-2.066197220479147
aF-1.4923937956439417
aF-0.9701064268695276
aF1.5399737358093262
aF-0.019928757344381154
aa(lp192
F-1.3991864363299769
aF-2.0548084417926233
aF-1.5073469320880335
aF-0.9701302687274378
aF1.5399976968765259
aF-0.019928757344381154
aa(lp193
F-1.3939326445208948
aF-2.0424369017230433
aF-1.5158894697772425
aF-0.9701421896563929
aF1.5400335788726807
aF-0.019904915486470998
aa(lp194
F-1.3879721800433558
aF-2.033194367085592
aF-1.5164645353900355
aF-0.970034424458639
aF1.5400335788726807
aF-0.019880596791402638
aa(lp195
F-1.3807075659381312
aF-2.0244792143451136
aF-1.51640493074526
aF-0.9700825850116175
aF1.5399976968765259
aF-0.019904915486470998
aa(lp196
F-1.3734071890460413
aF-2.0187724272357386
aF-1.51640493074526
aF-0.9700701872455042
aF1.5400335788726807
aF-0.019904915486470998
aa(lp197
F-1.3646343390094202
aF-2.0153325239764612
aF-1.51640493074526
aF-0.9700701872455042
aF1.5399976968765259
aF-0.019928757344381154
aa(lp198
F-1.3562563101397913
aF-2.014313522969381
aF-1.51640493074526
aF-0.9701064268695276
aF1.5400216579437256
aF-0.019916836415426076
aa(lp199
F-1.3471720854388636
aF-2.014289204274313
aF-1.5163448492633265
aF-0.9700825850116175
aF1.5399976968765259
aF-0.019880596791402638
aa(lp200
F-1.340576473866598
aF-2.014289204274313
aF-1.516320530568258
aF-0.9700825850116175
aF1.540009617805481
aF-0.019916836415426076
aa(lp201
F-1.3335631529437464
aF-2.014301602040426
aF-1.5162490049945276
aF-0.9700945059405726
aF1.540069580078125
aF-0.019904915486470998
aa(lp202
F-1.3279135862933558
aF-2.014289204274313
aF-1.516177002583639
aF-0.9701064268695276
aF1.540009617805481
aF-0.019928757344381154
aa(lp203
F-1.3220728079425257
aF-2.014289204274313
aF-1.5160811583148401
aF-0.9701421896563929
aF1.5400216579437256
aF-0.019880596791402638
aa(lp204
F-1.3180268446551722
aF-2.014313522969381
aF-1.515350643788473
aF-0.9700945059405726
aF1.540009617805481
aF-0.019904915486470998
aa(lp205
F-1.313071076069967
aF-2.0143373648272913
aF-1.5147274176227015
aF-0.9701064268695276
aF1.5400456190109253
aF-0.019928757344381154
aa(lp206
F-1.3095043341266077
aF-2.014301602040426
aF-1.514643971120016
aF-0.9700945059405726
aF1.540009617805481
aF-0.01989299455751592
aa(lp207
F-1.3055546919452112
aF-2.014313522969381
aF-1.514667812977926
aF-0.9701064268695276
aF1.5400216579437256
aF-0.01989299455751592
aa(lp208
F-1.3005393187152308
aF-2.0143254438983362
aF-1.5147154966937464
aF-0.9700582663165491
aF1.5399976968765259
aF-0.01995259920229131
aa(lp209
F-1.2949255148517054
aF-2.014313522969381
aF-1.5146797339068812
aF-0.9700945059405726
aF1.540009617805481
aF-0.019880596791402638
aa(lp210
F-1.2892516295062464
aF-2.0142772833453577
aF-1.514667812977926
aF-0.9700582663165491
aF1.5399616956710815
aF-0.019904915486470998
aa(lp211
F-1.2832182089435022
aF-2.014313522969381
aF-1.5146797339068812
aF-0.9700945059405726
aF1.5400335788726807
aF-0.019916836415426076
aa(lp212
F-1.2779753843890589
aF-2.0143254438983362
aF-1.5147154966937464
aF-0.9701183477984827
aF1.5400216579437256
aF-0.019880596791402638
aa(lp213
F-1.2723138968097132
aF-2.0143373648272913
aF-1.5147751013385218
aF-0.9701064268695276
aF1.5399976968765259
aF-0.01989299455751592
aa(lp214
F-1.2676451841937464
aF-2.0143254438983362
aF-1.5147631804095667
aF-0.9701064268695276
aF1.5399856567382812
aF-0.019916836415426076
aa(lp215
F-1.261444393788473
aF-2.0143731276141565
aF-1.5147631804095667
aF-0.9700701872455042
aF1.5400216579437256
aF-0.019916836415426076
aa(lp216
F-1.2561052481280726
aF-2.014397446309225
aF-1.5147994200335901
aF-0.9700945059405726
aF1.5399976968765259
aF-0.019904915486470998
aa(lp217
F-1.249641243611471
aF-2.0143373648272913
aF-1.5147751013385218
aF-0.9700701872455042
aF1.540009617805481
aF-0.01986867586244756
aa(lp218
F-1.2446373144732874
aF-2.01438552538027
aF-1.5147994200335901
aF-0.9700582663165491
aF1.5400335788726807
aF-0.019928757344381154
aa(lp219
F-1.2386520544635218
aF-2.01440936723818
aF-1.5148232618915003
aF-0.9701183477984827
aF1.5399856567382812
aF-0.019928757344381154
aa(lp220
F-1.2341025511371058
aF-2.0144570509540003
aF-1.514907185231344
aF-0.9700701872455042
aF1.5400216579437256
aF-0.019928757344381154
aa(lp221
F-1.2294819990741175
aF-2.01443320909609
aF-1.5148828665362757
aF-0.970046345387594
aF1.5399976968765259
aF-0.019940678273336232
aa(lp222
F-1.2263091246234339
aF-2.014552895222799
aF-1.5149548689471644
aF-0.9700945059405726
aF1.5400216579437256
aF-0.019904915486470998
aa(lp223
F-1.2252915541278284
aF-2.0148046652423304
aF-1.5152304808246058
aF-0.9700825850116175
aF1.5400335788726807
aF-0.019928757344381154
aa(lp224
F-1.2253277937518519
aF-2.0151284376727503
aF-1.5156376997577112
aF-0.9700825850116175
aF1.540009617805481
aF-0.019916836415426076
aa(lp225
F-1.225363556538717
aF-2.0158355871783655
aF-1.5161650816546839
aF-0.970046345387594
aF1.5400216579437256
aF-0.019904915486470998
aa(lp226
F-1.2253158728228968
aF-2.0172141234027308
aF-1.516512695943014
aF-0.9700582663165491
aF1.5400216579437256
aF-0.019940678273336232
aa(lp227
F-1.2252915541278284
aF-2.0201152006732386
aF-1.5165484587298792
aF-0.9700945059405726
aF1.540009617805481
aF-0.019904915486470998
aa(lp228
F-1.2253158728228968
aF-2.0233638922320765
aF-1.5165484587298792
aF-0.9701183477984827
aF1.5400216579437256
aF-0.019940678273336232
aa(lp229
F-1.2252796331988733
aF-2.027128044758932
aF-1.516524616871969
aF-0.9700945059405726
aF1.5400456190109253
aF-0.01989299455751592
aa(lp230
F-1.2252443472491663
aF-2.030292812977926
aF-1.5164764563189905
aF-0.9700701872455042
aF1.540009617805481
aF-0.019916836415426076
aa(lp231
F-1.2252915541278284
aF-2.0346925894366663
aF-1.516512695943014
aF-0.9700825850116175
aF1.5400216579437256
aF-0.019916836415426076
aa(lp232
F-1.2252796331988733
aF-2.0390804449664515
aF-1.516524616871969
aF-0.9701421896563929
aF1.5399976968765259
aF-0.019916836415426076
aa(lp233
F-1.2252796331988733
aF-2.044630829487936
aF-1.516524616871969
aF-0.9700825850116175
aF1.5399976968765259
aF-0.019904915486470998
aa(lp234
F-1.225220028554098
aF-2.0498693625079554
aF-1.5165961424456995
aF-0.9701302687274378
aF1.5399976968765259
aF-0.019904915486470998
aa(lp235
F-1.2251604239093226
aF-2.0544970671283167
aF-1.5166204611407679
aF-0.9700582663165491
aF1.5400456190109253
aF-0.019916836415426076
aa(lp236
F-1.224729363118307
aF-2.057122532521383
aF-1.516656223927633
aF-0.9700825850116175
aF1.5400216579437256
aF-0.019916836415426076
aa(lp237
F-1.2238553206073206
aF-2.0588486830340784
aF-1.516871754323141
aF-0.9700825850116175
aF1.5400335788726807
aF-0.019928757344381154
aa(lp238
F-1.2225382963763636
aF-2.059376064931051
aF-1.5184534231769007
aF-0.970046345387594
aF1.5399856567382812
aF-0.019916836415426076
aa(lp239
F-1.2187793890582483
aF-2.0592802206622522
aF-1.5246480146991175
aF-0.9700225035296839
aF1.5399616956710815
aF-0.019916836415426076
aa(lp240
F-1.2125542799579065
aF-2.059243981038229
aF-1.5347722212420862
aF-0.9700225035296839
aF1.5400216579437256
aF-0.019916836415426076
aa(lp241
F-1.2049520651446741
aF-2.0591843763934534
aF-1.549891773854391
aF-0.970034424458639
aF1.5400216579437256
aF-0.019928757344381154
aa(lp242
F-1.199768368397848
aF-2.0592320601092737
aF-1.5628188292132776
aF-0.9700945059405726
aF1.5399976968765259
aF-0.019928757344381154
aa(lp243
F-1.1988824049579065
aF-2.0592320601092737
aF-1.5716007391559046
aF-0.9701183477984827
aF1.5400216579437256
aF-0.019916836415426076
aa(lp244
F-1.1998761335956019
aF-2.0591843763934534
aF-1.572115723286764
aF-0.9700825850116175
aF1.5400216579437256
aF-0.01989299455751592
aa(lp245
F-1.2004864851581019
aF-2.05914813676943
aF-1.5716126600848597
aF-0.9700825850116175
aF1.540009617805481
aF-0.019928757344381154
aa(lp246
F-1.2004626433001917
aF-2.059136215840475
aF-1.571540657673971
aF-0.9700582663165491
aF1.5400335788726807
aF-0.019904915486470998
aa(lp247
F-1.2004388014422815
aF-2.0591962973224085
aF-1.5715649763690394
aF-0.9700582663165491
aF1.5400575399398804
aF-0.019904915486470998
aa(lp248
F-1.2004507223712366
aF-2.0592320601092737
aF-1.571540657673971
aF-0.9701064268695276
aF1.5400216579437256
aF-0.019904915486470998
aa(lp249
F-1.2004626433001917
aF-2.0592320601092737
aF-1.571552578602926
aF-0.970046345387594
aF1.5400335788726807
aF-0.01989299455751592
aa(lp250
F-1.200402561818258
aF-2.0594118277179163
aF-1.5715764204608362
aF-0.9700945059405726
aF1.5400216579437256
aF-0.01989299455751592
aa(lp251
F-1.200402561818258
aF-2.0598910490619105
aF-1.5715764204608362
aF-0.9700701872455042
aF1.5399856567382812
aF-0.019940678273336232
aa(lp252
F-1.2004388014422815
aF-2.0606945196734827
aF-1.571540657673971
aF-0.9701064268695276
aF1.5400335788726807
aF-0.019916836415426076
aa(lp253
F-1.200402561818258
aF-2.0621331373797815
aF-1.5715649763690394
aF-0.9701183477984827
aF1.5400335788726807
aF-0.019904915486470998
aa(lp254
F-1.200390640889303
aF-2.06387168565859
aF-1.571540657673971
aF-0.9700825850116175
aF1.540009617805481
aF-0.019904915486470998
aa(lp255
F-1.200378719960348
aF-2.0663889090167444
aF-1.5714924971209925
aF-0.9701064268695276
aF1.5399976968765259
aF-0.019916836415426076
aa(lp256
F-1.200390640889303
aF-2.0699856917010706
aF-1.571216885243551
aF-0.9700701872455042
aF1.540009617805481
aF-0.019904915486470998
aa(lp257
F-1.2004626433001917
aF-2.0758121649371546
aF-1.5700791517840784
aF-0.9701064268695276
aF1.540009617805481
aF-0.019916836415426076
aa(lp258
F-1.2004745642291468
aF-2.0809910933123987
aF-1.5671799818622034
aF-0.9701183477984827
aF1.5400335788726807
aF-0.019928757344381154
aa(lp259
F-1.2004864851581019
aF-2.086613480244772
aF-1.5596440474139612
aF-0.9701421896563929
aF1.5400216579437256
aF-0.019904915486470998
aa(lp260
F-1.2004745642291468
aF-2.0910847822772425
aF-1.549436394368307
aF-0.9701183477984827
aF1.5400216579437256
aF-0.019904915486470998
aa(lp261
F-1.2005346457110804
aF-2.0960477034198206
aF-1.5362456480609339
aF-0.9700945059405726
aF1.5399976968765259
aF-0.019928757344381154
aa(lp262
F-1.2006662527667444
aF-2.1002195517169397
aF-1.5280388037311
aF-0.9699867407428187
aF1.5399856567382812
aF-0.019928757344381154
aa(lp263
F-1.200714413319723
aF-2.1052191893206995
aF-1.5266249815570276
aF-0.9700105826007288
aF1.540009617805481
aF-0.01989299455751592
aa(lp264
F-1.2010729948626917
aF-2.1116202513324183
aF-1.5267089048968714
aF-0.970046345387594
aF1.5399976968765259
aF-0.019904915486470998
aa(lp265
F-1.2016361395465296
aF-2.1199405829059046
aF-1.526552979146139
aF-0.9700582663165491
aF1.5400216579437256
aF-0.019940678273336232
aa(lp266
F-1.2018511931048792
aF-2.127157513295309
aF-1.5264447371112269
aF-0.9700945059405726
aF1.540009617805481
aF-0.019928757344381154
aa(lp267
F-1.2018392721759241
aF-2.133775059376852
aF-1.525630299245016
aF-0.9700825850116175
aF1.5400216579437256
aF-0.01989299455751592
aa(lp268
F-1.2018874327289026
aF-2.1368802229510706
aF-1.5245640913592737
aF-0.9700825850116175
aF1.5399976968765259
aF-0.019904915486470998
aa(lp269
F-1.2020066420184534
aF-2.1371915976153772
aF-1.522743050252096
aF-0.9700701872455042
aF1.5400335788726807
aF-0.019904915486470998
aa(lp270
F-1.2022107283221644
aF-2.137179676686422
aF-1.5185492674456995
aF-0.9700825850116175
aF1.5400335788726807
aF-0.01989299455751592
aa(lp271
F-1.2022350470172327
aF-2.137179676686422
aF-1.512008015309469
aF-0.9701421896563929
aF1.5400456190109253
aF-0.019940678273336232
aa(lp272
F-1.2022226492511194
aF-2.1372159163104456
aF-1.505561653767721
aF-0.9700582663165491
aF1.5399976968765259
aF-0.019928757344381154
aa(lp273
F-1.2022226492511194
aF-2.137167755757467
aF-1.4986241499530237
aF-0.9700701872455042
aF1.5399976968765259
aF-0.019880596791402638
aa(lp274
F-1.2022226492511194
aF-2.137179676686422
aF-1.494058911000387
aF-0.9700582663165491
aF1.5400216579437256
aF-0.01995259920229131
aa(lp275
F-1.2022226492511194
aF-2.1372397581683558
aF-1.4932082335101526
aF-0.9700701872455042
aF1.5400216579437256
aF-0.019916836415426076
aa(lp276
F-1.2022107283221644
aF-2.1372397581683558
aF-1.493220631276266
aF-0.9700825850116175
aF1.540009617805481
aF-0.019916836415426076
aa(lp277
F-1.2021988073932093
aF-2.137251679097311
aF-1.4931963125811976
aF-0.9700945059405726
aF1.5399856567382812
aF-0.019904915486470998
aa(lp278
F-1.202186409627096
aF-2.1371915976153772
aF-1.4932082335101526
aF-0.9699986616717737
aF1.5399976968765259
aF-0.019916836415426076
aa(lp279
F-1.2021988073932093
aF-2.1372278372394007
aF-1.4932082335101526
aF-0.970034424458639
aF1.540009617805481
aF-0.019916836415426076
aa(lp280
F-1.202186409627096
aF-2.1372278372394007
aF-1.4932082335101526
aF-0.970034424458639
aF1.5400216579437256
aF-0.019940678273336232
aa(lp281
F-1.2021625677691858
aF-2.1372278372394007
aF-1.4931605497943323
aF-0.970046345387594
aF1.540069580078125
aF-0.019904915486470998
aa(lp282
F-1.2021506468402308
aF-2.1372159163104456
aF-1.4929207007037562
aF-0.9700225035296839
aF1.5400335788726807
aF-0.019916836415426076
aa(lp283
F-1.2021387259112757
aF-2.137143913899557
aF-1.492908779774801
aF-0.9699986616717737
aF1.5400335788726807
aF-0.019880596791402638
aa(lp284
F-1.202174488698141
aF-2.137155834828512
aF-1.492908779774801
aF-0.970046345387594
aF1.5400335788726807
aF-0.019880596791402638
aa(lp285
F-1.2021506468402308
aF-2.137167755757467
aF-1.4928730169879358
aF-0.9700225035296839
aF1.5400216579437256
aF-0.019904915486470998
aa(lp286
F-1.202186409627096
aF-2.1372035185443323
aF-1.492896858845846
aF-0.970046345387594
aF1.5400216579437256
aF-0.019928757344381154
aa(lp287
F-1.202174488698141
aF-2.1371076742755335
aF-1.4928486982928675
aF-0.970046345387594
aF1.5400216579437256
aF-0.019916836415426076
aa(lp288
F-1.2021625677691858
aF-2.136832062398092
aF-1.492309872304098
aF-0.9700945059405726
aF1.5400456190109253
aF-0.01995259920229131
aa(lp289
F-1.202174488698141
aF-2.1361611525165003
aF-1.4902847448932093
aF-0.9701064268695276
aF1.540009617805481
aF-0.01989299455751592
aa(lp290
F-1.2021625677691858
aF-2.1344221274005335
aF-1.4853366057025355
aF-0.9700701872455042
aF1.5400335788726807
aF-0.019928757344381154
aa(lp291
F-1.202174488698141
aF-2.131989304219381
aF-1.4794052282916468
aF-0.9701064268695276
aF1.5400216579437256
aF-0.019928757344381154
aa(lp292
F-1.202186409627096
aF-2.128739658986227
aF-1.4708860556231897
aF-0.9700825850116175
aF1.5400456190109253
aF-0.019916836415426076
aa(lp293
F-1.2021268049823206
aF-2.12469989458193
aF-1.4628456274615687
aF-0.9700582663165491
aF1.540069580078125
aF-0.019928757344381154
aa(lp294
F-1.2021024862872522
aF-2.1183460394488733
aF-1.454134766255514
aF-0.9700825850116175
aF1.540069580078125
aF-0.019904915486470998
aa(lp295
F-1.2019832769977015
aF-2.1111767927752894
aF-1.44749623933901
aF-0.9700105826007288
aF1.5400456190109253
aF-0.019904915486470998
aa(lp296
F-1.2017553488360804
aF-2.1013343969928187
aF-1.4437692801104944
aF-0.970046345387594
aF1.5400456190109253
aF-0.019916836415426076
aa(lp297
F-1.2017553488360804
aF-2.09259540239443
aF-1.4439132849322718
aF-0.9700225035296839
aF1.5400575399398804
aF-0.01989299455751592
aa(lp298
F-1.2017315069781702
aF-2.083268467579977
aF-1.4441407362567347
aF-0.970034424458639
aF1.5400575399398804
aF-0.019916836415426076
aa(lp299
F-1.2017315069781702
aF-2.07621938387026
aF-1.444165054951803
aF-0.970034424458639
aF1.54008150100708
aF-0.019928757344381154
aa(lp300
F-1.2017553488360804
aF-2.069361988698141
aF-1.4442127386676233
aF-0.9700225035296839
aF1.5400335788726807
aF-0.01989299455751592
aa(lp301
F-1.2017553488360804
aF-2.065202061329977
aF-1.444404427205221
aF-0.9700105826007288
aF1.540069580078125
aF-0.019928757344381154
aa(lp302
F-1.2017195860492151
aF-2.062061134968893
aF-1.4455426375018519
aF-0.9699867407428187
aF1.5400575399398804
aF-0.019904915486470998
aa(lp303
F-1.2017553488360804
aF-2.0602873007403772
aF-1.4474480787860315
aF-0.9699867407428187
aF1.5400935411453247
aF-0.019928757344381154
aa(lp304
F-1.20168382326235
aF-2.0587289969073694
aF-1.4496529738055628
aF-0.9700105826007288
aF1.5400456190109253
aF-0.019928757344381154
aa(lp305
F-1.2011569182025355
aF-2.0571582953082483
aF-1.4520495573626917
aF-0.9699986616717737
aF1.5400575399398804
aF-0.019928757344381154
aa(lp306
F-1.1996367613421839
aF-2.0546167532550257
aF-1.4570463339435022
aF-0.9700225035296839
aF1.540069580078125
aF-0.019916836415426076
aa(lp307
F-1.1976969877826136
aF-2.0512121359454554
aF-1.4654577414142054
aF-0.970034424458639
aF1.5400575399398804
aF-0.019880596791402638
aa(lp308
F-1.194859806691305
aF-2.0453737417804163
aF-1.4784224669085901
aF-0.970034424458639
aF1.54008150100708
aF-0.019904915486470998
aa(lp309
F-1.1914599577533167
aF-2.039272133504049
aF-1.489326302205221
aF-0.970046345387594
aF1.5400575399398804
aF-0.019916836415426076
aa(lp310
F-1.18768817583193
aF-2.030496422444479
aF-1.5020149389850062
aF-0.970046345387594
aF1.540069580078125
aF-0.019916836415426076
aa(lp311
F-1.185892407094137
aF-2.0219133535968226
aF-1.5118277708636683
aF-0.9701421896563929
aF1.54008150100708
aF-0.019916836415426076
aa(lp312
F-1.185162369404928
aF-2.011603657399313
aF-1.5214131514178675
aF-0.970034424458639
aF1.5400456190109253
aF-0.01989299455751592
aa(lp313
F-1.1840727964984339
aF-2.002481285725729
aF-1.5313695112811487
aF-0.9699986616717737
aF1.5400935411453247
aF-0.01989299455751592
aa(lp314
F-1.1810558477984827
aF-1.9928067366229456
aF-1.5445964972125452
aF-0.9700225035296839
aF1.5400335788726807
aF-0.019916836415426076
aa(lp315
F-1.17678147951235
aF-1.984847370778219
aF-1.5566728750811976
aF-0.9700582663165491
aF1.5400456190109253
aF-0.019904915486470998
aa(lp316
F-1.1725433508502405
aF-1.9755929152118128
aF-1.5708578268634241
aF-0.970034424458639
aF1.5400575399398804
aF-0.019904915486470998
aa(lp317
F-1.1690591017352503
aF-1.9680526892291468
aF-1.5813286940204065
aF-0.9701064268695276
aF1.5400216579437256
aF-0.019904915486470998
aa(lp318
F-1.1641386190997522
aF-1.9599006811725062
aF-1.5925658384906214
aF-0.9700105826007288
aF1.54008150100708
aF-0.019904915486470998
aa(lp319
F-1.1607864538775843
aF-1.9531877676593226
aF-1.6016343275653284
aF-0.9701064268695276
aF1.54008150100708
aF-0.019904915486470998
aa(lp320
F-1.1576255003558558
aF-1.946019474660055
aF-1.6098888556109827
aF-0.9700825850116175
aF1.5400335788726807
aF-0.019904915486470998
aa(lp321
F-1.153698746358053
aF-1.940625015889303
aF-1.6161897818194788
aF-0.970046345387594
aF1.5400335788726807
aF-0.019916836415426076
aa(lp322
F-1.148609463368551
aF-1.934979263936178
aF-1.6244919935809534
aF-0.970046345387594
aF1.5400456190109253
aF-0.019904915486470998
aa(lp323
F-1.1443713347064417
aF-1.9309633413897913
aF-1.6325414816485804
aF-0.970046345387594
aF1.5400456190109253
aF-0.019904915486470998
aa(lp324
F-1.1382649580584925
aF-1.9268997351275843
aF-1.6419933477984827
aF-0.970034424458639
aF1.5400575399398804
aF-0.019904915486470998
aa(lp325
F-1.133679215108053
aF-1.9225004355060022
aF-1.6519835630999964
aF-0.970046345387594
aF1.5400575399398804
aF-0.019928757344381154
aa(lp326
F-1.1285069624530237
aF-1.916854206715719
aF-1.6654837767230433
aF-0.9700225035296839
aF1.5400575399398804
aF-0.019928757344381154
aa(lp327
F-1.1244118849383753
aF-1.9119871298419397
aF-1.6770909468280237
aF-0.970046345387594
aF1.54008150100708
aF-0.019904915486470998
aa(lp328
F-1.1214426199542444
aF-1.9060657660113733
aF-1.691380802785055
aF-0.970046345387594
aF1.540069580078125
aF-0.01989299455751592
aa(lp329
F-1.1185687224017542
aF-1.9011390844928187
aF-1.7024605909930628
aF-0.970046345387594
aF1.5400335788726807
aF-0.019916836415426076
aa(lp330
F-1.114281956349508
aF-1.8944862524615687
aF-1.7133005301104944
aF-0.9700105826007288
aF1.5400456190109253
aF-0.019928757344381154
aa(lp331
F-1.111300293599264
aF-1.887557331715719
aF-1.722140137349264
aF-0.9700582663165491
aF1.54008150100708
aF-0.019916836415426076
aa(lp332
F-1.1084745565997522
aF-1.878986660634176
aF-1.7308958212481897
aF-0.9700701872455042
aF1.540069580078125
aF-0.019928757344381154
aa(lp333
F-1.1049545446978968
aF-1.8717706839190882
aF-1.7380102316485804
aF-0.9699867407428187
aF1.5400456190109253
aF-0.019928757344381154
aa(lp334
F-1.100356403981344
aF-1.8641226927386683
aF-1.7476161162005823
aF-0.9700582663165491
aF1.5400456190109253
aF-0.019916836415426076
aa(lp335
F-1.097745720540182
aF-1.8573501745807093
aF-1.7572811285602015
aF-0.970046345387594
aF1.5400575399398804
aF-0.019904915486470998
aa(lp336
F-1.0954588095294397
aF-1.8495586554156702
aF-1.7661917845355433
aF-0.9700582663165491
aF1.540069580078125
aF-0.019928757344381154
aa(lp337
F-1.0925849119769495
aF-1.842114273701803
aF-1.7707675139056605
aF-0.9701302687274378
aF1.540069580078125
aF-0.019916836415426076
aa(lp338
F-1.0894234816180628
aF-1.8329804579364222
aF-1.771545712147848
aF-0.970046345387594
aF1.5400335788726807
aF-0.019904915486470998
aa(lp339
F-1.0879510084735315
aF-1.824158016835348
aF-1.771761719380514
aF-0.9700105826007288
aF1.540069580078125
aF-0.019880596791402638
aa(lp340
F-1.0875681082354944
aF-1.8146289030658167
aF-1.773186508809225
aF-0.9700105826007288
aF1.54008150100708
aF-0.019928757344381154
aa(lp341
F-1.0875681082354944
aF-1.8081916014300745
aF-1.779665772114889
aF-0.9699624220477503
aF1.54008150100708
aF-0.019904915486470998
aa(lp342
F-1.0875800291644495
aF-1.8033135573016565
aF-1.7909238974200647
aF-0.970046345387594
aF1.5400575399398804
aF-0.019904915486470998
aa(lp343
F-1.0875681082354944
aF-1.7992857138263147
aF-1.800744358693258
aF-0.9700825850116175
aF1.5400935411453247
aF-0.019916836415426076
aa(lp344
F-1.0875800291644495
aF-1.7943232695208948
aF-1.8124926725970667
aF-0.9700701872455042
aF1.540069580078125
aF-0.019928757344381154
aa(lp345
F-1.0875681082354944
aF-1.790032211934225
aF-1.8213914076434534
aF-0.9701302687274378
aF1.5400456190109253
aF-0.019916836415426076
aa(lp346
F-1.087531868611471
aF-1.7846139113055628
aF-1.8283727804767054
aF-0.9700582663165491
aF1.5400335788726807
aF-0.019940678273336232
aa(lp347
F-1.0874841848956507
aF-1.7805383841144007
aF-1.832336727772848
aF-0.970034424458639
aF1.540069580078125
aF-0.019880596791402638
aa(lp348
F-1.087400261555807
aF-1.7763789335833948
aF-1.8372824827777308
aF-0.9700825850116175
aF1.5400575399398804
aF-0.019928757344381154
aa(lp349
F-1.0870049635516565
aF-1.7724717299090784
aF-1.8424323240863245
aF-0.9700825850116175
aF1.5400575399398804
aF-0.019940678273336232
aa(lp350
F-1.0857232252704065
aF-1.7686837355243128
aF-1.8496535460101526
aF-0.9700701872455042
aF1.5400335788726807
aF-0.019940678273336232
aa(lp351
F-1.082897965108053
aF-1.7664302031146448
aF-1.855497185383932
aF-0.970046345387594
aF1.5400335788726807
aF-0.019928757344381154
aa(lp352
F-1.0767305533038538
aF-1.763733212147848
aF-1.861652676259176
aF-0.970034424458639
aF1.5400456190109253
aF-0.019904915486470998
aa(lp353
F-1.0713179747210901
aF-1.7611921469317835
aF-1.866622273121969
aF-0.9700225035296839
aF1.54008150100708
aF-0.019880596791402638
aa(lp354
F-1.0648396650897425
aF-1.7586634794818323
aF-1.8725979963885706
aF-0.970046345387594
aF1.5400575399398804
aF-0.019916836415426076
aa(lp355
F-1.0602777639972132
aF-1.7575362364398401
aF-1.8762019316302698
aF-0.970034424458639
aF1.5400575399398804
aF-0.019904915486470998
aa(lp356
F-1.0555232206927698
aF-1.7574647108661097
aF-1.8780706564532679
aF-0.9700582663165491
aF1.5400575399398804
aF-0.019916836415426076
aa(lp357
F-1.0505417029010218
aF-1.7574523130999964
aF-1.8790882269488733
aF-0.970046345387594
aF1.54008150100708
aF-0.019904915486470998
aa(lp358
F-1.0459430853473108
aF-1.7574523130999964
aF-1.879998032246725
aF-0.9700582663165491
aF1.5400216579437256
aF-0.019904915486470998
aa(lp359
F-1.0405901114093226
aF-1.7574766317950647
aF-1.8811119238482874
aF-0.9700582663165491
aF1.5400575399398804
aF-0.019904915486470998
aa(lp360
F-1.0344465414630335
aF-1.757500473652975
aF-1.8830879370318812
aF-0.9700701872455042
aF1.5400456190109253
aF-0.019940678273336232
aa(lp361
F-1.0291412512408655
aF-1.7574885527240198
aF-1.8851712385760706
aF-0.970046345387594
aF1.5400456190109253
aF-0.019928757344381154
aa(lp362
F-1.0229976812945765
aF-1.7575362364398401
aF-1.8873150984393519
aF-0.9700225035296839
aF1.540069580078125
aF-0.019916836415426076
aa(lp363
F-1.0177882353412073
aF-1.7575724760638636
aF-1.8887999693499964
aF-0.970046345387594
aF1.5400335788726807
aF-0.019928757344381154
aa(lp364
F-0.9991410414325159
aF-1.7575843969928187
aF-1.931739632283346
aF-0.9701064268695276
aF1.54008150100708
aF-0.019904915486470998
aa(lp365
F-0.9991772810565394
aF-1.7575963179217737
aF-1.9321592489825647
aF-0.9700582663165491
aF1.540069580078125
aF-0.019916836415426076
aa(lp366
F-0.9992249647723597
aF-1.7575843969928187
aF-1.9321234861956995
aF-0.9700582663165491
aF1.5400335788726807
aF-0.019904915486470998
aa(lp367
F-0.9991892019854944
aF-1.7575843969928187
aF-1.9321234861956995
aF-0.9700701872455042
aF1.5401054620742798
aF-0.019928757344381154
aa(lp368
F-0.9992368857013147
aF-1.7575843969928187
aF-1.9321234861956995
aF-0.9700945059405726
aF1.5400216579437256
aF-0.019904915486470998
aa(lp369
F-0.9992130438434046
aF-1.7575605551349085
aF-1.9320991675006312
aF-0.9700701872455042
aF1.540069580078125
aF-0.019880596791402638
aa(lp370
F-0.9991772810565394
aF-1.7576201597796839
aF-1.9321110884295862
aF-0.9700825850116175
aF1.54008150100708
aF-0.019904915486470998
aa(lp371
F-0.9992130438434046
aF-1.7575843969928187
aF-1.9320991675006312
aF-0.9700825850116175
aF1.5400935411453247
aF-0.019928757344381154
aa(lp372
F-0.9992488066302698
aF-1.7575481573687952
aF-1.932087246571676
aF-0.970046345387594
aF1.5400456190109253
aF-0.01989299455751592
aa(lp373
F-0.9992368857013147
aF-1.7575362364398401
aF-1.9316561857806605
aF-0.9700825850116175
aF1.54008150100708
aF-0.019916836415426076
aa(lp374
F-0.9993088881122034
aF-1.757524315510885
aF-1.9306500593768519
aF-0.9700825850116175
aF1.540069580078125
aF-0.01989299455751592
aa(lp375
F-0.9993088881122034
aF-1.757500473652975
aF-1.9292853514300745
aF-0.9700701872455042
aF1.54008150100708
aF-0.019940678273336232
aa(lp376
F-0.999368969594137
aF-1.7574885527240198
aF-1.9278844038592737
aF-0.970046345387594
aF1.54008150100708
aF-0.019904915486470998
aa(lp377
F-0.9994285742389124
aF-1.7574647108661097
aF-1.9251177946673792
aF-0.9701064268695276
aF1.540069580078125
aF-0.019916836415426076
aa(lp378
F-0.9995124975787562
aF-1.757392708455221
aF-1.921382252370016
aF-0.9700582663165491
aF1.540069580078125
aF-0.019904915486470998
aa(lp379
F-0.9994762579547327
aF-1.7574647108661097
aF-1.916760269795553
aF-0.9700582663165491
aF1.54008150100708
aF-0.019940678273336232
aa(lp380
F-0.9995124975787562
aF-1.7574284712420862
aF-1.9143293539630335
aF-0.9700825850116175
aF1.5400335788726807
aF-0.019940678273336232
aa(lp381
F-0.9994762579547327
aF-1.75751239458193
aF-1.9137309233294886
aF-0.9700701872455042
aF1.54008150100708
aF-0.019904915486470998
aa(lp382
F-0.9995000998126429
aF-1.7575843969928187
aF-1.9137910048114222
aF-0.9700945059405726
aF1.5400575399398804
aF-0.019880596791402638
aa(lp383
F-0.9994762579547327
aF-1.7576444784747522
aF-1.9138148466693323
aF-0.9701064268695276
aF1.5400335788726807
aF-0.019916836415426076
aa(lp384
F-0.9994524160968226
aF-1.7577641646014612
aF-1.9138739744769495
aF-0.9700582663165491
aF1.540069580078125
aF-0.01989299455751592
aa.