(lp0
(lp1
F-1.562373463307516
aF-1.6256540457354944
aF-2.118045155202047
aF-0.9704659620868128
aF1.539818286895752
aF-0.02006084123720342
aa(lp2
F-1.562373463307516
aF-1.6256778875934046
aF-2.118021313344137
aF-0.9704540411578577
aF1.5397703647613525
aF-0.02003652254213506
aa(lp3
F-1.562373463307516
aF-1.6256540457354944
aF-2.118032757435934
aF-0.9704659620868128
aF1.5397943258285522
aF-0.020072762166158498
aa(lp4
F-1.5623615423785608
aF-1.6256421248065394
aF-2.118021313344137
aF-0.9704540411578577
aF1.5398062467575073
aF-0.02006084123720342
aa(lp5
F-1.5623615423785608
aF-1.6256540457354944
aF-2.117985550557272
aF-0.9704659620868128
aF1.5397822856903076
aF-0.020084683095113576
aa(lp6
F-1.5624097029315394
aF-1.6256421248065394
aF-2.118045155202047
aF-0.9704778830157679
aF1.539818286895752
aF-0.020072762166158498
aa(lp7
F-1.562385384236471
aF-1.6256302038775843
aF-2.118032757435934
aF-0.9704659620868128
aF1.5398062467575073
aF-0.020072762166158498
aa(lp8
F-1.562373463307516
aF-1.6256540457354944
aF-2.117997471486227
aF-0.970489803944723
aF1.5397943258285522
aF-0.020108524953023732
aa(lp9
F-1.5623377005206507
aF-1.6256421248065394
aF-2.118032757435934
aF-0.9704778830157679
aF1.5397822856903076
aF-0.020072762166158498
aa(lp10
F-1.562373463307516
aF-1.6256421248065394
aF-2.118021313344137
aF-0.9704778830157679
aF1.5398062467575073
aF-0.02004892030824834
aa(lp11
F-1.5623615423785608
aF-1.6256778875934046
aF-2.118009392415182
aF-0.9704659620868128
aF1.5397943258285522
aF-0.020084683095113576
aa(lp12
F-1.5623496214496058
aF-1.6256902853595179
aF-2.118021313344137
aF-0.9704659620868128
aF1.5397464036941528
aF-0.020084683095113576
aa(lp13
F-1.562373463307516
aF-1.6256302038775843
aF-2.118021313344137
aF-0.9704659620868128
aF1.5398062467575073
aF-0.020096604024068654
aa(lp14
F-1.562397305165426
aF-1.6256540457354944
aF-2.118009392415182
aF-0.9704778830157679
aF1.5397943258285522
aF-0.020096604024068654
aa(lp15
F-1.5624216238604944
aF-1.6256659666644495
aF-2.118009392415182
aF-0.9704778830157679
aF1.5397943258285522
aF-0.020096604024068654
aa(lp16
F-1.562385384236471
aF-1.6259053389178675
aF-2.117985550557272
aF-0.9704778830157679
aF1.539830207824707
aF-0.02004892030824834
aa(lp17
F-1.562373463307516
aF-1.6270201841937464
aF-2.117901627217428
aF-0.9704659620868128
aF1.5397703647613525
aF-0.02004892030824834
aa(lp18
F-1.5624097029315394
aF-1.6301963965045374
aF-2.117530171071188
aF-0.970489803944723
aF1.5397943258285522
aF-0.020108524953023732
aa(lp19
F-1.5623377005206507
aF-1.6356380621539515
aF-2.116919819508688
aF-0.9704297224627894
aF1.5397822856903076
aF-0.020084683095113576
aa(lp20
F-1.5623496214496058
aF-1.6447714010821741
aF-2.116213623677389
aF-0.9704659620868128
aF1.5397943258285522
aF-0.02012044588197881
aa(lp21
F-1.5623615423785608
aF-1.6579435507403772
aF-2.1133044401751917
aF-0.9704659620868128
aF1.5397943258285522
aF-0.020072762166158498
aa(lp22
F-1.562385384236471
aF-1.6764853636371058
aF-2.1039665381061
aF-0.9704659620868128
aF1.539818286895752
aF-0.020096604024068654
aa(lp23
F-1.562373463307516
aF-1.699846092854635
aF-2.0851596037494105
aF-0.970489803944723
aF1.5397822856903076
aF-0.020084683095113576
aa(lp24
F-1.5624216238604944
aF-1.7269709745990198
aF-2.0561278502093714
aF-0.9704659620868128
aF1.5398062467575073
aF-0.020084683095113576
aa(lp25
F-1.5624097029315394
aF-1.7567694822894495
aF-2.0196717421161097
aF-0.9704540411578577
aF1.5397943258285522
aF-0.020096604024068654
aa(lp26
F-1.562373463307516
aF-1.7844703833209437
aF-1.984710995350973
aF-0.9703939596759241
aF1.539818286895752
aF-0.020096604024068654
aa(lp27
F-1.562385384236471
aF-1.8170622030841272
aF-1.9439170996295374
aF-0.970382038746969
aF1.5397943258285522
aF-0.02006084123720342
aa(lp28
F-1.562397305165426
aF-1.8455670515643519
aF-1.9079468886004847
aF-0.9704297224627894
aF1.539818286895752
aF-0.020072762166158498
aa(lp29
F-1.5623496214496058
aF-1.8773201147662562
aF-1.8661673704730433
aF-0.9704659620868128
aF1.5398062467575073
aF-0.020096604024068654
aa(lp30
F-1.5623496214496058
aF-1.9039562384234827
aF-1.8292353788958948
aF-0.9704421202289026
aF1.539830207824707
aF-0.020072762166158498
aa(lp31
F-1.562397305165426
aF-1.9324620405780237
aF-1.7855942885028284
aF-0.9704778830157679
aF1.5397822856903076
aF-0.020072762166158498
aa(lp32
F-1.562397305165426
aF-1.9590256849872034
aF-1.7402742544757288
aF-0.9704421202289026
aF1.5397943258285522
aF-0.020072762166158498
aa(lp33
F-1.5624335447894495
aF-1.9833605925189417
aF-1.6940282026873987
aF-0.9704778830157679
aF1.5398062467575073
aF-0.02003652254213506
aa(lp34
F-1.5624097029315394
aF-2.003488365803854
aF-1.653780762349264
aF-0.9704297224627894
aF1.5398062467575073
aF-0.02006084123720342
aa(lp35
F-1.5623133818255823
aF-2.02645713487734
aF-1.6085227171527308
aF-0.9704421202289026
aF1.539818286895752
aF-0.020072762166158498
aa(lp36
F-1.562385384236471
aF-2.04946214357485
aF-1.5651310125934046
aF-0.9704421202289026
aF1.539758324623108
aF-0.020072762166158498
aa(lp37
F-1.5623133818255823
aF-2.0725391546832483
aF-1.5232942740069788
aF-0.9704421202289026
aF1.5398062467575073
aF-0.020072762166158498
aa(lp38
F-1.5623014608966272
aF-2.0924394766436976
aF-1.4886673132525843
aF-0.9704178015338343
aF1.5397703647613525
aF-0.020072762166158498
aa(lp39
F-1.5623377005206507
aF-2.114725414906637
aF-1.452325169240133
aF-0.9704659620868128
aF1.5397822856903076
aF-0.020084683095113576
aa(lp40
F-1.5623257795916956
aF-2.1355374495135706
aF-1.4193123022662562
aF-0.9704178015338343
aF1.5397943258285522
aF-0.020072762166158498
aa(lp41
F-1.5623377005206507
aF-2.1540115515338343
aF-1.389569107686178
aF-0.9704421202289026
aF1.5397943258285522
aF-0.020084683095113576
aa(lp42
F-1.5623496214496058
aF-2.1701963583575647
aF-1.3638032118426722
aF-0.9704540411578577
aF1.539758324623108
aF-0.020072762166158498
aa(lp43
F-1.5623377005206507
aF-2.1842950026141565
aF-1.3407576719867151
aF-0.9704659620868128
aF1.539758324623108
aF-0.020096604024068654
aa(lp44
F-1.5622418562518519
aF-2.195084873829977
aF-1.3218806425677698
aF-0.9704421202289026
aF1.539818286895752
aF-0.02003652254213506
aa(lp45
F-1.5622542540179651
aF-2.207313362752096
aF-1.3004515806781214
aF-0.9704058806048792
aF1.5397943258285522
aF-0.020072762166158498
aa(lp46
F-1.5623377005206507
aF-2.2192185560809534
aF-1.2803033033954065
aF-0.9707534948932093
aF1.5397822856903076
aF-0.020096604024068654
aa(lp47
F-1.5622780958758753
aF-2.22962457338442
aF-1.264050308858053
aF-0.9706218878375452
aF1.5397822856903076
aF-0.020084683095113576
aa(lp48
F-1.5622542540179651
aF-2.240941826497213
aF-1.2473529020892542
aF-0.9706338087665003
aF1.5397703647613525
aF-0.020096604024068654
aa(lp49
F-1.5621584097491663
aF-2.24839955965151
aF-1.2370689550982874
aF-0.9706099669085901
aF1.5397822856903076
aF-0.02004892030824834
aa(lp50
F-1.5621584097491663
aF-2.2525952498065394
aF-1.2319982687579554
aF-0.9706457296954554
aF1.539758324623108
aF-0.02004892030824834
aa(lp51
F-1.562146011983053
aF-2.252739731465475
aF-1.2322858015643519
aF-0.9706338087665003
aF1.5397943258285522
aF-0.02006084123720342
aa(lp52
F-1.5621822516070765
aF-2.2526915709124964
aF-1.2323339621173304
aF-0.9706814924823206
aF1.5397703647613525
aF-0.020072762166158498
aa(lp53
F-1.5621941725360315
aF-2.2527034918414515
aF-1.2323821226703089
aF-0.9706338087665003
aF1.5397822856903076
aF-0.02006084123720342
aa(lp54
F-1.5622060934649866
aF-2.2526796499835413
aF-1.2323578039752405
aF-0.9706814924823206
aF1.5397822856903076
aF-0.020072762166158498
aa(lp55
F-1.5622180143939417
aF-2.2527154127704065
aF-1.232405964528219
aF-0.9706695715533655
aF1.5397703647613525
aF-0.020096604024068654
aa(lp56
F-1.5621941725360315
aF-2.2527034918414515
aF-1.232405964528219
aF-0.9706338087665003
aF1.5397943258285522
aF-0.020084683095113576
aa(lp57
F-1.5621822516070765
aF-2.2527273336993616
aF-1.2324422041522425
aF-0.9706814924823206
aF1.539830207824707
aF-0.02004892030824834
aa(lp58
F-1.5621703306781214
aF-2.25277549425234
aF-1.2324422041522425
aF-0.9706814924823206
aF1.5397822856903076
aF-0.02006084123720342
aa(lp59
F-1.5622180143939417
aF-2.25277549425234
aF-1.2324660460101526
aF-0.9706695715533655
aF1.5397943258285522
aF-0.02006084123720342
aa(lp60
F-1.5621703306781214
aF-2.252787415181295
aF-1.2324660460101526
aF-0.9706934134112757
aF1.5397943258285522
aF-0.020072762166158498
aa(lp61
F-1.5621703306781214
aF-2.252763573323385
aF-1.2324774901019495
aF-0.9706814924823206
aF1.5397822856903076
aF-0.020108524953023732
aa(lp62
F-1.5621822516070765
aF-2.25275165239443
aF-1.2324898878680628
aF-0.9706814924823206
aF1.5397822856903076
aF-0.020096604024068654
aa(lp63
F-1.5621941725360315
aF-2.25277549425234
aF-1.2324183622943323
aF-0.9706695715533655
aF1.5397943258285522
aF-0.020096604024068654
aa(lp64
F-1.5622180143939417
aF-2.25275165239443
aF-1.2324660460101526
aF-0.9706695715533655
aF1.5397703647613525
aF-0.02006084123720342
aa(lp65
F-1.5621941725360315
aF-2.25277549425234
aF-1.2324898878680628
aF-0.9706934134112757
aF1.539758324623108
aF-0.020072762166158498
aa(lp66
F-1.5622060934649866
aF-2.252763573323385
aF-1.2325018087970179
aF-0.9706695715533655
aF1.5397822856903076
aF-0.020072762166158498
aa(lp67
F-1.5621703306781214
aF-2.25275165239443
aF-1.2324660460101526
aF-0.9706695715533655
aF1.539818286895752
aF-0.020072762166158498
aa(lp68
F-1.5622418562518519
aF-2.252739731465475
aF-1.2324898878680628
aF-0.9706576506244105
aF1.5397703647613525
aF-0.020072762166158498
aa(lp69
F-1.5621703306781214
aF-2.2527154127704065
aF-1.2325018087970179
aF-0.9707053343402308
aF1.5397464036941528
aF-0.020072762166158498
aa(lp70
F-1.5622060934649866
aF-2.25277549425234
aF-1.2324774901019495
aF-0.9706576506244105
aF1.5397822856903076
aF-0.020072762166158498
aa(lp71
F-1.562146011983053
aF-2.252787415181295
aF-1.232513729725973
aF-0.9706218878375452
aF1.5397822856903076
aF-0.020072762166158498
aa(lp72
F-1.5621822516070765
aF-2.25275165239443
aF-1.232513729725973
aF-0.9706576506244105
aF1.5397822856903076
aF-0.020072762166158498
aa(lp73
F-1.5621703306781214
aF-2.25277549425234
aF-1.232513729725973
aF-0.9706576506244105
aF1.5398062467575073
aF-0.020084683095113576
aa(lp74
F-1.5621822516070765
aF-2.252763573323385
aF-1.2324660460101526
aF-0.9706457296954554
aF1.5397822856903076
aF-0.02004892030824834
aa(lp75
F-1.5621703306781214
aF-2.2527993361102503
aF-1.232513729725973
aF-0.9706457296954554
aF1.539818286895752
aF-0.02003652254213506
aa(lp76
F-1.5622180143939417
aF-2.252763573323385
aF-1.232513729725973
aF-0.9706576506244105
aF1.5397943258285522
aF-0.02006084123720342
aa(lp77
F-1.5621941725360315
aF-2.25275165239443
aF-1.232513729725973
aF-0.9706338087665003
aF1.539818286895752
aF-0.02004892030824834
aa(lp78
F-1.5621822516070765
aF-2.25277549425234
aF-1.2325018087970179
aF-0.9706695715533655
aF1.5398062467575073
aF-0.020072762166158498
aa(lp79
F-1.5622060934649866
aF-2.252787415181295
aF-1.2324898878680628
aF-0.9706814924823206
aF1.5397703647613525
aF-0.020072762166158498
aa(lp80
F-1.5621941725360315
aF-2.25275165239443
aF-1.2324660460101526
aF-0.9706814924823206
aF1.5398062467575073
aF-0.020072762166158498
aa(lp81
F-1.5621584097491663
aF-2.252763573323385
aF-1.2324898878680628
aF-0.9706576506244105
aF1.5398062467575073
aF-0.020084683095113576
aa.