(lp0
(lp1
F-1.450371567402975
aF-1.8805931250201624
aF-1.799906078969137
aF-0.9698546568499964
aF1.5398422479629517
aF-0.020108524953023732
aa(lp2
F-1.4505627791034144
aF-1.8808687368976038
aF-1.7992833296405237
aF-0.9698665777789515
aF1.539830207824707
aF-0.020108524953023732
aa(lp3
F-1.4509576002704065
aF-1.881359879170553
aF-1.7977026144610804
aF-0.9698784987079065
aF1.5398062467575073
aF-0.020096604024068654
aa(lp4
F-1.4523580710040491
aF-1.8823912779437464
aF-1.7940734068499964
aF-0.9698665777789515
aF1.5398062467575073
aF-0.020072762166158498
aa(lp5
F-1.4547994772540491
aF-1.8841412703143519
aF-1.7892354170428675
aF-0.9698784987079065
aF1.5398062467575073
aF-0.020072762166158498
aa(lp6
F-1.4578984419452112
aF-1.886514965687887
aF-1.7839778105365198
aF-0.9698546568499964
aF1.5398422479629517
aF-0.020084683095113576
aa(lp7
F-1.4630559126483362
aF-1.8899548689471644
aF-1.7786958853351038
aF-0.9698665777789515
aF1.5398062467575073
aF-0.020096604024068654
aa(lp8
F-1.4692547957049769
aF-1.8943904081927698
aF-1.774599854146139
aF-0.9698546568499964
aF1.539818286895752
aF-0.020072762166158498
aa(lp9
F-1.4751547018634241
aF-1.8995803038226526
aF-1.771090332661764
aF-0.9698784987079065
aF1.5398062467575073
aF-0.020084683095113576
aa(lp10
F-1.4827774206744593
aF-1.9063175360309046
aF-1.7666471640216272
aF-0.9699266592608851
aF1.5398541688919067
aF-0.020084683095113576
aa(lp11
F-1.490615193043844
aF-1.9155476729022425
aF-1.7589944044696253
aF-0.9698427359210413
aF1.5397703647613525
aF-0.020108524953023732
aa(lp12
F-1.4967182318316858
aF-1.9256771246539515
aF-1.7475083510028284
aF-0.9698784987079065
aF1.5397943258285522
aF-0.020072762166158498
aa(lp13
F-1.5020306746112269
aF-1.9382036367999476
aF-1.72838002840151
aF-0.9698908964740198
aF1.5397943258285522
aF-0.020072762166158498
aa(lp14
F-1.50596791902651
aF-1.9522646109210413
aF-1.7038500944720667
aF-0.9698546568499964
aF1.539830207824707
aF-0.020096604024068654
aa(lp15
F-1.5092228094684046
aF-1.9672134558307093
aF-1.6780369917498987
aF-0.969830338154928
aF1.5397822856903076
aF-0.02006084123720342
aa(lp16
F-1.5116518179522913
aF-1.9809868971454065
aF-1.6554935614215296
aF-0.9698427359210413
aF1.5397943258285522
aF-0.020072762166158498
aa(lp17
F-1.5140331427203577
aF-1.9975422064410608
aF-1.6291278044330042
aF-0.9699028174029749
aF1.5397822856903076
aF-0.020096604024068654
aa(lp18
F-1.5163424650775355
aF-2.015559975300924
aF-1.6020057837115687
aF-0.969830338154928
aF1.5397943258285522
aF-0.020108524953023732
aa(lp19
F-1.5190466086017054
aF-2.0331104437457483
aF-1.5783217589007776
aF-0.9704421202289026
aF1.539830207824707
aF-0.02004892030824834
aa(lp20
F-1.5227201620685022
aF-2.0544727484332483
aF-1.5523718039142054
aF-0.9704178015338343
aF1.539818286895752
aF-0.020072762166158498
aa(lp21
F-1.527231518422262
aF-2.0763991514789026
aF-1.5260017553912562
aF-0.9704178015338343
aF1.5398422479629517
aF-0.02006084123720342
aa(lp22
F-1.5307849089251917
aF-2.096958939229147
aF-1.500049893056051
aF-0.9704659620868128
aF1.539818286895752
aF-0.020072762166158498
aa(lp23
F-1.5323765913592737
aF-2.1130831877337855
aF-1.477703873311178
aF-0.9704178015338343
aF1.5398062467575073
aF-0.020072762166158498
aa(lp24
F-1.534278694783346
aF-2.1293633619891565
aF-1.4529359976397913
aF-0.9704778830157679
aF1.5398422479629517
aF-0.02004892030824834
aa(lp25
F-1.5369833151446741
aF-2.1443608442889612
aF-1.4292462507831019
aF-0.9705136458026331
aF1.539878249168396
aF-0.020072762166158498
aa(lp26
F-1.540046517048971
aF-2.157416645680563
aF-1.4081195036517542
aF-0.9705498854266565
aF1.5398541688919067
aF-0.02006084123720342
aa(lp27
F-1.5423677603351038
aF-2.1690214315997522
aF-1.3896530310260218
aF-0.970489803944723
aF1.5398662090301514
aF-0.02006084123720342
aa(lp28
F-1.5444257895099085
aF-2.1781566778766077
aF-1.3750928084002894
aF-0.9705379644977015
aF1.539830207824707
aF-0.02006084123720342
aa(lp29
F-1.5480392614947718
aF-2.187484089528219
aF-1.3594287077533167
aF-0.970501724873678
aF1.539818286895752
aF-0.020072762166158498
aa(lp30
F-1.5528014341937464
aF-2.1962717215167444
aF-1.3449395338641565
aF-0.9705260435687464
aF1.5398541688919067
aF-0.020072762166158498
aa(lp31
F-1.556821648274557
aF-2.2049039045916956
aF-1.3312295118915003
aF-0.9704659620868128
aF1.5398541688919067
aF-0.02004892030824834
aa(lp32
F-1.5598128477679651
aF-2.211928669606344
aF-1.3203108946429651
aF-0.9705136458026331
aF1.5398541688919067
aF-0.020084683095113576
aa(lp33
F-1.5625289122210901
aF-2.216029469166891
aF-1.3121970335589808
aF-0.970501724873678
aF1.5398422479629517
aF-0.020084683095113576
aa(lp34
F-1.5644195715533655
aF-2.218415085469381
aF-1.3063719908343714
aF-0.9705379644977015
aF1.5398422479629517
aF-0.020096604024068654
aa(lp35
F-1.565329376851217
aF-2.219973389302389
aF-1.3033278624164026
aF-0.9705136458026331
aF1.539818286895752
aF-0.02006084123720342
aa(lp36
F-1.5659273306476038
aF-2.221340004597799
aF-1.3008468786822718
aF-0.9705379644977015
aF1.5398662090301514
aF-0.02006084123720342
aa(lp37
F-1.5665257612811487
aF-2.2229226271258753
aF-1.2983301321612757
aF-0.970489803944723
aF1.539830207824707
aF-0.02003652254213506
aa(lp38
F-1.5671475569354456
aF-2.2253087202655237
aF-1.294758145009176
aF-0.9705260435687464
aF1.5398422479629517
aF-0.020072762166158498
aa(lp39
F-1.5671599547015589
aF-2.227454487477438
aF-1.291797939931051
aF-0.970501724873678
aF1.5398541688919067
aF-0.020072762166158498
aa(lp40
F-1.5670278708087366
aF-2.22895318666567
aF-1.2902873198138636
aF-0.970489803944723
aF1.5398062467575073
aF-0.020084683095113576
aa(lp41
F-1.566573444996969
aF-2.229168717061178
aF-1.2904437224017542
aF-0.9705136458026331
aF1.5397943258285522
aF-0.02004892030824834
aa(lp42
F-1.5655205885516565
aF-2.2291091124164026
aF-1.290527645741598
aF-0.9705260435687464
aF1.5397943258285522
aF-0.02006084123720342
aa(lp43
F-1.5642879644977015
aF-2.2290847937213343
aF-1.2908747831927698
aF-0.970489803944723
aF1.5397943258285522
aF-0.020072762166158498
aa(lp44
F-1.5625889937030237
aF-2.2290847937213343
aF-1.291234318410055
aF-0.9705260435687464
aF1.539758324623108
aF-0.02006084123720342
aa(lp45
F-1.5601003805743616
aF-2.229013268147604
aF-1.2914741675006312
aF-0.9705379644977015
aF1.5397703647613525
aF-0.020096604024068654
aa(lp46
F-1.5575397650348108
aF-2.229013268147604
aF-1.291581932698385
aF-0.9705260435687464
aF1.5397943258285522
aF-0.02004892030824834
aa(lp47
F-1.5537946859942835
aF-2.2289651075946253
aF-1.2923372427569788
aF-0.9705498854266565
aF1.5397703647613525
aF-0.020096604024068654
aa(lp48
F-1.5487688223468226
aF-2.22895318666567
aF-1.2934516111956995
aF-0.9705618063556116
aF1.5397822856903076
aF-0.02004892030824834
aa(lp49
F-1.5441983381854456
aF-2.228701416646139
aF-1.2951176802264612
aF-0.970501724873678
aF1.5398422479629517
aF-0.020072762166158498
aa(lp50
F-1.5378325621234339
aF-2.228138271962301
aF-1.3001754919635218
aF-0.9705136458026331
aF1.5397822856903076
aF-0.020084683095113576
aa(lp51
F-1.5336688200580042
aF-2.2277782599078577
aF-1.3051613012896937
aF-0.9705136458026331
aF1.5398062467575073
aF-0.020084683095113576
aa(lp52
F-1.5307253042804163
aF-2.2270830313311976
aF-1.3111422697650355
aF-0.9705379644977015
aF1.5397943258285522
aF-0.020072762166158498
aa(lp53
F-1.5287507216082972
aF-2.225692097340719
aF-1.3153250853167933
aF-0.9705260435687464
aF1.539818286895752
aF-0.02003652254213506
aa(lp54
F-1.5264294783221644
aF-2.223222557698385
aF-1.3165352980243128
aF-0.9705498854266565
aF1.5398062467575073
aF-0.02006084123720342
aa(lp55
F-1.5237253347979944
aF-2.2186906973468226
aF-1.3166073004352015
aF-0.9705379644977015
aF1.5397943258285522
aF-0.020096604024068654
aa(lp56
F-1.5204222838031214
aF-2.21246844926943
aF-1.3166912237750452
aF-0.9705379644977015
aF1.5397703647613525
aF-0.020072762166158498
aa(lp57
F-1.5156481901751917
aF-2.2040165106402796
aF-1.3176620642291468
aF-0.9705498854266565
aF1.5397822856903076
aF-0.02004892030824834
aa(lp58
F-1.5101202170001429
aF-2.195204559956686
aF-1.3188727537738245
aF-0.970489803944723
aF1.539818286895752
aF-0.020084683095113576
aa(lp59
F-1.5035389105426233
aF-2.1840794722186487
aF-1.3216050306903284
aF-0.9705260435687464
aF1.5397943258285522
aF-0.020072762166158498
aa(lp60
F-1.4967063109027308
aF-2.17155105272402
aF-1.325632397328512
aF-0.9705379644977015
aF1.539818286895752
aF-0.020084683095113576
aa(lp61
F-1.491464916859762
aF-2.1585190931903284
aF-1.3288081328021448
aF-0.9705260435687464
aF1.5398062467575073
aF-0.020072762166158498
aa(lp62
F-1.4879825750934046
aF-2.1473220030414026
aF-1.3303545157061976
aF-0.9705379644977015
aF1.5397943258285522
aF-0.020084683095113576
aa(lp63
F-1.484978977833883
aF-2.1339548269854944
aF-1.3320563475238245
aF-0.9705260435687464
aF1.5398062467575073
aF-0.020072762166158498
aa(lp64
F-1.4832919279681605
aF-2.121979061757223
aF-1.333841625844137
aF-0.970501724873678
aF1.5397822856903076
aF-0.020084683095113576
aa(lp65
F-1.4813769499408167
aF-2.1079886595355433
aF-1.336670223866598
aF-0.9705498854266565
aF1.539830207824707
aF-0.020072762166158498
aa(lp66
F-1.4785292784320276
aF-2.094429318104879
aF-1.3387320677386683
aF-0.9705379644977015
aF1.5397943258285522
aF-0.020096604024068654
aa(lp67
F-1.4739339987384241
aF-2.0821173826800745
aF-1.338935677205221
aF-0.9705136458026331
aF1.539830207824707
aF-0.02004892030824834
aa(lp68
F-1.4680822531329554
aF-2.0712083021747034
aF-1.3388755957232874
aF-0.970489803944723
aF1.5398062467575073
aF-0.02006084123720342
aa(lp69
F-1.459334675465719
aF-2.0633323828326624
aF-1.3388875166522425
aF-0.9705260435687464
aF1.5397703647613525
aF-0.02004892030824834
aa(lp70
F-1.4476187864886683
aF-2.0591123739825647
aF-1.3388636747943323
aF-0.970489803944723
aF1.5397943258285522
aF-0.020096604024068654
aa(lp71
F-1.43422776857485
aF-2.058141056691305
aF-1.3387797514544886
aF-0.970501724873678
aF1.5398541688919067
aF-0.020072762166158498
aa(lp72
F-1.4200227896319788
aF-2.0581653753863733
aF-1.3387559095965784
aF-0.9704778830157679
aF1.5398422479629517
aF-0.020084683095113576
aa(lp73
F-1.4057448546039026
aF-2.058261219655172
aF-1.3386595884906214
aF-0.970501724873678
aF1.5398062467575073
aF-0.02006084123720342
aa(lp74
F-1.3916824499713343
aF-2.0582130591021937
aF-1.33838397661318
aF-0.9705260435687464
aF1.539830207824707
aF-0.02006084123720342
aa(lp75
F-1.3769977728473108
aF-2.05815297762026
aF-1.3371737639056605
aF-0.970489803944723
aF1.5397822856903076
aF-0.020084683095113576
aa(lp76
F-1.3673394362079065
aF-2.0582249800311487
aF-1.3360593954669397
aF-0.970501724873678
aF1.5397943258285522
aF-0.020072762166158498
aa(lp77
F-1.3578842321978968
aF-2.0582130591021937
aF-1.3352444807635706
aF-0.9705260435687464
aF1.5397943258285522
aF-0.020096604024068654
aa(lp78
F-1.3496969381915491
aF-2.0582130591021937
aF-1.3351486364947718
aF-0.9705136458026331
aF1.5397822856903076
aF-0.020084683095113576
aa(lp79
F-1.343604866658346
aF-2.058248821889059
aF-1.3351486364947718
aF-0.9704778830157679
aF1.5397822856903076
aF-0.02006084123720342
aa(lp80
F-1.3389609495746058
aF-2.0582130591021937
aF-1.3351367155658167
aF-0.9704659620868128
aF1.539830207824707
aF-0.02006084123720342
aa(lp81
F-1.3356459776507776
aF-2.0582850615130823
aF-1.3351123968707483
aF-0.9705260435687464
aF1.5398422479629517
aF-0.020084683095113576
aa(lp82
F-1.3328569571124476
aF-2.0583089033709925
aF-1.3344410101519983
aF-0.9705136458026331
aF1.539818286895752
aF-0.02004892030824834
aa(lp83
F-1.3303912321673792
aF-2.0583327452289026
aF-1.3325474897967737
aF-0.9704659620868128
aF1.539830207824707
aF-0.020072762166158498
aa(lp84
F-1.3269322554217737
aF-2.058692757283346
aF-1.3299229780780237
aF-0.970489803944723
aF1.539818286895752
aF-0.020108524953023732
aa(lp85
F-1.322970215474264
aF-2.059016529713766
aF-1.3277295271502894
aF-0.9704659620868128
aF1.539818286895752
aF-0.02004892030824834
aa(lp86
F-1.3199179808246058
aF-2.0593398253070276
aF-1.3263152281390589
aF-0.9704659620868128
aF1.539818286895752
aF-0.02006084123720342
aa(lp87
F-1.3161357084857386
aF-2.060131374989645
aF-1.324493710194723
aF-0.9704659620868128
aF1.539818286895752
aF-0.020084683095113576
aa(lp88
F-1.3122575918780726
aF-2.061641518269674
aF-1.321796719227926
aF-0.9704778830157679
aF1.5398062467575073
aF-0.020084683095113576
aa(lp89
F-1.3089893499957483
aF-2.063607994710104
aF-1.3210185209857386
aF-0.9704540411578577
aF1.539830207824707
aF-0.020084683095113576
aa(lp90
F-1.3048484961139124
aF-2.0668442885028284
aF-1.3208983580218714
aF-0.9704421202289026
aF1.5397943258285522
aF-0.02006084123720342
aa(lp91
F-1.2996652762042444
aF-2.0716398398028772
aF-1.3200233618365687
aF-0.9704659620868128
aF1.5397943258285522
aF-0.02006084123720342
aa(lp92
F-1.2948177496539515
aF-2.077454392110006
aF-1.3169310728656214
aF-0.9704421202289026
aF1.539818286895752
aF-0.020084683095113576
aa(lp93
F-1.2901251951800745
aF-2.0834482351886194
aF-1.3097756544696253
aF-0.9704659620868128
aF1.5398062467575073
aF-0.02006084123720342
aa(lp94
F-1.2864387671100062
aF-2.0887349287616175
aF-1.2980058828936976
aF-0.970501724873678
aF1.5397943258285522
aF-0.020096604024068654
aa(lp95
F-1.2842000166522425
aF-2.093026940022604
aF-1.2823289076434534
aF-0.9704421202289026
aF1.5398422479629517
aF-0.02006084123720342
aa(lp96
F-1.282464329396383
aF-2.0972707907306116
aF-1.2664473692523401
aF-0.9704297224627894
aF1.5397943258285522
aF-0.020072762166158498
aa(lp97
F-1.279184643422262
aF-2.1030009428607386
aF-1.2495225111590784
aF-0.9704297224627894
aF1.5397943258285522
aF-0.02006084123720342
aa(lp98
F-1.2746236960040491
aF-2.110697571431295
aF-1.2352584044085901
aF-0.9704297224627894
aF1.539830207824707
aF-0.02004892030824834
aa(lp99
F-1.2705658117877405
aF-2.119904343281881
aF-1.224830452595846
aF-0.9704421202289026
aF1.539818286895752
aF-0.020072762166158498
aa(lp100
F-1.2666996161090296
aF-2.1306942144977015
aF-1.2179377714740198
aF-0.9703939596759241
aF1.5397943258285522
aF-0.020096604024068654
aa(lp101
F-1.2636945883380335
aF-2.141303841267721
aF-1.2153127829181116
aF-0.9704421202289026
aF1.539830207824707
aF-0.020084683095113576
aa(lp102
F-1.2619474569903772
aF-2.153616253529684
aF-1.2147372404681605
aF-0.9704659620868128
aF1.5398422479629517
aF-0.020096604024068654
aa(lp103
F-1.262066666279928
aF-2.166048828755514
aF-1.214701000844137
aF-0.9704540411578577
aF1.5398422479629517
aF-0.020084683095113576
aa(lp104
F-1.2619827429400843
aF-2.178048912678854
aF-1.2146175543414515
aF-0.9704659620868128
aF1.5398062467575073
aF-0.020072762166158498
aa(lp105
F-1.262078587208883
aF-2.1878679434405726
aF-1.2145336310016077
aF-0.970489803944723
aF1.5397703647613525
aF-0.020084683095113576
aa(lp106
F-1.262066666279928
aF-2.194641415272848
aF-1.2144735495196741
aF-0.9704659620868128
aF1.5398062467575073
aF-0.020096604024068654
aa(lp107
F-1.2619708220111292
aF-2.2013309637652796
aF-1.2145574728595179
aF-0.9704778830157679
aF1.5397943258285522
aF-0.02004892030824834
aa(lp108
F-1.262054745350973
aF-2.2058385054217737
aF-1.2146175543414515
aF-0.9704659620868128
aF1.5397703647613525
aF-0.020072762166158498
aa(lp109
F-1.2619951407061976
aF-2.2080448309527796
aF-1.214832607899801
aF-0.9705260435687464
aF1.5397943258285522
aF-0.02006084123720342
aa(lp110
F-1.2620428244220179
aF-2.2082722822772425
aF-1.214832607899801
aF-0.970489803944723
aF1.5397943258285522
aF-0.020072762166158498
aa(lp111
F-1.2620189825641077
aF-2.208320442830221
aF-1.2150490919696253
aF-0.970489803944723
aF1.5397703647613525
aF-0.02006084123720342
aa(lp112
F-1.2620309034930628
aF-2.208320442830221
aF-1.2153003851519983
aF-0.9705136458026331
aF1.539818286895752
aF-0.020072762166158498
aa(lp113
F-1.2620189825641077
aF-2.2083681265460413
aF-1.2157443205462855
aF-0.9704778830157679
aF1.539818286895752
aF-0.020084683095113576
aa(lp114
F-1.2620428244220179
aF-2.208344284688131
aF-1.215839687977926
aF-0.970489803944723
aF1.5397943258285522
aF-0.02004892030824834
aa(lp115
F-1.2620189825641077
aF-2.208344284688131
aF-1.2158878485309046
aF-0.9705136458026331
aF1.5397943258285522
aF-0.020072762166158498
aa(lp116
F-1.2619951407061976
aF-2.2084043661700647
aF-1.2160800139056605
aF-0.9705260435687464
aF1.5397822856903076
aF-0.020072762166158498
aa(lp117
F-1.262054745350973
aF-2.2085121313678187
aF-1.2165592352496546
aF-0.9704659620868128
aF1.5398422479629517
aF-0.020072762166158498
aa(lp118
F-1.2620309034930628
aF-2.2086318174945276
aF-1.2168110052691858
aF-0.9705379644977015
aF1.5398062467575073
aF-0.020084683095113576
aa(lp119
F-1.2620189825641077
aF-2.2087157408343714
aF-1.2169182936297815
aF-0.9705260435687464
aF1.5398062467575073
aF-0.020072762166158498
aa(lp120
F-1.2620070616351526
aF-2.209015671406881
aF-1.21729022661318
aF-0.9705136458026331
aF1.5398541688919067
aF-0.02006084123720342
aa(lp121
F-1.2619827429400843
aF-2.2092555204974573
aF-1.2174223105060022
aF-0.9705260435687464
aF1.539818286895752
aF-0.020072762166158498
aa(lp122
F-1.2619951407061976
aF-2.2093876043902796
aF-1.217506233845846
aF-0.9704778830157679
aF1.539818286895752
aF-0.020096604024068654
aa(lp123
F-1.2619589010821741
aF-2.2096274534808558
aF-1.2176736036883753
aF-0.9705379644977015
aF1.5397943258285522
aF-0.020084683095113576
aa(lp124
F-1.2620189825641077
aF-2.210022751485006
aF-1.2178900877581995
aF-0.9705260435687464
aF1.5398062467575073
aF-0.020072762166158498
aa(lp125
F-1.2619708220111292
aF-2.2111619154559534
aF-1.2185490767108362
aF-0.970501724873678
aF1.5397943258285522
aF-0.020072762166158498
aa(lp126
F-1.2619355360614222
aF-2.2128642241107386
aF-1.2203949133502405
aF-0.9705136458026331
aF1.5397943258285522
aF-0.020096604024068654
aa(lp127
F-1.2619112173663538
aF-2.2143147627459925
aF-1.2239435354815882
aF-0.970489803944723
aF1.5397943258285522
aF-0.020072762166158498
aa(lp128
F-1.261923615132467
aF-2.2162449995623987
aF-1.2272756735431116
aF-0.9705379644977015
aF1.5397943258285522
aF-0.020096604024068654
aa(lp129
F-1.2618873755084437
aF-2.2190502325641077
aF-1.2276471296893519
aF-0.9705379644977015
aF1.539830207824707
aF-0.020084683095113576
aa(lp130
F-1.2619355360614222
aF-2.2217238585101526
aF-1.2276232878314417
aF-0.970501724873678
aF1.5397822856903076
aF-0.020084683095113576
aa(lp131
F-1.2619474569903772
aF-2.223006550465719
aF-1.2275751272784632
aF-0.9705260435687464
aF1.539818286895752
aF-0.020084683095113576
aa(lp132
F-1.2620309034930628
aF-2.2229588667498987
aF-1.227431599293844
aF-0.9705136458026331
aF1.539818286895752
aF-0.020084683095113576
aa(lp133
F-1.2621148268329065
aF-2.2230547110186976
aF-1.2273595968829554
aF-0.970501724873678
aF1.5397822856903076
aF-0.02006084123720342
aa(lp134
F-1.262066666279928
aF-2.222982708607809
aF-1.2273839155780237
aF-0.970501724873678
aF1.5398062467575073
aF-0.020072762166158498
aa(lp135
F-1.2621267477618616
aF-2.2230308691607874
aF-1.2273476759540003
aF-0.970501724873678
aF1.5397943258285522
aF-0.020084683095113576
aa(lp136
F-1.262054745350973
aF-2.223018471394674
aF-1.2273715178119105
aF-0.970501724873678
aF1.5397822856903076
aF-0.020084683095113576
aa(lp137
F-1.262066666279928
aF-2.222994629536764
aF-1.2273476759540003
aF-0.970489803944723
aF1.5398062467575073
aF-0.020072762166158498
aa(lp138
F-1.262078587208883
aF-2.223018471394674
aF-1.2273715178119105
aF-0.9704778830157679
aF1.539818286895752
aF-0.020084683095113576
aa(lp139
F-1.262066666279928
aF-2.222982708607809
aF-1.2273595968829554
aF-0.9705136458026331
aF1.5397822856903076
aF-0.02006084123720342
aa(lp140
F-1.2621148268329065
aF-2.223006550465719
aF-1.2274435202227991
aF-0.9704659620868128
aF1.539818286895752
aF-0.020096604024068654
aa(lp141
F-1.2620070616351526
aF-2.223006550465719
aF-1.227419678364889
aF-0.9704659620868128
aF1.5398062467575073
aF-0.020072762166158498
aa(lp142
F-1.2620309034930628
aF-2.2229345480548304
aF-1.2274554411517542
aF-0.970501724873678
aF1.5397822856903076
aF-0.020072762166158498
aa(lp143
F-1.2620309034930628
aF-2.2223833242999476
aF-1.2274435202227991
aF-0.9704659620868128
aF1.5398062467575073
aF-0.02006084123720342
aa(lp144
F-1.2615516821490687
aF-2.221556011830465
aF-1.2275269667254847
aF-0.970489803944723
aF1.5397943258285522
aF-0.020096604024068654
aa(lp145
F-1.2608335653888147
aF-2.2203572432147425
aF-1.227682892476217
aF-0.9704540411578577
aF1.5398062467575073
aF-0.020096604024068654
aa(lp146
F-1.2590745131122034
aF-2.21950608888735
aF-1.2281625906573694
aF-0.9704421202289026
aF1.5397943258285522
aF-0.02006084123720342
aa(lp147
F-1.2559617201434534
aF-2.2191103140460413
aF-1.2294452826129358
aF-0.9704421202289026
aF1.5397943258285522
aF-0.020096604024068654
aa(lp148
F-1.2506707350360315
aF-2.218870464955465
aF-1.2328737417804163
aF-0.9704659620868128
aF1.539830207824707
aF-0.020096604024068654
aa(lp149
F-1.2450321356402796
aF-2.2180193106280726
aF-1.240976635609762
aF-0.9704297224627894
aF1.5397822856903076
aF-0.02006084123720342
aa(lp150
F-1.2397411505328577
aF-2.215945545827047
aF-1.2535260359393519
aF-0.9704421202289026
aF1.5397943258285522
aF-0.020072762166158498
aa(lp151
F-1.2357547918902796
aF-2.212912384663717
aF-1.2655485312091272
aF-0.9704659620868128
aF1.5398062467575073
aF-0.020072762166158498
aa(lp152
F-1.2322710196124476
aF-2.2066782156573694
aF-1.2810347715960901
aF-0.9704659620868128
aF1.5397822856903076
aF-0.020072762166158498
aa(lp153
F-1.229086701069967
aF-2.1980703512774866
aF-1.2968080679522913
aF-0.9704659620868128
aF1.5398062467575073
aF-0.020072762166158498
aa(lp154
F-1.2260459105121058
aF-2.1871002356158655
aF-1.3123047987567347
aF-0.9704659620868128
aF1.5398062467575073
aF-0.02004892030824834
aa(lp155
F-1.223424259816305
aF-2.1737449804889124
aF-1.3281014601336878
aF-0.9704659620868128
aF1.5398062467575073
aF-0.020072762166158498
aa(lp156
F-1.2208502928363245
aF-2.158243481312887
aF-1.3460782209979456
aF-0.9704297224627894
aF1.539818286895752
aF-0.020072762166158498
aa(lp157
F-1.2169116179095667
aF-2.1420472303973597
aF-1.367302719746725
aF-0.9704178015338343
aF1.5397822856903076
aF-0.020072762166158498
aa(lp158
F-1.2112730185138147
aF-2.1250956694232386
aF-1.3926852385150355
aF-0.970370117818014
aF1.5398062467575073
aF-0.020072762166158498
aa(lp159
F-1.2053588072406214
aF-2.1102660338031214
aF-1.4176824728595179
aF-0.9704659620868128
aF1.5397943258285522
aF-0.020096604024068654
aa(lp160
F-1.1971824804889124
aF-2.09329063097109
aF-1.448083225880758
aF-0.970489803944723
aF1.5397822856903076
aF-0.020132366810933888
aa(lp161
F-1.1881311575519007
aF-2.076434914265768
aF-1.4795249144183558
aF-0.9704421202289026
aF1.5397943258285522
aF-0.02006084123720342
aa(lp162
F-1.1783140341388147
aF-2.059004608784811
aF-1.5113485495196741
aF-0.9704421202289026
aF1.539758324623108
aF-0.020084683095113576
aa(lp163
F-1.1680176893817347
aF-2.041501824055807
aF-1.5414932409869593
aF-0.9704778830157679
aF1.539818286895752
aF-0.02004892030824834
aa(lp164
F-1.1580084005938929
aF-2.02374774614443
aF-1.5678985754596155
aF-0.9705136458026331
aF1.539818286895752
aF-0.02004892030824834
aa(lp165
F-1.1491964499102991
aF-2.0076358954059046
aF-1.587761704121725
aF-0.9704421202289026
aF1.5397943258285522
aF-0.02004892030824834
aa(lp166
F-1.138791863118307
aF-1.9888752142535608
aF-1.607600514088766
aF-0.9704659620868128
aF1.5397943258285522
aF-0.020072762166158498
aa(lp167
F-1.1277406851397913
aF-1.9692156950580042
aF-1.625617806111471
aF-0.9704659620868128
aF1.5398062467575073
aF-0.020072762166158498
aa(lp168
F-1.1169284025775355
aF-1.9499033133136194
aF-1.6412623564349573
aF-0.9704659620868128
aF1.5397822856903076
aF-0.020084683095113576
aa(lp169
F-1.1063674131976526
aF-1.930472199116842
aF-1.6566794554339808
aF-0.9704659620868128
aF1.5397703647613525
aF-0.020072762166158498
aa(lp170
F-1.0967524687396448
aF-1.9112680594073694
aF-1.6724675337420862
aF-0.9703939596759241
aF1.5397943258285522
aF-0.02004892030824834
aa(lp171
F-1.0897472540484827
aF-1.89441425005068
aF-1.686577622090475
aF-0.9704659620868128
aF1.539818286895752
aF-0.02004892030824834
aa(lp172
F-1.0839155356036585
aF-1.8752825895892542
aF-1.703203026448385
aF-0.9704421202289026
aF1.5397943258285522
aF-0.02004892030824834
aa(lp173
F-1.08075458208193
aF-1.8571704069720667
aF-1.7199004332171839
aF-0.9704540411578577
aF1.539758324623108
aF-0.02003652254213506
aa(lp174
F-1.079341236745016
aF-1.8410595099078577
aF-1.7366564909564417
aF-0.9704297224627894
aF1.5397943258285522
aF-0.020096604024068654
aa(lp175
F-1.0791977087603968
aF-1.8295519987689417
aF-1.7510770002948206
aF-0.9704421202289026
aF1.5397822856903076
aF-0.020072762166158498
aa(lp176
F-1.0791857878314417
aF-1.8189681212054651
aF-1.76530629793276
aF-0.9704540411578577
aF1.5397822856903076
aF-0.02004892030824834
aa(lp177
F-1.0791857878314417
aF-1.8117759863482874
aF-1.7765997091876429
aF-0.9704058806048792
aF1.5398062467575073
aF-0.020084683095113576
aa(lp178
F-1.0791857878314417
aF-1.8079879919635218
aF-1.7855942885028284
aF-0.970370117818014
aF1.5397943258285522
aF-0.020072762166158498
aa(lp179
F-1.079233471547262
aF-1.807652775441305
aF-1.7897380034076136
aF-0.9704421202289026
aF1.539758324623108
aF-0.02006084123720342
aa.