(lp0
(lp1
F-1.2378976980792444
aF-1.0988252798663538
aF-2.025550667439596
aF-1.5565884749041956
aF1.5807275772094727
aF3.1416144371032715
aa(lp2
F-1.237861458455221
aF-1.0987771193133753
aF-2.025562588368551
aF-1.5566366354571741
aF1.5806796550750732
aF3.1416263580322266
aa(lp3
F-1.2379215399371546
aF-1.0987651983844202
aF-2.0255864302264612
aF-1.5566003958331507
aF1.580715537071228
aF3.1416144371032715
aa(lp4
F-1.2378857771502894
aF-1.0988133589373987
aF-2.0255749861346644
aF-1.5566123167621058
aF1.5806676149368286
aF3.1416263580322266
aa(lp5
F-1.2378976980792444
aF-1.0987895170794886
aF-2.0255749861346644
aF-1.556624714528219
aF1.580715537071228
aF3.141578435897827
aa(lp6
F-1.2378976980792444
aF-1.0987895170794886
aF-2.025562588368551
aF-1.5565884749041956
aF1.5806676149368286
aF3.1416025161743164
aa(lp7
F-1.2379334608661097
aF-1.0988133589373987
aF-2.025562588368551
aF-1.556624714528219
aF1.580715537071228
aF3.1416144371032715
aa(lp8
F-1.237957779561178
aF-1.0988009611712855
aF-2.025562588368551
aF-1.556624714528219
aF1.5806796550750732
aF3.141566514968872
aa(lp9
F-1.2379453817950647
aF-1.0987895170794886
aF-2.0256226698504847
aF-1.5566366354571741
aF1.5806915760040283
aF3.1416025161743164
aa(lp10
F-1.2379334608661097
aF-1.0988252798663538
aF-2.0255988279925745
aF-1.556624714528219
aF1.5806796550750732
aF3.1416144371032715
aa(lp11
F-1.2379334608661097
aF-1.0987895170794886
aF-2.025538746510641
aF-1.5566485563861292
aF1.580715537071228
aF3.1415905952453613
aa(lp12
F-1.237969700490133
aF-1.0987771193133753
aF-2.0255988279925745
aF-1.5566485563861292
aF1.5807275772094727
aF3.1416263580322266
aa(lp13
F-1.237969700490133
aF-1.0987651983844202
aF-2.0256107489215296
aF-1.5566843191729944
aF1.5806915760040283
aF3.141650438308716
aa(lp14
F-1.2379453817950647
aF-1.0987895170794886
aF-2.0255749861346644
aF-1.5566723982440394
aF1.580715537071228
aF3.1416263580322266
aa(lp15
F-1.2379334608661097
aF-1.0988009611712855
aF-2.025646511708395
aF-1.5566604773150843
aF1.5806796550750732
aF3.1416144371032715
aa(lp16
F-1.2380412260638636
aF-1.0988009611712855
aF-2.025694195424215
aF-1.5566723982440394
aF1.5806317329406738
aF3.1416144371032715
aa(lp17
F-1.2380889097796839
aF-1.0988009611712855
aF-2.0259936491595667
aF-1.5566485563861292
aF1.5806317329406738
aF3.1416144371032715
aa(lp18
F-1.2386639753924769
aF-1.098861042653219
aF-2.0266764799701136
aF-1.5565527121173304
aF1.5805836915969849
aF3.141650438308716
aa(lp19
F-1.239058796559469
aF-1.0992682615863245
aF-2.0315850416766565
aF-1.5564444700824183
aF1.580487847328186
aF3.1416983604431152
aa(lp20
F-1.2401846090899866
aF-1.1007302443133753
aF-2.0446465651141565
aF-1.5553653875934046
aF1.5798534154891968
aF3.141770362854004
aa(lp21
F-1.2414172331439417
aF-1.1019881407367151
aF-2.061371628438131
aF-1.5501979033099573
aF1.5762368440628052
aF3.141925573348999
aa(lp22
F-1.242901627217428
aF-1.1036775747882288
aF-2.0790298620807093
aF-1.5261357466327112
aF1.5637937784194946
aF3.1419496536254883
aa(lp23
F-1.2429373900042933
aF-1.1073444525348108
aF-2.1006272474872034
aF-1.4559624830829065
aF1.5252076387405396
aF3.141937732696533
aa(lp24
F-1.243033234273092
aF-1.113107983266012
aF-2.1265085379229944
aF-1.3687165419207972
aF1.4790631532669067
aF3.1419496536254883
aa(lp25
F-1.2436321417437952
aF-1.1171940008746546
aF-2.1496127287494105
aF-1.299527947102682
aF1.4439482688903809
aF3.141937732696533
aa(lp26
F-1.247594181691305
aF-1.1186679045306605
aF-2.1772759596454065
aF-1.2259638945208948
aF1.4079337120056152
aF3.141913652420044
aa(lp27
F-1.259984318410055
aF-1.120596710835592
aF-2.2035749594317835
aF-1.1657088438617151
aF1.390591025352478
aF3.141925573348999
aa(lp28
F-1.2811477820025843
aF-1.1267440954791468
aF-2.2300522963153284
aF-1.1140735785113733
aF1.3908547163009644
aF3.141913652420044
aa(lp29
F-1.3068950811969202
aF-1.1346047560321253
aF-2.2561939398394983
aF-1.0684455076800745
aF1.3908547163009644
aF3.141913652420044
aa(lp30
F-1.3318513075457972
aF-1.140883747731344
aF-2.2776787916766565
aF-1.0271576086627405
aF1.3910341262817383
aF3.141913652420044
aa(lp31
F-1.3567708174334925
aF-1.143304173146383
aF-2.3035314718829554
aF-0.9750092665301722
aF1.3912018537521362
aF3.141889810562134
aa(lp32
F-1.3789365927325647
aF-1.1439393202411097
aF-2.3301499525653284
aF-0.9158127943622034
aF1.3911899328231812
aF3.141901731491089
aa(lp33
F-1.3988035360919397
aF-1.1448972860919397
aF-2.356121842061178
aF-0.8512705008136194
aF1.391225814819336
aF3.141925573348999
aa(lp34
F-1.4160617033587855
aF-1.1486480871783655
aF-2.382714335118429
aF-0.7851842085467737
aF1.3914775848388672
aF3.141913652420044
aa(lp35
F-1.4322050253497522
aF-1.156365219746725
aF-2.410647694264547
aF-0.716125790272848
aF1.3914055824279785
aF3.141913652420044
aa(lp36
F-1.4462783972369593
aF-1.1674850622760218
aF-2.431411091481344
aF-0.6517799536334437
aF1.3913336992263794
aF3.141901731491089
aa(lp37
F-1.461297337208883
aF-1.1840336958514612
aF-2.4491949717151087
aF-0.5847628752337855
aF1.3914415836334229
aF3.1418776512145996
aa(lp38
F-1.4749153296100062
aF-1.203852955495016
aF-2.4616649786578577
aF-0.5252025763141077
aF1.3914895057678223
aF3.1418657302856445
aa(lp39
F-1.488760773335592
aF-1.2271845976458948
aF-2.475786034260885
aF-0.45911151567568
aF1.3914895057678223
aF3.141889810562134
aa(lp40
F-1.502402130757467
aF-1.251270596181051
aF-2.487777058278219
aF-0.3933942953692835
aF1.3917768001556396
aF3.141913652420044
aa(lp41
F-1.5154326597796839
aF-1.278161350880758
aF-2.4987028280841272
aF-0.3240707556353968
aF1.391920566558838
aF3.141937732696533
aa(lp42
F-1.5268481413470667
aF-1.3063347975360315
aF-2.5104661623584192
aF-0.2566431204425257
aF1.3919445276260376
aF3.141913652420044
aa(lp43
F-1.5332258383380335
aF-1.3319557348834437
aF-2.5155399481402796
aF-0.2056964079486292
aF1.3919326066970825
aF3.141889810562134
aa(lp44
F-1.5402258078204554
aF-1.3601897398578089
aF-2.5183525721179407
aF-0.15797406831850225
aF1.3919326066970825
aF3.1418776512145996
aa(lp45
F-1.5451796690570276
aF-1.3906539122210901
aF-2.5199323336230677
aF-0.11551410356630498
aF1.3918845653533936
aF3.141889810562134
aa(lp46
F-1.5518558661090296
aF-1.4220283667193812
aF-2.522169891987936
aF-0.07430106798280889
aF1.3918966054916382
aF3.141889810562134
aa(lp47
F-1.5575040022479456
aF-1.4513428846942347
aF-2.5270403067218226
aF-0.03034526506532842
aF1.3918726444244385
aF3.141937732696533
aa(lp48
F-1.5623377005206507
aF-1.4805010000811976
aF-2.5378344694720667
aF0.0290452241897583
aF1.3918606042861938
aF3.1419615745544434
aa(lp49
F-1.5692890326129358
aF-1.5098641554461878
aF-2.544093195592062
aF0.10141158103942871
aF1.3917768001556396
aF3.141925573348999
aa(lp50
F-1.5744460264789026
aF-1.5415166060077112
aF-2.544272247944967
aF0.18082141876220703
aF1.391764760017395
aF3.1419496536254883
aa(lp51
F-1.5811346212970179
aF-1.5709641615497034
aF-2.5443320910083216
aF0.24636530876159668
aF1.3917049169540405
aF3.1419856548309326
aa(lp52
F-1.5860160032855433
aF-1.599968735371725
aF-2.5443082491504114
aF0.29793643951416016
aF1.3917288780212402
aF3.1419615745544434
aa(lp53
F-1.5917237440692347
aF-1.6308677832232874
aF-2.544272247944967
aF0.34691858291625977
aF1.3917288780212402
aF3.141937732696533
aa(lp54
F-1.5917237440692347
aF-1.6580751577960413
aF-2.5442243258105677
aF0.3881117105484009
aF1.3918007612228394
aF3.141937732696533
aa(lp55
F-1.5917475859271448
aF-1.6852954069720667
aF-2.544152323399679
aF0.43459999561309814
aF1.3917288780212402
aF3.1419734954833984
aa(lp56
F-1.5917118231402796
aF-1.7097232977496546
aF-2.5440452734576624
aF0.4777446985244751
aF1.39175283908844
aF3.1419496536254883
aa(lp57
F-1.5917356649981897
aF-1.7329166571246546
aF-2.5438295046435755
aF0.5231889486312866
aF1.3916213512420654
aF3.1419496536254883
aa(lp58
F-1.5918191115008753
aF-1.7594903151141565
aF-2.5432549158679407
aF0.5678178071975708
aF1.3911778926849365
aF3.1419734954833984
aa(lp59
F-1.5918791929828089
aF-1.7874305883990687
aF-2.5421064535724085
aF0.6013044118881226
aF1.390591025352478
aF3.1419975757598877
aa(lp60
F-1.5930035750018519
aF-1.8194592634784144
aF-2.5398927370654505
aF0.6349939107894897
aF1.3883275985717773
aF3.1419856548309326
aa(lp61
F-1.5980528036700647
aF-1.849522892628805
aF-2.537654701863424
aF0.6684073209762573
aF1.3769489526748657
aF3.1419975757598877
aa(lp62
F-1.6102922598468226
aF-1.8787348906146448
aF-2.5314441362964075
aF0.7069607973098755
aF1.355401635169983
aF3.1419975757598877
aa(lp63
F-1.6249130407916468
aF-1.9048669973956507
aF-2.522301260625021
aF0.7511559724807739
aF1.3444664478302002
aF3.1419734954833984
aa(lp64
F-1.6410282293902796
aF-1.9314549604998987
aF-2.515085283909933
aF0.7951828241348267
aF1.3445619344711304
aF3.1419734954833984
aa(lp65
F-1.6542957464801233
aF-1.9558013121234339
aF-2.5123332182513636
aF0.836286187171936
aF1.34458589553833
aF3.1419856548309326
aa(lp66
F-1.663663689290182
aF-1.9797404448138636
aF-2.5047104994403284
aF0.8803120851516724
aF1.3446098566055298
aF3.1419856548309326
aa(lp67
F-1.6681979338275355
aF-2.0063770453082483
aF-2.488028351460592
aF0.9261945486068726
aF1.3445379734039307
aF3.1419856548309326
aa(lp68
F-1.6683533827411097
aF-2.032834831868307
aF-2.467074219380514
aF0.955868124961853
aF1.3445379734039307
aF3.1419734954833984
aa(lp69
F-1.6690595785724085
aF-2.060035530720846
aF-2.442493263875143
aF0.9732624292373657
aF1.3445619344711304
aF3.1419856548309326
aa(lp70
F-1.6704471747027796
aF-2.0846107641803187
aF-2.4175289312945765
aF0.9808815717697144
aF1.3446217775344849
aF3.142021656036377
aa(lp71
F-1.6769793669330042
aF-2.109762493764059
aF-2.38975173631777
aF0.9846550226211548
aF1.344909429550171
aF3.1419975757598877
aa(lp72
F-1.6806157271014612
aF-2.1334155241595667
aF-2.362978998814718
aF0.9937833547592163
aF1.3449214696884155
aF3.1420094966888428
aa(lp73
F-1.6807597319232386
aF-2.153412644063131
aF-2.3386955896960657
aF1.014327883720398
aF1.3448854684829712
aF3.1419856548309326
aa(lp74
F-1.6808670202838343
aF-2.1730015913592737
aF-2.313190523778097
aF1.0460857152938843
aF1.3448854684829712
aF3.1419615745544434
aa(lp75
F-1.6808431784259241
aF-2.192854706441061
aF-2.2891808191882532
aF1.072787880897522
aF1.3450772762298584
aF3.1419734954833984
aa(lp76
F-1.6808670202838343
aF-2.2147343794452112
aF-2.2637460867511194
aF1.088504672050476
aF1.3456281423568726
aF3.1419734954833984
aa(lp77
F-1.680819336568014
aF-2.2336648146258753
aF-2.2374613920794886
aF1.0891159772872925
aF1.3457239866256714
aF3.1419496536254883
aa(lp78
F-1.6807716528521937
aF-2.2498377005206507
aF-2.2080519835101526
aF1.0891159772872925
aF1.3461191654205322
aF3.1419496536254883
aa(lp79
F-1.6807716528521937
aF-2.2623780409442347
aF-2.174415413533346
aF1.0890439748764038
aF1.347017526626587
aF3.141925573348999
aa(lp80
F-1.6807597319232386
aF-2.2684806028949183
aF-2.1457818190204065
aF1.0890558958053589
aF1.3487181663513184
aF3.141913652420044
aa(lp81
F-1.6806400457965296
aF-2.270686451588766
aF-2.1178415457354944
aF1.088840365409851
aF1.3505390882492065
aF3.141889810562134
aa(lp82
F-1.6804125944720667
aF-2.2707346121417444
aF-2.0941742102252405
aF1.0883609056472778
aF1.3547911643981934
aF3.1418657302856445
aa(lp83
F-1.6797307173358362
aF-2.2710583845721644
aF-2.0691054503070276
aF1.0849708318710327
aF1.3586235046386719
aF3.1418418884277344
aa(lp84
F-1.6785462538348597
aF-2.2726648489581507
aF-2.042659107838766
aF1.0712546110153198
aF1.3638936281204224
aF3.141806125640869
aa(lp85
F-1.6758306662188929
aF-2.2747510115252894
aF-2.0142601172076624
aF1.026163935661316
aF1.3722541332244873
aF3.1418657302856445
aa(lp86
F-1.6752808729754847
aF-2.275374237691061
aF-1.9834540526019495
aF0.9703274965286255
aF1.380793571472168
aF3.1418538093566895
aa(lp87
F-1.6753047148333948
aF-2.2760217825519007
aF-1.9510653654681605
aF0.9249604940414429
aF1.4013341665267944
aF3.1418538093566895
aa(lp88
F-1.6752808729754847
aF-2.280757729207174
aF-1.919586483632223
aF0.887919545173645
aF1.4376602172851562
aF3.1418418884277344
aa(lp89
F-1.6752565542804163
aF-2.292302910481588
aF-1.8922484556781214
aF0.8685959577560425
aF1.4686799049377441
aF3.1418297290802
aa(lp90
F-1.675196949635641
aF-2.309627358113424
aF-1.8629220167743128
aF0.8666430711746216
aF1.4943687915802002
aF3.1418297290802
aa(lp91
F-1.675077263508932
aF-2.32727557817568
aF-1.8273070494281214
aF0.8666309118270874
aF1.513938307762146
aF3.141817808151245
aa(lp92
F-1.6745026747332972
aF-2.340463940297262
aF-1.7920377890216272
aF0.8665355443954468
aF1.5288602113723755
aF3.1418297290802
aa(lp93
F-1.673234764729635
aF-2.347177807484762
aF-1.7567780653582972
aF0.8662599325180054
aF1.5326569080352783
aF3.1418297290802
aa(lp94
F-1.6712725798236292
aF-2.3480170408831995
aF-1.7265837828265589
aF0.8640316724777222
aF1.532668948173523
aF3.141770362854004
aa(lp95
F-1.667156998311178
aF-2.3481248060809534
aF-1.69523793855776
aF0.8542197942733765
aF1.5328004360198975
aF3.1417462825775146
aa(lp96
F-1.6598714033709925
aF-2.348077122365133
aF-1.6691368261920374
aF0.8313266038894653
aF1.5329082012176514
aF3.1417343616485596
aa(lp97
F-1.6537459532367151
aF-2.3480170408831995
aF-1.6417658964740198
aF0.796608567237854
aF1.5363091230392456
aF3.1417222023010254
aa(lp98
F-1.6449287573443812
aF-2.3480408827411097
aF-1.61481219926943
aF0.7640587091445923
aF1.5429558753967285
aF3.1417343616485596
aa(lp99
F-1.6349147001849573
aF-2.347956959401266
aF-1.5858691374408167
aF0.7394031286239624
aF1.5483211278915405
aF3.1417222023010254
aa(lp100
F-1.6269109884845179
aF-2.347956959401266
aF-1.5589736143695276
aF0.730657696723938
aF1.5528841018676758
aF3.1417343616485596
aa(lp101
F-1.619504753743307
aF-2.3479326407061976
aF-1.532447640095846
aF0.7306455373764038
aF1.5568362474441528
aF3.1417343616485596
aa(lp102
F-1.609957520161764
aF-2.347657028828756
aF-1.5058968702899378
aF0.7306815385818481
aF1.5597578287124634
aF3.1417343616485596
aa(lp103
F-1.6015461126910608
aF-2.3472378889666956
aF-1.4849045912372034
aF0.7307175397872925
aF1.5627280473709106
aF3.1417462825775146
aa(lp104
F-1.5933030287372034
aF-2.345283810292379
aF-1.464151684437887
aF0.7307649850845337
aF1.5658656358718872
aF3.1417582035064697
aa(lp105
F-1.58484393755068
aF-2.340703789387838
aF-1.4456146399127405
aF0.7308610677719116
aF1.5685242414474487
aF3.1417462825775146
aa(lp106
F-1.5767553488360804
aF-2.3327186743365687
aF-1.430073086415426
aF0.7307771444320679
aF1.5718176364898682
aF3.14168643951416
aa(lp107
F-1.5706175009356897
aF-2.3191826979266565
aF-1.4227755705462855
aF0.7308729887008667
aF1.5734343528747559
aF3.1417343616485596
aa(lp108
F-1.5650900045977991
aF-2.3035009543048304
aF-1.422619644795553
aF0.730789065361023
aF1.5764405727386475
aF3.1417343616485596
aa(lp109
F-1.5574200789081019
aF-2.283874813710348
aF-1.4224517981158655
aF0.7307416200637817
aF1.5776258707046509
aF3.141674280166626
aa(lp110
F-1.5494750181781214
aF-2.2670539061175745
aF-1.4224041144000452
aF0.7306336164474487
aF1.5784164667129517
aF3.141662359237671
aa(lp111
F-1.5405009428607386
aF-2.254093948994772
aF-1.4222844282733362
aF0.7305856943130493
aF1.5809788703918457
aF3.14168643951416
aa(lp112
F-1.5294211546527308
aF-2.2443230787860315
aF-1.4220922628985804
aF0.7304059267044067
aF1.5823079347610474
aF3.141650438308716
aa(lp113
F-1.515815560017721
aF-2.2369378248797815
aF-1.4188087622271937
aF0.7303820848464966
aF1.5822124481201172
aF3.141662359237671
aa(lp114
F-1.5044601599322718
aF-2.2314351240741175
aF-1.4122541586505335
aF0.7304419279098511
aF1.582296371459961
aF3.141650438308716
aa(lp115
F-1.4922664801227015
aF-2.2280781904803675
aF-1.4007981459247034
aF0.7304419279098511
aF1.582296371459961
aF3.1416385173797607
aa(lp116
F-1.4808028380023401
aF-2.2256081740008753
aF-1.387615982686178
aF0.7303699254989624
aF1.582331895828247
aF3.1416263580322266
aa(lp117
F-1.470212761555807
aF-2.2214601675616663
aF-1.3723962942706507
aF0.7304059267044067
aF1.5823798179626465
aF3.141578435897827
aa(lp118
F-1.458832089100973
aF-2.21619683900942
aF-1.3631203810321253
aF0.7303940057754517
aF1.5832663774490356
aF3.141554594039917
aa(lp119
F-1.4451778570758265
aF-2.2126486937152308
aF-1.3627007643329065
aF0.7301303148269653
aF1.5842962265014648
aF3.141578435897827
aa(lp120
F-1.430960480366842
aF-2.20876390138735
aF-1.3623769919024866
aF0.7292917966842651
aF1.5842602252960205
aF3.141566514968872
aa(lp121
F-1.4159892241107386
aF-2.2064746061908167
aF-1.3609631697284144
aF0.7271114587783813
aF1.584212303161621
aF3.141554594039917
aa(lp122
F-1.4022381941424769
aF-2.206498448048727
aF-1.359309498463766
aF0.722103476524353
aF1.5842483043670654
aF3.141566514968872
aa(lp123
F-1.3872903029071253
aF-2.206534210835592
aF-1.3573315779315394
aF0.7035104036331177
aF1.5842722654342651
aF3.1415181159973145
aa(lp124
F-1.3749988714801233
aF-2.2065704504596155
aF-1.3513396422015589
aF0.6621898412704468
aF1.5843322277069092
aF3.141566514968872
aa(lp125
F-1.3630183378802698
aF-2.2066062132464808
aF-1.3392956892596644
aF0.6104937791824341
aF1.5844875574111938
aF3.141482353210449
aa(lp126
F-1.3515761534320276
aF-2.2066062132464808
aF-1.3232954184161585
aF0.5774625539779663
aF1.5848710536956787
aF3.1415181159973145
aa(lp127
F-1.3415220419513147
aF-2.206630055104391
aF-1.3109505812274378
aF0.5719395875930786
aF1.5863440036773682
aF3.1415061950683594
aa(lp128
F-1.3326533476458948
aF-2.2067979017840784
aF-1.310075585042135
aF0.5718556642532349
aF1.5867631435394287
aF3.1414942741394043
aa(lp129
F-1.3222759405719202
aF-2.206846062337057
aF-1.3100398222552698
aF0.571747899055481
aF1.5867271423339844
aF3.141542673110962
aa(lp130
F-1.3154414335833948
aF-2.2069056669818323
aF-1.310051743184225
aF0.5716639757156372
aF1.5867152214050293
aF3.1415061950683594
aa(lp131
F-1.3089774290667933
aF-2.206989590321676
aF-1.310075585042135
aF0.5716041326522827
aF1.586739182472229
aF3.141482353210449
aa(lp132
F-1.3022149244891565
aF-2.207085434590475
aF-1.310075585042135
aF0.571532130241394
aF1.5867152214050293
aF3.1414942741394043
aa(lp133
F-1.29486591020693
aF-2.2074692885028284
aF-1.3102195898639124
aF0.5714722871780396
aF1.58669114112854
aF3.141482353210449
aa(lp134
F-1.2875874678241175
aF-2.207853142415182
aF-1.3103631178485315
aF0.5714360475540161
aF1.5867031812667847
aF3.1415061950683594
aa(lp135
F-1.285456959401266
aF-2.208344284688131
aF-1.3105672041522425
aF0.5714000463485718
aF1.5867271423339844
aF3.1415181159973145
aa(lp136
F-1.2855408827411097
aF-2.2083924452411097
aF-1.3106029669391077
aF0.5714842081069946
aF1.5866552591323853
aF3.141542673110962
aa(lp137
F-1.2855890432940882
aF-2.20844012895693
aF-1.3107588926898401
aF0.571532130241394
aF1.5866671800613403
aF3.141542673110962
aa(lp138
F-1.2856362501727503
aF-2.2083805243121546
aF-1.3108304182635706
aF0.5714961290359497
aF1.5865952968597412
aF3.1416263580322266
aa(lp139
F-1.2856481711017054
aF-2.2084043661700647
aF-1.3107827345477503
aF0.5715800523757935
aF1.5865713357925415
aF3.1416144371032715
aa(lp140
F-1.2855890432940882
aF-2.2083805243121546
aF-1.3108304182635706
aF0.5715800523757935
aF1.5865713357925415
aF3.1416263580322266
aa(lp141
F-1.2856243292437952
aF-2.2083924452411097
aF-1.3109267393695276
aF0.5715442895889282
aF1.5865473747253418
aF3.1416025161743164
aa(lp142
F-1.2856362501727503
aF-2.2083924452411097
aF-1.3110345045672815
aF0.571532130241394
aF1.5865833759307861
aF3.1416263580322266
aa(lp143
F-1.2856963316546839
aF-2.2084043661700647
aF-1.3110464254962366
aF0.571520209312439
aF1.5865833759307861
aF3.141650438308716
aa(lp144
F-1.2856963316546839
aF-2.208332363759176
aF-1.3110583464251917
aF0.5715800523757935
aF1.5865473747253418
aF3.1416025161743164
aa.