(lp0
(lp1
F-1.2384603659259241
aF-1.0988133589373987
aF-2.0255149046527308
aF-1.5566485563861292
aF1.5805836915969849
aF3.141470193862915
aa(lp2
F-1.2385080496417444
aF-1.098861042653219
aF-2.025562588368551
aF-1.5566604773150843
aF1.58054780960083
aF3.14145827293396
aa(lp3
F-1.2384842077838343
aF-1.0988009611712855
aF-2.025562588368551
aF-1.5566485563861292
aF1.5805357694625854
aF3.141482353210449
aa(lp4
F-1.2385318914996546
aF-1.0988133589373987
aF-2.0256226698504847
aF-1.5566962401019495
aF1.5805357694625854
aF3.141446352005005
aa(lp5
F-1.238556210194723
aF-1.0988252798663538
aF-2.0255864302264612
aF-1.5566723982440394
aF1.5805357694625854
aF3.14145827293396
aa(lp6
F-1.238568131123678
aF-1.0988252798663538
aF-2.0255864302264612
aF-1.556624714528219
aF1.5805717706680298
aF3.141482353210449
aa(lp7
F-1.2386038939105433
aF-1.098849121724264
aF-2.0256107489215296
aF-1.5566723982440394
aF1.5805357694625854
aF3.14145827293396
aa(lp8
F-1.2387116591082972
aF-1.0988252798663538
aF-2.0255988279925745
aF-1.556624714528219
aF1.5805118083953857
aF3.141482353210449
aa(lp9
F-1.2389629522906702
aF-1.098849121724264
aF-2.0255988279925745
aF-1.556624714528219
aF1.5805357694625854
aF3.141446352005005
aa(lp10
F-1.2390106360064905
aF-1.098849121724264
aF-2.025658909474508
aF-1.5566485563861292
aF1.5805238485336304
aF3.141470193862915
aa(lp11
F-1.2392261664019983
aF-1.098861042653219
aF-2.025670353566305
aF-1.5566604773150843
aF1.5805357694625854
aF3.141482353210449
aa(lp12
F-1.239657227193014
aF-1.0989564100848597
aF-2.0257185141192835
aF-1.5566604773150843
aF1.5803920030593872
aF3.1415061950683594
aa(lp13
F-1.2416446844684046
aF-1.099663559590475
aF-2.0259459654437464
aF-1.5566366354571741
aF1.5801531076431274
aF3.1414942741394043
aa(lp14
F-1.242399040852682
aF-1.1013653914081019
aF-2.0274537245379847
aF-1.5564687887774866
aF1.5801050662994385
aF3.1415061950683594
aa(lp15
F-1.2425544897662562
aF-1.103473965321676
aF-2.0364697615252894
aF-1.556277100239889
aF1.5793744325637817
aF3.141554594039917
aa(lp16
F-1.2431052366839808
aF-1.106002155934469
aF-2.045448605214254
aF-1.553939167653219
aF1.5764641761779785
aF3.141566514968872
aa(lp17
F-1.2432964483844202
aF-1.110147778187887
aF-2.0549543539630335
aF-1.5489276091205042
aF1.5716978311538696
aF3.141578435897827
aa(lp18
F-1.245080296193258
aF-1.1174939314471644
aF-2.0759294668780726
aF-1.5218194166766565
aF1.5612311363220215
aF3.141542673110962
aa(lp19
F-1.2531126181231897
aF-1.1239278952227991
aF-2.097706143056051
aF-1.4693663755999964
aF1.5407882928848267
aF3.141554594039917
aa(lp20
F-1.2701109091388147
aF-1.1291406790362757
aF-2.1240180174456995
aF-1.4050200621234339
aF1.5237822532653809
aF3.141542673110962
aa(lp21
F-1.2915614287005823
aF-1.1309502760516565
aF-2.1622889677630823
aF-1.3293688933001917
aF1.5218063592910767
aF3.141578435897827
aa(lp22
F-1.3097556273089808
aF-1.1329148451434534
aF-2.207261387501852
aF-1.2543895880328577
aF1.5217584371566772
aF3.1415181159973145
aa(lp23
F-1.3252084890948694
aF-1.1350720564471644
aF-2.250460449849264
aF-1.1824687162982386
aF1.5218063592910767
aF3.1414942741394043
aa(lp24
F-1.3391764799701136
aF-1.135970417653219
aF-2.287553135548727
aF-1.099687401448385
aF1.521782398223877
aF3.1414942741394043
aa(lp25
F-1.3488710562335413
aF-1.1386550108539026
aF-2.3189953009234827
aF-1.0130236784564417
aF1.521794319152832
aF3.1415061950683594
aa(lp26
F-1.3564956823932093
aF-1.141590420399801
aF-2.348581377659933
aF-0.9233410994159144
aF1.5217105150222778
aF3.141470193862915
aa(lp27
F-1.3612349669085901
aF-1.143879238759176
aF-2.379303757344381
aF-0.8247187773333948
aF1.5216145515441895
aF3.141482353210449
aa(lp28
F-1.3700440565692347
aF-1.1507814566241663
aF-2.4101927916156214
aF-0.7271059195147913
aF1.5214711427688599
aF3.1414942741394043
aa(lp29
F-1.377272907887594
aF-1.164081875477926
aF-2.4397645632373255
aF-0.6378276983844202
aF1.5213392972946167
aF3.1414942741394043
aa(lp30
F-1.386763874684469
aF-1.1845009962665003
aF-2.4668107668506067
aF-0.5517519156085413
aF1.5193750858306885
aF3.1414942741394043
aa(lp31
F-1.39943772951235
aF-1.210048023854391
aF-2.4898234049426478
aF-0.4653566519366663
aF1.5191956758499146
aF3.141482353210449
aa(lp32
F-1.4120996634112757
aF-1.2369983831988733
aF-2.5105980078326624
aF-0.375404183064596
aF1.5192196369171143
aF3.141470193862915
aa(lp33
F-1.4245222250567835
aF-1.265111271535055
aF-2.5310614744769495
aF-0.27871925035585576
aF1.5192316770553589
aF3.1415061950683594
aa(lp34
F-1.4359272162066858
aF-1.292445484791891
aF-2.5514763037311
aF-0.18360835710634404
aF1.5191956758499146
aF3.1415181159973145
aa(lp35
F-1.4445317427264612
aF-1.3175872007953089
aF-2.5682769457446497
aF-0.09988719621767217
aF1.5190998315811157
aF3.141482353210449
aa(lp36
F-1.451616112385885
aF-1.3408001104937952
aF-2.5796452204333704
aF-0.028031651173726857
aF1.5191717147827148
aF3.14145827293396
aa(lp37
F-1.4615724722491663
aF-1.3693936506854456
aF-2.5875192324267786
aF0.046648621559143066
aF1.519267201423645
aF3.141446352005005
aa(lp38
F-1.4706791082965296
aF-1.397292439137594
aF-2.5963860193835657
aF0.1104346513748169
aF1.5192316770553589
aF3.14145827293396
aa(lp39
F-1.4802878538714808
aF-1.4281523863421839
aF-2.605265204106466
aF0.17596852779388428
aF1.519267201423645
aF3.141446352005005
aa(lp40
F-1.4872286955462855
aF-1.4568193594561976
aF-2.611140314732687
aF0.23129141330718994
aF1.519434928894043
aF3.14143443107605
aa(lp41
F-1.4937503973590296
aF-1.4837849775897425
aF-2.614371363316671
aF0.2773512601852417
aF1.519482970237732
aF3.141446352005005
aa(lp42
F-1.4949467817889612
aF-1.5137713591205042
aF-2.623560969029562
aF0.32870590686798096
aF1.5194709300994873
aF3.141446352005005
aa(lp43
F-1.4951260725604456
aF-1.5473650137530726
aF-2.6335888544665735
aF0.3889502286911011
aF1.519423007965088
aF3.141446352005005
aa(lp44
F-1.4963110128985804
aF-1.5800731817828577
aF-2.6345580259906214
aF0.4475160837173462
aF1.5194469690322876
aF3.141482353210449
aa(lp45
F-1.4994705359088343
aF-1.614387337361471
aF-2.6345935503589075
aF0.5058163404464722
aF1.5195667743682861
aF3.141446352005005
aa(lp46
F-1.5035627524005335
aF-1.6465690771686
aF-2.634533945714132
aF0.5559209585189819
aF1.5196267366409302
aF3.14145827293396
aa(lp47
F-1.5040772596942347
aF-1.6843965689288538
aF-2.634402100239889
aF0.6178494691848755
aF1.5195788145065308
aF3.14145827293396
aa(lp48
F-1.5040891806231897
aF-1.7204507032977503
aF-2.6343303362475794
aF0.6807593107223511
aF1.5195907354354858
aF3.14145827293396
aa(lp49
F-1.5040414969073694
aF-1.7562177816974085
aF-2.634258810673849
aF0.7444947957992554
aF1.5196027755737305
aF3.141470193862915
aa(lp50
F-1.5041011015521448
aF-1.7918780485736292
aF-2.6340554396258753
aF0.8066238164901733
aF1.5195428133010864
aF3.14145827293396
aa(lp51
F-1.504124943410055
aF-1.8243382612811487
aF-2.6338277498828333
aF0.8614920377731323
aF1.5195428133010864
aF3.141482353210449
aa(lp52
F-1.5041130224811
aF-1.861737076436178
aF-2.6328585783587855
aF0.9230440855026245
aF1.519494891166687
aF3.141482353210449
aa(lp53
F-1.5040772596942347
aF-1.8964040915118616
aF-2.6302738825427454
aF0.9796954393386841
aF1.519482970237732
aF3.141482353210449
aa(lp54
F-1.5041487852679651
aF-1.9294770399676722
aF-2.62704307237734
aF1.033040165901184
aF1.5194469690322876
aF3.141470193862915
aa(lp55
F-1.50413686433901
aF-1.9604280630694788
aF-2.6225438753711146
aF1.0728117227554321
aF1.5193390846252441
aF3.1415061950683594
aa(lp56
F-1.504124943410055
aF-1.9886954466449183
aF-2.609823767338888
aF1.0958479642868042
aF1.5193390846252441
aF3.141482353210449
aa(lp57
F-1.504124943410055
aF-2.014313522969381
aF-2.584156338368551
aF1.1040538549423218
aF1.5192792415618896
aF3.141482353210449
aa(lp58
F-1.5041850248919886
aF-2.0351365248309534
aF-2.5550182501422327
aF1.10419762134552
aF1.5192316770553589
aF3.1415061950683594
aa(lp59
F-1.504124943410055
aF-2.0497854391681116
aF-2.5362423102008265
aF1.104533314704895
aF1.5191357135772705
aF3.141482353210449
aa(lp60
F-1.5041850248919886
aF-2.0635717550860804
aF-2.5157676378833216
aF1.1045931577682495
aF1.5186687707901
aF3.141482353210449
aa(lp61
F-1.5041607061969202
aF-2.077921692525045
aF-2.4922524134265345
aF1.1045571565628052
aF1.5167644023895264
aF3.1414942741394043
aa(lp62
F-1.5041731039630335
aF-2.091240708027975
aF-2.4668706099139612
aF1.1045812368392944
aF1.5161775350570679
aF3.1414942741394043
aa(lp63
F-1.5042088667498987
aF-2.1065853277789515
aF-2.434953514729635
aF1.1045931577682495
aF1.5161415338516235
aF3.14145827293396
aa(lp64
F-1.5041850248919886
aF-2.123549286519186
aF-2.401755396519796
aF1.1045571565628052
aF1.5161296129226685
aF3.14145827293396
aa(lp65
F-1.5041487852679651
aF-2.1393378416644495
aF-2.371943537388937
aF1.1045931577682495
aF1.5161535739898682
aF3.141470193862915
aa(lp66
F-1.5041607061969202
aF-2.1544788519488733
aF-2.345649067555563
aF1.1045571565628052
aF1.5162373781204224
aF3.141470193862915
aa(lp67
F-1.5040772596942347
aF-2.168649498616354
aF-2.3167932669269007
aF1.104533314704895
aF1.516249418258667
aF3.1414942741394043
aa(lp68
F-1.5040891806231897
aF-2.1772335211383265
aF-2.288774077092306
aF1.1042577028274536
aF1.5162134170532227
aF3.141470193862915
aa(lp69
F-1.5040653387652796
aF-2.177833382283346
aF-2.26597243944277
aF1.104077935218811
aF1.516249418258667
aF3.141470193862915
aa(lp70
F-1.5040295759784144
aF-2.1779053846942347
aF-2.2472527662860315
aF1.1034430265426636
aF1.5162733793258667
aF3.14145827293396
aa(lp71
F-1.5040176550494593
aF-2.177953068410055
aF-2.228579823170797
aF1.1017297506332397
aF1.5162733793258667
aF3.14143443107605
aa(lp72
F-1.5040414969073694
aF-2.1782048384295862
aF-2.202905003224508
aF1.1005080938339233
aF1.5162134170532227
aF3.14143443107605
aa(lp73
F-1.5042088667498987
aF-2.1828201452838343
aF-2.170920197163717
aF1.0952612161636353
aF1.5156385898590088
aF3.141350507736206
aa(lp74
F-1.5041969458209437
aF-2.1977227369891565
aF-2.130782429371969
aF1.068703055381775
aF1.5139743089675903
aF3.141362428665161
aa(lp75
F-1.5042327086078089
aF-2.219386402760641
aF-2.089457337056295
aF1.0211085081100464
aF1.5137585401535034
aF3.141362428665161
aa(lp76
F-1.5041850248919886
aF-2.237561051045553
aF-2.0496390501605433
aF0.9791086912155151
aF1.5136866569519043
aF3.141338348388672
aa(lp77
F-1.504256550465719
aF-2.255328957234518
aF-2.0065739790545862
aF0.9420195817947388
aF1.5137585401535034
aF3.141374349594116
aa(lp78
F-1.5042808691607874
aF-2.2695239225970667
aF-1.9681757132159632
aF0.9238227605819702
aF1.5137226581573486
aF3.141362428665161
aa(lp79
F-1.5042923132525843
aF-2.2782157103167933
aF-1.9343741575824183
aF0.9203964471817017
aF1.5137345790863037
aF3.141362428665161
aa(lp80
F-1.5050466696368616
aF-2.2827118078814905
aF-1.9023545424090784
aF0.9201446771621704
aF1.5136866569519043
aF3.141350507736206
aa(lp81
F-1.507439915333883
aF-2.2850616613971155
aF-1.8732569853412073
aF0.9180601835250854
aF1.5131956338882446
aF3.141326427459717
aa(lp82
F-1.514703098927633
aF-2.285097901021139
aF-1.8393662611590784
aF0.915340781211853
aF1.5132197141647339
aF3.1412785053253174
aa(lp83
F-1.5210092703448694
aF-2.285037342702047
aF-1.8096306959735315
aF0.9132562875747681
aF1.5132795572280884
aF3.1411945819854736
aa(lp84
F-1.5261181036578577
aF-2.284989658986227
aF-1.7840731779681605
aF0.906619668006897
aF1.5133395195007324
aF3.1411945819854736
aa(lp85
F-1.5292051474200647
aF-2.284653965626852
aF-1.7576888243304651
aF0.8910461664199829
aF1.5132795572280884
aF3.1411826610565186
aa(lp86
F-1.5293009916888636
aF-2.2842705885516565
aF-1.726715389882223
aF0.8629773855209351
aF1.513303518295288
aF3.1411945819854736
aa(lp87
F-1.5292533079730433
aF-2.281513039265768
aF-1.6906259695636194
aF0.8329795598983765
aF1.5133514404296875
aF3.141218662261963
aa(lp88
F-1.5291693846331995
aF-2.277149025593893
aF-1.6557090918170374
aF0.8215509653091431
aF1.5134832859039307
aF3.141206741333008
aa(lp89
F-1.5291455427752894
aF-2.269787613545553
aF-1.628528896962301
aF0.8215509653091431
aF1.5134953260421753
aF3.1411585807800293
aa(lp90
F-1.5290973822223108
aF-2.260376278554098
aF-1.6063903013812464
aF0.8215509653091431
aF1.5136032104492188
aF3.141146659851074
aa(lp91
F-1.5289900938617151
aF-2.2504852453814905
aF-1.5875580946551722
aF0.8215152025222778
aF1.5137945413589478
aF3.1411349773406982
aa(lp92
F-1.5283797422992151
aF-2.239012066517965
aF-1.570953671132223
aF0.8214672803878784
aF1.51399827003479
aF3.141146659851074
aa(lp93
F-1.5279610792743128
aF-2.225584332142965
aF-1.5572002569781702
aF0.8213955163955688
aF1.5142850875854492
aF3.141123056411743
aa(lp94
F-1.5266206900226038
aF-2.20881158510317
aF-1.546549145375387
aF0.8195861577987671
aF1.5149319171905518
aF3.1410512924194336
aa(lp95
F-1.5254843870746058
aF-2.192770783101217
aF-1.5402949492083948
aF0.8111404180526733
aF1.516728401184082
aF3.1410391330718994
aa(lp96
F-1.5232699553119105
aF-2.1791637579547327
aF-1.5326035658465784
aF0.7793930768966675
aF1.5180100202560425
aF3.140883445739746
aa(lp97
F-1.5187237898456019
aF-2.1663363615619105
aF-1.5239651838885706
aF0.7350782155990601
aF1.52095627784729
aF3.1406917572021484
aa(lp98
F-1.5094259420977991
aF-2.1560500303851526
aF-1.508808437977926
aF0.6904276609420776
aF1.5213273763656616
aF3.14050030708313
aa(lp99
F-1.4991348425494593
aF-2.1523454825030726
aF-1.486810032521383
aF0.6518985033035278
aF1.5223811864852905
aF3.140428304672241
aa(lp100
F-1.4865348974811
aF-2.1484249273883265
aF-1.4669917265521448
aF0.6134167909622192
aF1.5243455171585083
aF3.140404462814331
aa(lp101
F-1.4726889769183558
aF-2.141315762196676
aF-1.451042954121725
aF0.5747069120407104
aF1.5248844623565674
aF3.140260696411133
aa(lp102
F-1.460076634083883
aF-2.1342785994159144
aF-1.4428108374225062
aF0.5504938364028931
aF1.5251357555389404
aF3.140188694000244
aa(lp103
F-1.4455607573138636
aF-2.1283806006061
aF-1.4404380957232874
aF0.5384167432785034
aF1.5251357555389404
aF3.140176773071289
aa(lp104
F-1.4343474547015589
aF-2.1256349722491663
aF-1.4360407034503382
aF0.5384167432785034
aF1.5251476764678955
aF3.140200614929199
aa(lp105
F-1.4222243467914026
aF-2.1217506567584437
aF-1.4345787207232874
aF0.538368821144104
aF1.5251117944717407
aF3.1401288509368896
aa(lp106
F-1.408832852040426
aF-2.119892422352926
aF-1.4334881941424769
aF0.5384167432785034
aF1.5251237154006958
aF3.1401407718658447
aa(lp107
F-1.393477741871969
aF-2.119868580495016
aF-1.4318583647357386
aF0.5383807420730591
aF1.5249918699264526
aF3.1401407718658447
aa(lp108
F-1.3798101584063929
aF-2.1199405829059046
aF-1.4293058554278772
aF0.5383569002151489
aF1.5250158309936523
aF3.140164852142334
aa(lp109
F-1.3664177099811
aF-2.11997634569277
aF-1.422607723866598
aF0.5382250547409058
aF1.5250039100646973
aF3.1401047706604004
aa(lp110
F-1.3527973333941858
aF-2.120204273854391
aF-1.4140155951129358
aF0.5373145341873169
aF1.5249918699264526
aF3.1399734020233154
aa(lp111
F-1.3384345213519495
aF-2.120216194783346
aF-1.4091504255877894
aF0.5365959405899048
aF1.524967908859253
aF3.1399013996124268
aa(lp112
F-1.3239753882037562
aF-2.120563809071676
aF-1.4090665022479456
aF0.5329893827438354
aF1.5249199867248535
aF3.139913558959961
aa(lp113
F-1.3125093618976038
aF-2.120672051106588
aF-1.4090545813189905
aF0.5257886648178101
aF1.5249320268630981
aF3.139913558959961
aa(lp114
F-1.300347630177633
aF-2.1209476629840296
aF-1.4090784231769007
aF0.5155209302902222
aF1.5249199867248535
aF3.1398894786834717
aa(lp115
F-1.2873724142657679
aF-2.1210315863238733
aF-1.409114185963766
aF0.4935358762741089
aF1.5249199867248535
aF3.1399013996124268
aa(lp116
F-1.2773764769183558
aF-2.12099534669985
aF-1.4090302626239222
aF0.46699750423431396
aF1.524848461151123
aF3.1398894786834717
aa(lp117
F-1.2706735769854944
aF-2.1210911909686487
aF-1.4090545813189905
aF0.44569456577301025
aF1.5248125791549683
aF3.139913558959961
aa(lp118
F-1.2652986685382288
aF-2.1210435072528284
aF-1.409018341694967
aF0.44453227519989014
aF1.524836540222168
aF3.139913558959961
aa(lp119
F-1.2621386686908167
aF-2.1210673491107386
aF-1.4090784231769007
aF0.4445563554763794
aF1.5248605012893677
aF3.1399013996124268
aa(lp120
F-1.2621386686908167
aF-2.1210911909686487
aF-1.4091022650348108
aF0.4445682764053345
aF1.5248245000839233
aF3.139949321746826
aa(lp121
F-1.262317959462301
aF-2.1210792700396937
aF-1.4091504255877894
aF0.44453227519989014
aF1.524776577949524
aF3.1399614810943604
aa(lp122
F-1.2623422781573694
aF-2.1210673491107386
aF-1.4093778769122522
aF0.44453227519989014
aF1.5248605012893677
aF3.1399970054626465
aa(lp123
F-1.262306038533346
aF-2.1210792700396937
aF-1.4095333258258265
aF0.4445563554763794
aF1.5248605012893677
aF3.140033006668091
aa(lp124
F-1.262294117604391
aF-2.1210792700396937
aF-1.4095094839679163
aF0.4445444345474243
aF1.5248125791549683
aF3.1399970054626465
aa(lp125
F-1.2623661200152796
aF-2.1210792700396937
aF-1.4095452467547815
aF0.4445444345474243
aF1.524836540222168
aF3.140056848526001
aa(lp126
F-1.2624262014972132
aF-2.1210911909686487
aF-1.4095452467547815
aF0.4445444345474243
aF1.5248245000839233
aF3.140044927597046
aa(lp127
F-1.2624381224261683
aF-2.121115509663717
aF-1.4096177260028284
aF0.44450843334198
aF1.524836540222168
aF3.140033006668091
aa(lp128
F-1.2623780409442347
aF-2.1210673491107386
aF-1.4095938841449183
aF0.4445444345474243
aF1.524836540222168
aF3.140033006668091
aa(lp129
F-1.2624018828021448
aF-2.1210911909686487
aF-1.4095938841449183
aF0.4445563554763794
aF1.5248245000839233
aF3.140056848526001
aa(lp130
F-1.2624018828021448
aF-2.1210911909686487
aF-1.409581486378805
aF0.44453227519989014
aF1.5248005390167236
aF3.140044927597046
aa(lp131
F-1.2624381224261683
aF-2.1210911909686487
aF-1.4095938841449183
aF0.4445563554763794
aF1.5248125791549683
aF3.140033006668091
aa.