(lp0
(lp1
F-1.2377899328814905
aF-1.0988133589373987
aF-2.0253594557391565
aF-1.5565527121173304
aF1.5805597305297852
aF3.1415905952453613
aa(lp2
F-1.2377780119525355
aF-1.0988133589373987
aF-2.0253713766681116
aF-1.5565407911883753
aF1.5805717706680298
aF3.1416025161743164
aa(lp3
F-1.2378376165973108
aF-1.0988372007953089
aF-2.0255864302264612
aF-1.5565765539752405
aF1.5804519653320312
aF3.1416025161743164
aa(lp4
F-1.2378857771502894
aF-1.0989092032061976
aF-2.027932945881979
aF-1.556420628224508
aF1.5802006721496582
aF3.1416025161743164
aa(lp5
F-1.237969700490133
aF-1.0992682615863245
aF-2.037786308919088
aF-1.5563367048846644
aF1.5794823169708252
aF3.141650438308716
aa(lp6
F-1.2382448355304163
aF-1.0998075644122522
aF-2.0543440024005335
aF-1.5547784010516565
aF1.5760570764541626
aF3.141650438308716
aa(lp7
F-1.238807503377096
aF-1.1001065413104456
aF-2.0787785688983362
aF-1.544551197682516
aF1.5681052207946777
aF3.141662359237671
aa(lp8
F-1.2388432661639612
aF-1.1006587187396448
aF-2.1081326643573206
aF-1.4961264769183558
aF1.5543094873428345
aF3.14168643951416
aa(lp9
F-1.2388790289508265
aF-1.1007540861712855
aF-2.138611141835348
aF-1.394205395375387
aF1.5119980573654175
aF3.141674280166626
aa(lp10
F-1.2388671080218714
aF-1.1011255423175257
aF-2.1708720366107386
aF-1.2563799063311976
aF1.454200029373169
aF3.1416144371032715
aa(lp11
F-1.2388313452350062
aF-1.1021440664874476
aF-2.2132108847247522
aF-1.1190131346331995
aF1.3997293710708618
aF3.1416263580322266
aa(lp12
F-1.2388671080218714
aF-1.104947868977682
aF-2.272783104573385
aF-0.9861581961261194
aF1.3573778867721558
aF3.141650438308716
aa(lp13
F-1.238807503377096
aF-1.1078360716449183
aF-2.3263917605029505
aF-0.8745868841754358
aF1.3369560241699219
aF3.141650438308716
aa(lp14
F-1.238819424306051
aF-1.1114662329303187
aF-2.3765152136432093
aF-0.7507203261004847
aF1.333674669265747
aF3.141650438308716
aa(lp15
F-1.2388432661639612
aF-1.115516487752096
aF-2.413914505635397
aF-0.6268356482135218
aF1.333614706993103
aF3.14168643951416
aa(lp16
F-1.2388313452350062
aF-1.1181281248675745
aF-2.436413828526632
aF-0.5156262556659144
aF1.3336507081985474
aF3.141650438308716
aa(lp17
F-1.238819424306051
aF-1.118164364491598
aF-2.440829579030172
aF-0.4594958464251917
aF1.3336865901947021
aF3.1416025161743164
aa(lp18
F-1.238819424306051
aF-1.1189916769610804
aF-2.4432829062091272
aF-0.4527233282672327
aF1.3337105512619019
aF3.1416385173797607
aa(lp19
F-1.2388432661639612
aF-1.1291049162494105
aF-2.458181921635763
aF-0.450937573109762
aF1.3336386680603027
aF3.14168643951416
aa(lp20
F-1.2388790289508265
aF-1.1504576841937464
aF-2.487657610570089
aF-0.43185645738710576
aF1.3323811292648315
aF3.1416983604431152
aa(lp21
F-1.2389510313617151
aF-1.1785691420184534
aF-2.516437594090597
aF-0.37331849733461553
aF1.3254934549331665
aF3.141674280166626
aa(lp22
F-1.2390225569354456
aF-1.2182686964618128
aF-2.538719717656271
aF-0.2545817534076136
aF1.315109133720398
aF3.1417102813720703
aa(lp23
F-1.2390225569354456
aF-1.256531063710348
aF-2.545097891484396
aF-0.14232284227480108
aF1.3022445440292358
aF3.141650438308716
aa(lp24
F-1.2389867941485804
aF-1.306946102772848
aF-2.5451694170581263
aF-0.032141987477437794
aF1.2807923555374146
aF3.1416263580322266
aa(lp25
F-1.2389748732196253
aF-1.3611725012408655
aF-2.5453253428088587
aF0.04842221736907959
aF1.2754979133605957
aF3.1416385173797607
aa(lp26
F-1.2390225569354456
aF-1.423945728932516
aF-2.5455766359912317
aF0.1221780776977539
aF1.2755095958709717
aF3.1416385173797607
aa(lp27
F-1.2390344778644007
aF-1.483293358479635
aF-2.5457800070392054
aF0.19227683544158936
aF1.275462031364441
aF3.141674280166626
aa(lp28
F-1.2389987150775355
aF-1.543518368397848
aF-2.5453971068011683
aF0.2666991949081421
aF1.2754499912261963
aF3.1416983604431152
aa(lp29
F-1.2390463987933558
aF-1.5986865202533167
aF-2.5448108355151575
aF0.34121525287628174
aF1.275473952293396
aF3.141674280166626
aa(lp30
F-1.239058796559469
aF-1.6563852469073694
aF-2.5438414255725306
aF0.43081390857696533
aF1.2754260301589966
aF3.1416983604431152
aa(lp31
F-1.2391427198993128
aF-1.7115328947650355
aF-2.5415318647967737
aF0.5201936960220337
aF1.2754260301589966
aF3.141674280166626
aa(lp32
F-1.2391307989703577
aF-1.768468205128805
aF-2.537858311329977
aF0.6071029901504517
aF1.275462031364441
aF3.141662359237671
aa(lp33
F-1.239190403615133
aF-1.8203824202166956
aF-2.527195755635397
aF0.665124773979187
aF1.2754380702972412
aF3.141662359237671
aa(lp34
F-1.2392142454730433
aF-1.8569424788104456
aF-2.5118425528155726
aF0.6809631586074829
aF1.2754979133605957
aF3.141662359237671
aa(lp35
F-1.239310089741842
aF-1.8873656431781214
aF-2.4876695314990442
aF0.680855393409729
aF1.2754979133605957
aF3.14168643951416
aa(lp36
F-1.2411659399615687
aF-1.9074085394488733
aF-2.4545443693744105
aF0.6807714700698853
aF1.2754979133605957
aF3.141674280166626
aa(lp37
F-1.2432845274554651
aF-1.926528278981344
aF-2.415542189274923
aF0.680747389793396
aF1.2755814790725708
aF3.1416385173797607
aa(lp38
F-1.2431772390948694
aF-1.9494717756854456
aF-2.3828941027270716
aF0.6808074712753296
aF1.2762045860290527
aF3.1416385173797607
aa(lp39
F-1.2431772390948694
aF-1.976168457661764
aF-2.364331308995382
aF0.6808792352676392
aF1.276180624961853
aF3.1416263580322266
aa(lp40
F-1.243152920399801
aF-2.0076478163348597
aF-2.34760028520693
aF0.6809271574020386
aF1.2761447429656982
aF3.141650438308716
aa(lp41
F-1.243260685597555
aF-2.040506664906637
aF-2.3170440832721155
aF0.6813226938247681
aF1.2760488986968994
aF3.1416385173797607
aa(lp42
F-1.2435477415667933
aF-2.070285145436422
aF-2.2670615355121058
aF0.6873964071273804
aF1.2758331298828125
aF3.141662359237671
aa(lp43
F-1.2464330832110804
aF-2.0880520979510706
aF-2.2194111982928675
aF0.7233973741531372
aF1.27565336227417
aF3.1416385173797607
aa(lp44
F-1.2583916823016565
aF-2.094645325337545
aF-2.1838839689837855
aF0.7969917058944702
aF1.2755454778671265
aF3.141578435897827
aa(lp45
F-1.2812674681292933
aF-2.0955684820758265
aF-2.155609909688131
aF0.887116551399231
aF1.2756294012069702
aF3.1415905952453613
aa(lp46
F-1.3056023756610315
aF-2.097546402608053
aF-2.127406422291891
aF0.9349755048751831
aF1.2758331298828125
aF3.141578435897827
aa(lp47
F-1.3351429144488733
aF-2.103493038808004
aF-2.086787525807516
aF0.9405699968338013
aF1.276168704032898
aF3.141578435897827
aa(lp48
F-1.3608759085284632
aF-2.1171472708331507
aF-2.0448735396014612
aF0.9406179189682007
aF1.2765278816223145
aF3.141578435897827
aa(lp49
F-1.3824551741229456
aF-2.138510529194967
aF-2.0003836790667933
aF0.9405938386917114
aF1.2774502038955688
aF3.141566514968872
aa(lp50
F-1.3992345968829554
aF-2.1642378012286585
aF-1.9502509276019495
aF0.9406417608261108
aF1.2786003351211548
aF3.1416025161743164
aa(lp51
F-1.4098976294146937
aF-2.1920159498797815
aF-1.897181812916891
aF0.9406417608261108
aF1.2788995504379272
aF3.1416144371032715
aa(lp52
F-1.4165518919574183
aF-2.224984947835104
aF-1.8421805540667933
aF0.9404741525650024
aF1.2788516283035278
aF3.1415905952453613
aa(lp53
F-1.4211233297931116
aF-2.2606762091266077
aF-1.7912471930133265
aF0.9403902292251587
aF1.278815746307373
aF3.1416385173797607
aa(lp54
F-1.4295724073993128
aF-2.291943375264303
aF-1.750190560017721
aF0.9403187036514282
aF1.2788276672363281
aF3.1416025161743164
aa(lp55
F-1.4465778509723108
aF-2.3262203375445765
aF-1.7028802076922815
aF0.9401868581771851
aF1.2787917852401733
aF3.1416144371032715
aa(lp56
F-1.4711692968951624
aF-2.354191605244772
aF-1.648905102406637
aF0.939947247505188
aF1.2788995504379272
aF3.1416025161743164
aa(lp57
F-1.4916566053973597
aF-2.3713606039630335
aF-1.593008820210592
aF0.9397314786911011
aF1.2791632413864136
aF3.1416025161743164
aa(lp58
F-1.51015550294985
aF-2.3826425711261194
aF-1.5193279425250452
aF0.9392999410629272
aF1.28038489818573
aF3.141578435897827
aa(lp59
F-1.5212362448321741
aF-2.3843324820147913
aF-1.4491141478167933
aF0.9388090372085571
aF1.2835228443145752
aF3.141578435897827
aa(lp60
F-1.5268004576312464
aF-2.3843205610858362
aF-1.3828943411456507
aF0.9384738206863403
aF1.2911051511764526
aF3.141578435897827
aa(lp61
F-1.5271833578692835
aF-2.384296719227926
aF-1.3226001898394983
aF0.9371200799942017
aF1.3200076818466187
aF3.1416025161743164
aa(lp62
F-1.5273030439959925
aF-2.3839853445636194
aF-1.271853272114889
aF0.936353325843811
aF1.381500244140625
aF3.1416263580322266
aa(lp63
F-1.527518097554342
aF-2.3831823507892054
aF-1.2308953444110315
aF0.9364131689071655
aF1.4457926750183105
aF3.1415905952453613
aa(lp64
F-1.5278413931476038
aF-2.381827179585592
aF-1.1823232809649866
aF0.9363774061203003
aF1.5206207036972046
aF3.1415905952453613
aa(lp65
F-1.5278056303607386
aF-2.3813117186175745
aF-1.1397894064532679
aF0.9363294839859009
aF1.5965235233306885
aF3.1416263580322266
aa(lp66
F-1.5278056303607386
aF-2.381263558064596
aF-1.1010773817645472
aF0.9361616373062134
aF1.689139485359192
aF3.1415905952453613
aa(lp67
F-1.5278056303607386
aF-2.381263558064596
aF-1.0717509428607386
aF0.934735894203186
aF1.7784582376480103
aF3.1416144371032715
aa(lp68
F-1.5277932325946253
aF-2.3812277952777308
aF-1.047267262135641
aF0.9307230710983276
aF1.874562382698059
aF3.1416144371032715
aa(lp69
F-1.5277932325946253
aF-2.3811915556537073
aF-1.0321834723102015
aF0.9288781881332397
aF1.9527508020401
aF3.1416385173797607
aa(lp70
F-1.527613941823141
aF-2.3814433256732386
aF-1.0263078848468226
aF0.928902268409729
aF2.01853346824646
aF3.1416385173797607
aa(lp71
F-1.5275781790362757
aF-2.3816593329059046
aF-1.0264156500445765
aF0.9289261102676392
aF2.05623722076416
aF3.141662359237671
aa(lp72
F-1.527613941823141
aF-2.3816354910479944
aF-1.0264037291156214
aF0.9289380311965942
aF2.0705575942993164
aF3.1416144371032715
aa(lp73
F-1.5276616255389612
aF-2.3815153280841272
aF-1.0262959639178675
aF0.9267452955245972
aF2.0705811977386475
aF3.141662359237671
aa(lp74
F-1.5275662581073206
aF-2.3811915556537073
aF-1.0261042753802698
aF0.8900998830795288
aF2.0706052780151367
aF3.1416025161743164
aa(lp75
F-1.5274704138385218
aF-2.380280319844381
aF-1.0256603399859827
aF0.7984775304794312
aF2.070653200149536
aF3.1416385173797607
aa(lp76
F-1.5269439856158655
aF-2.377091709767477
aF-1.0250371138202112
aF0.6598416566848755
aF2.071790933609009
aF3.1416263580322266
aa(lp77
F-1.525998894368307
aF-2.368758503590719
aF-1.0232141653644007
aF0.5287245512008667
aF2.077669620513916
aF3.141566514968872
aa(lp78
F-1.525400463734762
aF-2.353424374257223
aF-1.0218713919269007
aF0.426680326461792
aF2.089714527130127
aF3.141566514968872
aa(lp79
F-1.5253523031817835
aF-2.335320297871725
aF-1.021560017262594
aF0.34833240509033203
aF2.128376007080078
aF3.1415061950683594
aa(lp80
F-1.525388542805807
aF-2.3167250792132776
aF-1.0214760939227503
aF0.2687242031097412
aF2.1938207149505615
aF3.1415181159973145
aa(lp81
F-1.5253523031817835
aF-2.3049758116351526
aF-1.0214880148517054
aF0.19463765621185303
aF2.2551345825195312
aF3.1415061950683594
aa(lp82
F-1.5253289381610315
aF-2.300192181264059
aF-1.0214398542987269
aF0.1146167516708374
aF2.2877252101898193
aF3.1415061950683594
aa(lp83
F-1.5253761450396937
aF-2.30007249513735
aF-1.0214036146747034
aF0.03857231140136719
aF2.2888028621673584
aF3.1414942741394043
aa(lp84
F-1.525292698537008
aF-2.299113098775045
aF-1.0129264036761683
aF-0.010500256215230763
aF2.289102077484131
aF3.141206741333008
aa(lp85
F-1.5246222654925745
aF-2.299088780079977
aF-1.0024102369891565
aF-0.026905361806051076
aF2.2891979217529297
aF3.141206741333008
aa(lp86
F-1.5246465841876429
aF-2.299113098775045
aF-1.0019305388080042
aF-0.054587666188375294
aF2.289341688156128
aF3.141242504119873
aa(lp87
F-1.5246222654925745
aF-2.299088780079977
aF-1.000239674245016
aF-0.0553668181048792
aF2.2893896102905273
aF3.141206741333008
aa(lp88
F-1.524670426045553
aF-2.299076859151022
aF-1.000239674245016
aF-0.055163208638326466
aF2.289341688156128
aF3.1412665843963623
aa(lp89
F-1.5247061888324183
aF-2.299076859151022
aF-1.0002277533160608
aF-0.05474311510194951
aF2.2893176078796387
aF3.1412785053253174
aa(lp90
F-1.524802033101217
aF-2.299100701008932
aF-1.0002277533160608
aF-0.054755512868062794
aF2.2892818450927734
aF3.1413025856018066
aa(lp91
F-1.5248616377459925
aF-2.2990649382220667
aF-1.0002277533160608
aF-0.05470735231508428
aF2.2893056869506836
aF3.1412785053253174
aa(lp92
F-1.5248859564410608
aF-2.2990530172931116
aF-1.0002158323871058
aF-0.054671589528219044
aF2.2892696857452393
aF3.1413025856018066
aa(lp93
F-1.5248497168170374
aF-2.299076859151022
aF-1.0002158323871058
aF-0.0546954313861292
aF2.2892937660217285
aF3.1412785053253174
aa(lp94
F-1.5248735586749476
aF-2.299100701008932
aF-1.0002277533160608
aF-0.05473167101015264
aF2.2892937660217285
aF3.141338348388672
aa(lp95
F-1.5248735586749476
aF-2.299088780079977
aF-1.0002277533160608
aF-0.05468351045717412
aF2.2892696857452393
aF3.1412785053253174
aa(lp96
F-1.5248735586749476
aF-2.299100701008932
aF-1.000251595173971
aF-0.054659668599263966
aF2.289257764816284
aF3.1413025856018066
aa(lp97
F-1.5248377958880823
aF-2.299100701008932
aF-1.0002277533160608
aF-0.0546954313861292
aF2.289257764816284
aF3.141326427459717
aa.