(lp0
(lp1
F-1.237706486378805
aF-1.0988972822772425
aF-2.025395218526022
aF-1.556420628224508
aF1.5806196928024292
aF3.1416385173797607
aa(lp2
F-1.237706486378805
aF-1.0989449659930628
aF-2.025442902241842
aF-1.5564325491534632
aF1.58054780960083
aF3.141650438308716
aa(lp3
F-1.2376583258258265
aF-1.0990164915667933
aF-2.0260775724994105
aF-1.5564325491534632
aF1.5804638862609863
aF3.141650438308716
aa(lp4
F-1.237706486378805
aF-1.0990403334247034
aF-2.027382198964254
aF-1.5564444700824183
aF1.580427885055542
aF3.1416263580322266
aa(lp5
F-1.237741772328512
aF-1.0990403334247034
aF-2.029525105153219
aF-1.5564444700824183
aF1.580415964126587
aF3.141674280166626
aa(lp6
F-1.2376940886126917
aF-1.0990403334247034
aF-2.032123390828268
aF-1.5564325491534632
aF1.580427885055542
aF3.14168643951416
aa(lp7
F-1.2376821676837366
aF-1.0990765730487269
aF-2.0323270002948206
aF-1.5564444700824183
aF1.5804519653320312
aF3.141674280166626
aa(lp8
F-1.2376702467547815
aF-1.0992682615863245
aF-2.0332492033587855
aF-1.556408707295553
aF1.5804638862609863
aF3.14168643951416
aa(lp9
F-1.2376940886126917
aF-1.1009700934039515
aF-2.037786308919088
aF-1.5562527815448206
aF1.5805118083953857
aF3.14168643951416
aa(lp10
F-1.2376940886126917
aF-1.1038335005389612
aF-2.047556225453512
aF-1.5556653181659144
aF1.5805118083953857
aF3.1418297290802
aa(lp11
F-1.2376702467547815
aF-1.1085785071002405
aF-2.0772107283221644
aF-1.5456422011004847
aF1.5806317329406738
aF3.142045497894287
aa(lp12
F-1.23771840730776
aF-1.1161397139178675
aF-2.1151121298419397
aF-1.4994352499591272
aF1.5806796550750732
aF3.1423451900482178
aa(lp13
F-1.2376702467547815
aF-1.128265682850973
aF-2.168849293385641
aF-1.3922637144671839
aF1.5806076526641846
aF3.1423451900482178
aa(lp14
F-1.23771840730776
aF-1.1451132933246058
aF-2.2271435896502894
aF-1.270334545766012
aF1.5806915760040283
aF3.1423211097717285
aa(lp15
F-1.2376225630389612
aF-1.1618650595294397
aF-2.2766130606280726
aF-1.164605442677633
aF1.5806796550750732
aF3.142357110977173
aa(lp16
F-1.2376940886126917
aF-1.1826437155352991
aF-2.3296831289874476
aF-1.0435336271869105
aF1.5807515382766724
aF3.1423091888427734
aa(lp17
F-1.237706486378805
aF-1.2024748961078089
aF-2.372110907231466
aF-0.9369710127459925
aF1.5807515382766724
aF3.142273187637329
aa(lp18
F-1.2376464048968714
aF-1.2219598929034632
aF-2.409450356160299
aF-0.8356989065753382
aF1.5807991027832031
aF3.1423211097717285
aa(lp19
F-1.2376702467547815
aF-1.242678467427389
aF-2.4427323977099817
aF-0.7341783682452601
aF1.5807515382766724
aF3.1423330307006836
aa(lp20
F-1.2376702467547815
aF-1.2676518599139612
aF-2.4765878359424036
aF-0.6232875029193323
aF1.5807991027832031
aF3.1422972679138184
aa(lp21
F-1.2376583258258265
aF-1.2941353956805628
aF-2.507977310811178
aF-0.5151942412005823
aF1.5808470249176025
aF3.1423211097717285
aa(lp22
F-1.2376821676837366
aF-1.3256166617022913
aF-2.5389471689807337
aF-0.3893068472491663
aF1.5810267925262451
aF3.1423330307006836
aa(lp23
F-1.2376702467547815
aF-1.3572056929217737
aF-2.5621264616595667
aF-0.26649505296816045
aF1.5810147523880005
aF3.1423330307006836
aa(lp24
F-1.2376940886126917
aF-1.3923314253436487
aF-2.581176821385519
aF-0.14179546037782842
aF1.5809907913208008
aF3.1423330307006836
aa(lp25
F-1.2376583258258265
aF-1.4352715651141565
aF-2.5966132322894495
aF-0.009253803883687794
aF1.5809788703918457
aF3.1423211097717285
aa(lp26
F-1.237706486378805
aF-1.4803932348834437
aF-2.6027279535876673
aF0.11097431182861328
aF1.5808830261230469
aF3.1423330307006836
aa(lp27
F-1.237706486378805
aF-1.5286806265460413
aF-2.6027758757220667
aF0.22460532188415527
aF1.5809069871902466
aF3.1423451900482178
aa(lp28
F-1.2376702467547815
aF-1.5841720739947718
aF-2.6024768988238733
aF0.33851921558380127
aF1.580834984779358
aF3.142381191253662
aa(lp29
F-1.2376821676837366
aF-1.6372078100787562
aF-2.6015432516681116
aF0.43972790241241455
aF1.5808110237121582
aF3.142392635345459
aa(lp30
F-1.2377656141864222
aF-1.6854870955096644
aF-2.5976064840899866
aF0.5321389436721802
aF1.5805118083953857
aF3.1424286365509033
aa(lp31
F-1.2377656141864222
aF-1.7415946165667933
aF-2.5825768152820032
aF0.6281167268753052
aF1.5799493789672852
aF3.142404556274414
aa(lp32
F-1.2380412260638636
aF-1.797272030507223
aF-2.5508177916156214
aF0.6987656354904175
aF1.57816481590271
aF3.1424167156219482
aa(lp33
F-1.2385438124286097
aF-1.8481562773333948
aF-2.506002728139059
aF0.7321668863296509
aF1.5748714208602905
aF3.1424167156219482
aa(lp34
F-1.23891526857485
aF-1.8971832434283655
aF-2.449841086064474
aF0.7375339269638062
aF1.570572018623352
aF3.142392635345459
aa(lp35
F-1.2390831152545374
aF-1.9450481573687952
aF-2.383169476185934
aF0.7380253076553345
aF1.5649195909500122
aF3.1424405574798584
aa(lp36
F-1.2392142454730433
aF-1.9865854422198694
aF-2.30940825143923
aF0.7413321733474731
aF1.5602251291275024
aF3.1424405574798584
aa(lp37
F-1.2392261664019983
aF-2.018017594014303
aF-2.2369349638568323
aF0.7463520765304565
aF1.5535787343978882
aF3.1424405574798584
aa(lp38
F-1.2392142454730433
aF-2.0395358244525355
aF-2.167927090321676
aF0.7471786737442017
aF1.5500097274780273
aF3.142392635345459
aa(lp39
F-1.2391546408282679
aF-2.0469682852374476
aF-2.1107781569110315
aF0.7471905946731567
aF1.5497944355010986
aF3.1423211097717285
aa(lp40
F-1.2391188780414026
aF-2.0437076727496546
aF-2.0628207365619105
aF0.747334361076355
aF1.5498183965682983
aF3.1423451900482178
aa(lp41
F-1.2386873404132288
aF-2.0367544333087366
aF-2.0140207449542444
aF0.7473584413528442
aF1.5498902797698975
aF3.1423091888427734
aa(lp42
F-1.237753693257467
aF-2.021625820790426
aF-1.9557350317584437
aF0.7473944425582886
aF1.5499258041381836
aF3.142249345779419
aa(lp43
F-1.2373350302325647
aF-2.000467125569479
aF-1.9049533049212855
aF0.7473224401473999
aF1.5499258041381836
aF3.1421773433685303
aa(lp44
F-1.2366049925433558
aF-1.9710138479815882
aF-1.857629124318258
aF0.7472385168075562
aF1.550033688545227
aF3.142129421234131
aa(lp45
F-1.2358024756061
aF-1.9391143957721155
aF-1.8174265066729944
aF0.7464598417282104
aF1.5500097274780273
aF3.1415905952453613
aa(lp46
F-1.2357905546771448
aF-1.9160869757281702
aF-1.7759411970721644
aF0.7441834211349487
aF1.549961805343628
aF3.140871524810791
aa(lp47
F-1.2357428709613245
aF-1.9123948256122034
aF-1.7231701056109827
aF0.7407454252243042
aF1.5500097274780273
aF3.139697790145874
aa(lp48
F-1.2356351057635706
aF-1.9172256628619593
aF-1.6766355673419397
aF0.7194322347640991
aF1.5499497652053833
aF3.1384401321411133
aa(lp49
F-1.235671345387594
aF-1.9272354284869593
aF-1.6245396772967737
aF0.6509639024734497
aF1.5499258041381836
aF3.1367275714874268
aa(lp50
F-1.2357185522662562
aF-1.9422910849200647
aF-1.5762608687030237
aF0.5462402105331421
aF1.5496265888214111
aF3.135925054550171
aa(lp51
F-1.2357547918902796
aF-1.9678610006915491
aF-1.528421703969137
aF0.4601799249649048
aF1.5490397214889526
aF3.1358890533447266
aa(lp52
F-1.2359584013568323
aF-2.0038955847369593
aF-1.4767449537860315
aF0.4028489589691162
aF1.5452073812484741
aF3.135925054550171
aa(lp53
F-1.2363770643817347
aF-2.0423648993121546
aF-1.4275086561786097
aF0.375818133354187
aF1.5313993692398071
aF3.1358890533447266
aa(lp54
F-1.2364614645587366
aF-2.0843475500689905
aF-1.3738701979266565
aF0.37172067165374756
aF1.500824213027954
aF3.1359009742736816
aa(lp55
F-1.2364252249347132
aF-2.1165717283831995
aF-1.3320563475238245
aF0.37163686752319336
aF1.4743083715438843
aF3.1358530521392822
aa(lp56
F-1.2364614645587366
aF-2.141435448323385
aF-1.3001754919635218
aF0.3715769052505493
aF1.4648951292037964
aF3.135841131210327
aa(lp57
F-1.236401383076803
aF-2.1583274046527308
aF-1.276971165333883
aF0.3704867362976074
aF1.4648951292037964
aF3.135721206665039
aa(lp58
F-1.2361858526812952
aF-2.1645739714251917
aF-1.2681735197650355
aF0.36552631855010986
aF1.4648711681365967
aF3.1348111629486084
aa(lp59
F-1.2362211386310022
aF-2.164417568837301
aF-1.2680895964251917
aF0.34676313400268555
aF1.4648832082748413
aF3.134523868560791
aa(lp60
F-1.2362692991839808
aF-2.164417568837301
aF-1.2680776754962366
aF0.3193244934082031
aF1.4648951292037964
aF3.1345953941345215
aa(lp61
F-1.2362454573260706
aF-2.1644776503192347
aF-1.2681854406939905
aF0.28851866722106934
aF1.4650030136108398
aF3.134643316268921
aa(lp62
F-1.2362454573260706
aF-2.164501969014303
aF-1.268365208302633
aF0.2748469114303589
aF1.4650869369506836
aF3.1347033977508545
aa(lp63
F-1.2362812201129358
aF-2.1645496527301233
aF-1.2688563505755823
aF0.2748349905014038
aF1.465074896812439
aF3.1347033977508545
aa(lp64
F-1.2363413015948694
aF-2.1645496527301233
aF-1.2694199720965784
aF0.2748349905014038
aF1.4650869369506836
aF3.1347272396087646
aa(lp65
F-1.2363413015948694
aF-2.1645620504962366
aF-1.2696121374713343
aF0.2748110294342041
aF1.4651108980178833
aF3.134751319885254
aa.