(lp0
(lp1
F-1.2376464048968714
aF-1.0987771193133753
aF-2.025395218526022
aF-1.556408707295553
aF1.5806196928024292
aF3.141542673110962
aa(lp2
F-1.2376583258258265
aF-1.0987771193133753
aF-2.025407139454977
aF-1.556396786366598
aF1.5805957317352295
aF3.141554594039917
aa(lp3
F-1.2376344839679163
aF-1.0987895170794886
aF-2.0253832975970667
aF-1.556420628224508
aF1.5806076526641846
aF3.141554594039917
aa(lp4
F-1.2376702467547815
aF-1.0988009611712855
aF-2.0254910627948206
aF-1.5564325491534632
aF1.5804998874664307
aF3.1415061950683594
aa(lp5
F-1.2376940886126917
aF-1.0988009611712855
aF-2.025538746510641
aF-1.5564444700824183
aF1.580487847328186
aF3.1415061950683594
aa(lp6
F-1.2376583258258265
aF-1.0988133589373987
aF-2.025538746510641
aF-1.556420628224508
aF1.58054780960083
aF3.141542673110962
aa(lp7
F-1.2376821676837366
aF-1.0988133589373987
aF-2.025526825581686
aF-1.5564568678485315
aF1.5805238485336304
aF3.141542673110962
aa(lp8
F-1.2376702467547815
aF-1.0987771193133753
aF-2.0255149046527308
aF-1.5564568678485315
aF1.5805118083953857
aF3.1415905952453613
aa(lp9
F-1.2376821676837366
aF-1.0988372007953089
aF-2.025550667439596
aF-1.5564325491534632
aF1.5805238485336304
aF3.141542673110962
aa(lp10
F-1.2376702467547815
aF-1.0988252798663538
aF-2.0255149046527308
aF-1.5564444700824183
aF1.5805118083953857
aF3.141554594039917
aa(lp11
F-1.2376821676837366
aF-1.0988133589373987
aF-2.025526825581686
aF-1.556420628224508
aF1.5805118083953857
aF3.141566514968872
aa(lp12
F-1.2376583258258265
aF-1.0987771193133753
aF-2.025550667439596
aF-1.5564444700824183
aF1.5805118083953857
aF3.1415181159973145
aa(lp13
F-1.2376583258258265
aF-1.0988133589373987
aF-2.0255749861346644
aF-1.5564687887774866
aF1.5805118083953857
aF3.1415061950683594
aa(lp14
F-1.2376940886126917
aF-1.0988372007953089
aF-2.0256226698504847
aF-1.5564444700824183
aF1.580487847328186
aF3.141566514968872
aa(lp15
F-1.2376940886126917
aF-1.098849121724264
aF-2.025933567677633
aF-1.5564687887774866
aF1.5804998874664307
aF3.141554594039917
aa(lp16
F-1.237729851399557
aF-1.0988848845111292
aF-2.0263288656817835
aF-1.5564807097064417
aF1.5804638862609863
aF3.1415181159973145
aa(lp17
F-1.2376940886126917
aF-1.0994599501239222
aF-2.028687302266256
aF-1.556396786366598
aF1.5803920030593872
aF3.141566514968872
aa(lp18
F-1.23771840730776
aF-1.1003344694720667
aF-2.0373790899859827
aF-1.5563848654376429
aF1.5802961587905884
aF3.1415905952453613
aa(lp19
F-1.23771840730776
aF-1.1014731566058558
aF-2.050967518483297
aF-1.556277100239889
aF1.5801770687103271
aF3.141566514968872
aa(lp20
F-1.237729851399557
aF-1.101616684590475
aF-2.0689614454852503
aF-1.5559409300433558
aF1.580117106437683
aF3.141554594039917
aa(lp21
F-1.23771840730776
aF-1.101856533681051
aF-2.0921385923968714
aF-1.5556772390948694
aF1.5800811052322388
aF3.1415905952453613
aa(lp22
F-1.23771840730776
aF-1.1021440664874476
aF-2.119457546864645
aF-1.5552457014666956
aF1.5800092220306396
aF3.1415905952453613
aa(lp23
F-1.237741772328512
aF-1.102335278187887
aF-2.144836727772848
aF-1.5545623938189905
aF1.579757571220398
aF3.1416144371032715
aa(lp24
F-1.2376940886126917
aF-1.1025036017047327
aF-2.170321766530172
aF-1.553626839314596
aF1.5797215700149536
aF3.1415905952453613
aa(lp25
F-1.23771840730776
aF-1.1026595274554651
aF-2.1942618528949183
aF-1.551600758229391
aF1.579697608947754
aF3.1416263580322266
aa(lp26
F-1.2377780119525355
aF-1.1026833693133753
aF-2.219124142323629
aF-1.5494068304644983
aF1.5796856880187988
aF3.1416263580322266
aa(lp27
F-1.237753693257467
aF-1.102755371724264
aF-2.2393410841571253
aF-1.5452588240252894
aF1.5796856880187988
aF3.1416025161743164
aa(lp28
F-1.237706486378805
aF-1.102767292653219
aF-2.2592337767230433
aF-1.535619084035055
aF1.5796856880187988
aF3.1416144371032715
aa(lp29
F-1.237729851399557
aF-1.102767292653219
aF-2.2746623198138636
aF-1.5288808981524866
aF1.5797096490859985
aF3.1416025161743164
aa(lp30
F-1.237706486378805
aF-1.1027310530291956
aF-2.292316500340597
aF-1.515381161366598
aF1.5796736478805542
aF3.1416144371032715
aa(lp31
F-1.2377899328814905
aF-1.1027072111712855
aF-2.3087738196002405
aF-1.4894841353045862
aF1.5794223546981812
aF3.1416144371032715
aa(lp32
F-1.2378018538104456
aF-1.102755371724264
aF-2.3247643152820032
aF-1.4574607054339808
aF1.5789074897766113
aF3.1416144371032715
aa(lp33
F-1.2380769888507288
aF-1.1027196089373987
aF-2.337163511906759
aF-1.429070297871725
aF1.5776498317718506
aF3.1416263580322266
aa(lp34
F-1.239166561757223
aF-1.1026952902423304
aF-2.3498976866351526
aF-1.3989175001727503
aF1.5760810375213623
aF3.141650438308716
aa(lp35
F-1.2394774595843714
aF-1.1027310530291956
aF-2.3536201159106653
aF-1.378859821950094
aF1.5748714208602905
aF3.1416144371032715
aa(lp36
F-1.2394898573504847
aF-1.1027310530291956
aF-2.353727404271261
aF-1.3749993483172815
aF1.5747159719467163
aF3.1416025161743164
aa(lp37
F-1.2394898573504847
aF-1.1027196089373987
aF-2.3537514845477503
aF-1.3750470320331019
aF1.5747638940811157
aF3.1416144371032715
aa(lp38
F-1.2394898573504847
aF-1.1027072111712855
aF-2.3537753264056605
aF-1.3750470320331019
aF1.5747878551483154
aF3.1416144371032715
aa(lp39
F-1.2395136992083948
aF-1.1026952902423304
aF-2.3537753264056605
aF-1.3750231901751917
aF1.5747519731521606
aF3.141650438308716
aa(lp40
F-1.2396696249591272
aF-1.1026952902423304
aF-2.3537874857531946
aF-1.375082794819967
aF1.5747519731521606
aF3.1416263580322266
aa(lp41
F-1.2401483694659632
aF-1.1026952902423304
aF-2.353727404271261
aF-1.3750470320331019
aF1.5747878551483154
aF3.141650438308716
aa(lp42
F-1.242183033620016
aF-1.1026833693133753
aF-2.3537634054767054
aF-1.3751071135150355
aF1.5747278928756714
aF3.1416144371032715
aa(lp43
F-1.2454994360553187
aF-1.102635685597555
aF-2.353739563618795
aF-1.375070873891012
aF1.5743443965911865
aF3.1416144371032715
aa(lp44
F-1.252885643635885
aF-1.1026714483844202
aF-2.3537994066821497
aF-1.375070873891012
aF1.5741411447525024
aF3.1416144371032715
aa(lp45
F-1.2683394590960901
aF-1.1026714483844202
aF-2.3540151754962366
aF-1.3751071135150355
aF1.573913335800171
aF3.1416263580322266
aa(lp46
F-1.2870128790484827
aF-1.1026714483844202
aF-2.3542423884021204
aF-1.3751547972308558
aF1.573973298072815
aF3.1416144371032715
aa(lp47
F-1.3102582136737269
aF-1.1026833693133753
aF-2.354780975972311
aF-1.3750470320331019
aF1.5739972591400146
aF3.1416025161743164
aa(lp48
F-1.33606464067568
aF-1.1026833693133753
aF-2.35494834581484
aF-1.3751190344439905
aF1.5739493370056152
aF3.1416144371032715
aa(lp49
F-1.3594754377948206
aF-1.1026833693133753
aF-2.3549724260913294
aF-1.3751428763019007
aF1.5739374160766602
aF3.1415905952453613
aa(lp50
F-1.3839390913592737
aF-1.1026714483844202
aF-2.35492450395693
aF-1.3751428763019007
aF1.5739374160766602
aF3.1416144371032715
aa(lp51
F-1.4056370894061487
aF-1.1026595274554651
aF-2.3549004236804407
aF-1.3751428763019007
aF1.5739253759384155
aF3.1416263580322266
aa(lp52
F-1.4261258284198206
aF-1.1026714483844202
aF-2.3548644224749964
aF-1.375202480946676
aF1.573913335800171
aF3.1416144371032715
aa(lp53
F-1.4469130674945276
aF-1.1026714483844202
aF-2.3548644224749964
aF-1.3751547972308558
aF1.5737816095352173
aF3.1416144371032715
aa(lp54
F-1.4645636717425745
aF-1.1027072111712855
aF-2.354960266743795
aF-1.375202480946676
aF1.5734943151474
aF3.1416025161743164
aa(lp55
F-1.479797665272848
aF-1.1027434507953089
aF-2.3553078810321253
aF-1.3751667181598108
aF1.573147177696228
aF3.141650438308716
aa(lp56
F-1.4923742453204554
aF-1.102886978779928
aF-2.3581200281726282
aF-1.3751190344439905
aF1.573147177696228
aF3.1416385173797607
aa(lp57
F-1.4966099897967737
aF-1.1031149069415491
aF-2.3646069208728235
aF-1.3749869505511683
aF1.5731830596923828
aF3.1415905952453613
aa(lp58
F-1.4972923437701624
aF-1.1031745115863245
aF-2.3794949690448206
aF-1.3747714201556605
aF1.5731711387634277
aF3.1416385173797607
aa(lp59
F-1.4972804228412073
aF-1.1031988302813929
aF-2.4000919500934046
aF-1.3745434919940394
aF1.5731950998306274
aF3.1416385173797607
aa(lp60
F-1.4973161856280726
aF-1.1031506697284144
aF-2.4185341040240687
aF-1.372253719960348
aF1.573147177696228
aF3.141662359237671
aa(lp61
F-1.4972804228412073
aF-1.1031387487994593
aF-2.4286349455462855
aF-1.3699639479266565
aF1.5731950998306274
aF3.1416385173797607
aa(lp62
F-1.4972685019122522
aF-1.1031387487994593
aF-2.4334338347064417
aF-1.3695085684405726
aF1.5731950998306274
aF3.1416263580322266
aa(lp63
F-1.4972685019122522
aF-1.1031506697284144
aF-2.4341636339770716
aF-1.3694966475116175
aF1.5732426643371582
aF3.1416144371032715
aa(lp64
F-1.497232739125387
aF-1.1031745115863245
aF-2.4341636339770716
aF-1.369568173085348
aF1.573278546333313
aF3.1416025161743164
aa(lp65
F-1.497232739125387
aF-1.1031506697284144
aF-2.4341397921191614
aF-1.3695324102984827
aF1.5732426643371582
aF3.1416263580322266
aa(lp66
F-1.4972565809832972
aF-1.1031869093524378
aF-2.4341278711902063
aF-1.3695204893695276
aF1.5732545852661133
aF3.1416025161743164
aa(lp67
F-1.497244660054342
aF-1.1032584349261683
aF-2.4340558687793177
aF-1.3695443312274378
aF1.5732187032699585
aF3.1416385173797607
aa(lp68
F-1.4972565809832972
aF-1.1042168776141565
aF-2.4339245001422327
aF-1.3693764845477503
aF1.5732187032699585
aF3.1416263580322266
aa(lp69
F-1.497232739125387
aF-1.1079075972186487
aF-2.4335172812091272
aF-1.3681052366839808
aF1.5732187032699585
aF3.1416144371032715
aa(lp70
F-1.497232739125387
aF-1.1155884901629847
aF-2.4329312483416956
aF-1.3656356970416468
aF1.5732187032699585
aF3.1416025161743164
aa(lp71
F-1.4972565809832972
aF-1.1274269262896937
aF-2.4317343870746058
aF-1.3618829886065882
aF1.5731950998306274
aF3.141650438308716
aa(lp72
F-1.497244660054342
aF-1.141926113759176
aF-2.4286823908435267
aF-1.3548453489886683
aF1.5732306241989136
aF3.1416144371032715
aa(lp73
F-1.497232739125387
aF-1.1603434721576136
aF-2.424326483403341
aF-1.3382285276996058
aF1.5732545852661133
aF3.1416025161743164
aa(lp74
F-1.497244660054342
aF-1.1826794783221644
aF-2.4130411783801478
aF-1.3127158323871058
aF1.5733026266098022
aF3.1416263580322266
aa(lp75
F-1.4972685019122522
aF-1.205590550099508
aF-2.397471014653341
aF-1.289457146321432
aF1.5732905864715576
aF3.1416263580322266
aa(lp76
F-1.497244660054342
aF-1.2308390776263636
aF-2.382200066243307
aF-1.266066853200094
aF1.5732905864715576
aF3.1415905952453613
aa(lp77
F-1.4972203413592737
aF-1.2608092466937464
aF-2.3655405680285853
aF-1.2441628615008753
aF1.573326587677002
aF3.141578435897827
aa(lp78
F-1.497232739125387
aF-1.291750733052389
aF-2.3498857657061976
aF-1.2236622015582483
aF1.5732905864715576
aF3.1415905952453613
aa(lp79
F-1.4972804228412073
aF-1.3200438658343714
aF-2.333740774785177
aF-1.209179703389303
aF1.5733026266098022
aF3.1416144371032715
aa(lp80
F-1.497232739125387
aF-1.3466480414019983
aF-2.3153565565692347
aF-1.2038324514972132
aF1.5732905864715576
aF3.1416025161743164
aa(lp81
F-1.4972565809832972
aF-1.369549576436178
aF-2.296206537877218
aF-1.203796688710348
aF1.5733145475387573
aF3.141578435897827
aa(lp82
F-1.4972685019122522
aF-1.3943565527545374
aF-2.2728188673602503
aF-1.203700367604391
aF1.5733026266098022
aF3.1416025161743164
aa(lp83
F-1.4972565809832972
aF-1.41459829012026
aF-2.254817310963766
aF-1.203700367604391
aF1.5733145475387573
aF3.1416025161743164
aa(lp84
F-1.4972685019122522
aF-1.4383872191058558
aF-2.237258259450094
aF-1.2034009138690394
aF1.5733145475387573
aF3.1416385173797607
aa(lp85
F-1.4972685019122522
aF-1.4610498587237757
aF-2.2226794401751917
aF-1.2028611342059534
aF1.5733145475387573
aF3.141578435897827
aa(lp86
F-1.4972923437701624
aF-1.4854028860675257
aF-2.2041733900653284
aF-1.201555077229635
aF1.5733505487442017
aF3.1416385173797607
aa(lp87
F-1.4972565809832972
aF-1.506939713154928
aF-2.1848424116717737
aF-1.1986296812640589
aF1.573326587677002
aF3.1416144371032715
aa(lp88
F-1.497244660054342
aF-1.528177563344137
aF-2.164647881184713
aF-1.1983297506915491
aF1.5733624696731567
aF3.1416025161743164
aa(lp89
F-1.497232739125387
aF-1.5497263113604944
aF-2.143423382435934
aF-1.1982219854937952
aF1.5733624696731567
aF3.1416025161743164
aa(lp90
F-1.4972565809832972
aF-1.5734451452838343
aF-2.1199010054217737
aF-1.1979225317584437
aF1.5733505487442017
aF3.141578435897827
aa(lp91
F-1.4972685019122522
aF-1.5962532202350062
aF-2.096760098134176
aF-1.1976707617389124
aF1.5733624696731567
aF3.1416263580322266
aa(lp92
F-1.497244660054342
aF-1.6201885382281702
aF-2.0718587080584925
aF-1.1974065939532679
aF1.5733864307403564
aF3.1416025161743164
aa(lp93
F-1.4971850554095667
aF-1.6467250029193323
aF-2.0439398924456995
aF-1.1970465818988245
aF1.5733624696731567
aF3.141650438308716
aa(lp94
F-1.4971969763385218
aF-1.6719430128680628
aF-2.0178406874286097
aF-1.1968548933612269
aF1.573398470878601
aF3.1416263580322266
aa(lp95
F-1.4972203413592737
aF-1.6978090445147913
aF-1.9917033354388636
aF-1.1965554396258753
aF1.5734823942184448
aF3.1416144371032715
aa(lp96
F-1.4972084204303187
aF-1.726419750844137
aF-1.9622367064105433
aF-1.1964715162860315
aF1.5734343528747559
aF3.141578435897827
aa(lp97
F-1.4972685019122522
aF-1.7529099623309534
aF-1.93280536333193
aF-1.1964476744281214
aF1.5734103918075562
aF3.1416263580322266
aa(lp98
F-1.4972084204303187
aF-1.7806347052203577
aF-1.9004390875445765
aF-1.1964595953570765
aF1.5734103918075562
aF3.1416025161743164
aa(lp99
F-1.4972203413592737
aF-1.8046796957599085
aF-1.8714483420001429
aF-1.196507755910055
aF1.5734343528747559
aF3.1415905952453613
aa(lp100
F-1.4972923437701624
aF-1.8260043303119105
aF-1.8438094297992151
aF-1.1964595953570765
aF1.5734343528747559
aF3.1416025161743164
aa(lp101
F-1.497244660054342
aF-1.8428695837603968
aF-1.819343392048971
aF-1.196411434804098
aF1.573398470878601
aF3.1415905952453613
aa(lp102
F-1.4972565809832972
aF-1.8582852522479456
aF-1.794492546712057
aF-1.1964476744281214
aF1.5734103918075562
aF3.141578435897827
aa(lp103
F-1.4972685019122522
aF-1.8654411474811
aF-1.780959431325094
aF-1.1964595953570765
aF1.5734103918075562
aF3.1415905952453613
aa(lp104
F-1.4972565809832972
aF-1.865800682698385
aF-1.778252903615133
aF-1.1965315977679651
aF1.5734103918075562
aF3.141578435897827
aa(lp105
F-1.4972565809832972
aF-1.865800682698385
aF-1.7782767454730433
aF-1.1965554396258753
aF1.5734103918075562
aF3.141578435897827
aa(lp106
F-1.4972804228412073
aF-1.8658726851092737
aF-1.7782886664019983
aF-1.1965916792498987
aF1.5733745098114014
aF3.1416144371032715
aa(lp107
F-1.4972685019122522
aF-1.8659327665912073
aF-1.778252903615133
aF-1.1965792814837855
aF1.5734224319458008
aF3.1416263580322266
aa(lp108
F-1.4972804228412073
aF-1.8666637579547327
aF-1.778229061757223
aF-1.1965315977679651
aF1.5733624696731567
aF3.1416025161743164
aa(lp109
F-1.497244660054342
aF-1.871326748524801
aF-1.7772586981402796
aF-1.1964476744281214
aF1.5734224319458008
aF3.141650438308716
aa(lp110
F-1.4972923437701624
aF-1.881575886403219
aF-1.7720487753497522
aF-1.1964595953570765
aF1.5734103918075562
aF3.141662359237671
aa(lp111
F-1.4973042646991175
aF-1.8975070158587855
aF-1.7604554335223597
aF-1.1964715162860315
aF1.5734224319458008
aF3.1415905952453613
aa(lp112
F-1.4973161856280726
aF-1.918304745350973
aF-1.7355907599078577
aF-1.1964715162860315
aF1.5734224319458008
aF3.141578435897827
aa(lp113
F-1.4973042646991175
aF-1.9385631720172327
aF-1.7055028120623987
aF-1.1964834372149866
aF1.573398470878601
aF3.1415905952453613
aa(lp114
F-1.4973161856280726
aF-1.9608600775348108
aF-1.672084156666891
aF-1.1964834372149866
aF1.5734343528747559
aF3.141578435897827
aa(lp115
F-1.4973042646991175
aF-1.9809272925006312
aF-1.6411188284503382
aF-1.1965192000018519
aF1.5734343528747559
aF3.1416025161743164
aa(lp116
F-1.4972923437701624
aF-2.001258675252096
aF-1.610175911580221
aF-1.1964953581439417
aF1.5734224319458008
aF3.1415905952453613
aa(lp117
F-1.497352425252096
aF-2.0232442061053675
aF-1.5777705351458948
aF-1.1965192000018519
aF1.5734583139419556
aF3.141566514968872
aa(lp118
F-1.4973161856280726
aF-2.042616669331686
aF-1.5485261122332972
aF-1.1964953581439417
aF1.5734703540802002
aF3.1416144371032715
aa(lp119
F-1.4973161856280726
aF-2.0611379782306116
aF-1.5194361845599573
aF-1.196507755910055
aF1.5734823942184448
aF3.141566514968872
aa(lp120
F-1.4973285833941858
aF-2.0782693068133753
aF-1.4917104879962366
aF-1.1964834372149866
aF1.573554277420044
aF3.141578435897827
aa(lp121
F-1.4973285833941858
aF-2.094968620930807
aF-1.4639843145953577
aF-1.1965192000018519
aF1.5735303163528442
aF3.141578435897827
aa(lp122
F-1.4973042646991175
aF-2.1088512579547327
aF-1.439132038746969
aF-1.196507755910055
aF1.5735901594161987
aF3.1416025161743164
aa(lp123
F-1.4973285833941858
aF-2.12064773241152
aF-1.4143269697772425
aF-1.1965673605548304
aF1.573626160621643
aF3.141578435897827
aa(lp124
F-1.497340504323141
aF-2.1273134390460413
aF-1.3916781584369105
aF-1.1965315977679651
aF1.5736380815505981
aF3.141554594039917
aa(lp125
F-1.4973285833941858
aF-2.1287997404681605
aF-1.371185604725973
aF-1.1965673605548304
aF1.5736740827560425
aF3.141566514968872
aa(lp126
F-1.4973042646991175
aF-2.129040066395895
aF-1.3498294989215296
aF-1.1965673605548304
aF1.573686122894287
aF3.141542673110962
aa(lp127
F-1.4973285833941858
aF-2.1299389044391077
aF-1.3296950499164026
aF-1.1966155211078089
aF1.573686122894287
aF3.141542673110962
aa(lp128
F-1.4973161856280726
aF-2.131557289754049
aF-1.3065999189959925
aF-1.1965192000018519
aF1.5736620426177979
aF3.141566514968872
aa(lp129
F-1.497364346181051
aF-2.132564369832174
aF-1.2832396666156214
aF-1.1965792814837855
aF1.5736380815505981
aF3.141554594039917
aa(lp130
F-1.4976633230792444
aF-2.1327083746539515
aF-1.2556117216693323
aF-1.196627442036764
aF1.5736021995544434
aF3.141554594039917
aa(lp131
F-1.499338452016012
aF-2.132684055958883
aF-1.229241196309225
aF-1.1966031233416956
aF1.5736380815505981
aF3.141578435897827
aa(lp132
F-1.5019233862506312
aF-2.132660214100973
aF-1.2017067114459437
aF-1.1966751257525843
aF1.5735901594161987
aF3.141566514968872
aa(lp133
F-1.5028684774981897
aF-2.132672135029928
aF-1.174615208302633
aF-1.196759049092428
aF1.5736141204833984
aF3.141578435897827
aa(lp134
F-1.5028565565692347
aF-2.1326244513141077
aF-1.1459272543536585
aF-1.1968072096454065
aF1.5736380815505981
aF3.1415905952453613
aa(lp135
F-1.5028803984271448
aF-2.1326125303851526
aF-1.1217826048480433
aF-1.1969268957721155
aF1.5736501216888428
aF3.141566514968872
aa(lp136
F-1.5028803984271448
aF-2.1326125303851526
aF-1.094710652028219
aF-1.1969988981830042
aF1.573626160621643
aF3.141578435897827
aa(lp137
F-1.5029166380511683
aF-2.132552448903219
aF-1.0728896299945276
aF-1.197106663380758
aF1.5736501216888428
aF3.141566514968872
aa(lp138
F-1.5028684774981897
aF-2.132552448903219
aF-1.0500128904925745
aF-1.1972029844867151
aF1.5736501216888428
aF3.141542673110962
aa(lp139
F-1.503143612538473
aF-2.1324804464923304
aF-1.0243776480304163
aF-1.1973226706134241
aF1.5736501216888428
aF3.141554594039917
aa(lp140
F-1.5036705175982874
aF-2.1324685255633753
aF-0.994699780141012
aF-1.197442356740133
aF1.5736380815505981
aF3.141566514968872
aa(lp141
F-1.5040414969073694
aF-2.13243276277651
aF-0.9635222593890589
aF-1.1974666754352015
aF1.573626160621643
aF3.1415905952453613
aa(lp142
F-1.5040176550494593
aF-2.1324084440814417
aF-0.9309518972979944
aF-1.1974785963641565
aF1.5736620426177979
aF3.141578435897827
aa(lp143
F-1.5041130224811
aF-2.13243276277651
aF-0.9009583632098597
aF-1.1975262800799769
aF1.573626160621643
aF3.141578435897827
aa(lp144
F-1.5040772596942347
aF-2.13243276277651
aF-0.8700521628009241
aF-1.1975262800799769
aF1.573626160621643
aF3.141566514968872
aa(lp145
F-1.5040295759784144
aF-2.1324084440814417
aF-0.8368423620807093
aF-1.1975024382220667
aF1.573626160621643
aF3.141578435897827
aa(lp146
F-1.5040295759784144
aF-2.1323846022235315
aF-0.8094113508807581
aF-1.1975505987750452
aF1.573626160621643
aF3.141578435897827
aa(lp147
F-1.504005257283346
aF-2.1324084440814417
aF-0.7863577047931116
aF-1.1975024382220667
aF1.573626160621643
aF3.141566514968872
aa(lp148
F-1.5038979689227503
aF-2.1323488394366663
aF-0.7673104445086878
aF-1.1974666754352015
aF1.5736501216888428
aF3.141554594039917
aa(lp149
F-1.5021145979510706
aF-2.13243276277651
aF-0.7471583525287073
aF-1.197310749684469
aF1.574200987815857
aF3.141566514968872
aa(lp150
F-1.4965623060809534
aF-2.1324685255633753
aF-0.7335079352008265
aF-1.1969512144671839
aF1.5746920108795166
aF3.141566514968872
aa(lp151
F-1.4873603026019495
aF-2.132564369832174
aF-0.7238391081439417
aF-1.1967232863055628
aF1.5748118162155151
aF3.141566514968872
aa(lp152
F-1.4731443564044397
aF-2.1325042883502405
aF-0.7181895414935511
aF-1.196291748677389
aF1.575398325920105
aF3.1416025161743164
aa(lp153
F-1.4558761755572718
aF-2.1325042883502405
aF-0.7128508726703089
aF-1.1950209776507776
aF1.5755780935287476
aF3.1416025161743164
aa(lp154
F-1.4319780508624476
aF-2.132552448903219
aF-0.7078965345965784
aF-1.1878874937640589
aF1.575626015663147
aF3.1415905952453613
aa(lp155
F-1.410532299672262
aF-2.1326125303851526
aF-0.704346005116598
aF-1.1776250044452112
aF1.5755900144577026
aF3.1416025161743164
aa(lp156
F-1.3874695936786097
aF-2.132695976887838
aF-0.7036502997027796
aF-1.1534197966205042
aF1.5756620168685913
aF3.1416144371032715
aa(lp157
F-1.3643830458270472
aF-2.133115593587057
aF-0.703709904347555
aF-1.128615681325094
aF1.5756020545959473
aF3.1416263580322266
aa(lp158
F-1.341785732899801
aF-2.1339786688434046
aF-0.7037580649005335
aF-1.1138337294207972
aF1.575626015663147
aF3.1415905952453613
aa(lp159
F-1.3202288786517542
aF-2.135573689137594
aF-0.7037938276873987
aF-1.1011017004596155
aF1.5755780935287476
aF3.1415905952453613
aa(lp160
F-1.3006470839129847
aF-2.1381986776935022
aF-0.7038419882403772
aF-1.0963547865497034
aF1.5754822492599487
aF3.1416025161743164
aa(lp161
F-1.284379784260885
aF-2.1437137762652796
aF-0.7038419882403772
aF-1.0956109205829065
aF1.5751709938049316
aF3.1416263580322266
aa(lp162
F-1.2752345244037073
aF-2.1511104742633265
aF-0.7040579954730433
aF-1.090264622365133
aF1.57491934299469
aF3.1416025161743164
aa(lp163
F-1.2705181280719202
aF-2.159910027180807
aF-0.7041781584369105
aF-1.0841024557696741
aF1.5748238563537598
aF3.1416263580322266
aa(lp164
F-1.268566910420553
aF-2.170664135609762
aF-0.7041061560260218
aF-1.0703757444964808
aF1.5747519731521606
aF3.1416263580322266
aa(lp165
F-1.267130200062887
aF-2.1823647657977503
aF-0.7040942350970667
aF-1.0383666197406214
aF1.5747759342193604
aF3.1415905952453613
aa(lp166
F-1.2663162390338343
aF-2.1914284865008753
aF-0.7041900793658655
aF-0.9919126669513147
aF1.5747759342193604
aF3.1416025161743164
aa(lp167
F-1.2663405577289026
aF-2.201019589100973
aF-0.7043102423297327
aF-0.9518721739398401
aF1.5747759342193604
aF3.1416025161743164
aa(lp168
F-1.2663162390338343
aF-2.2106106917010706
aF-0.7045982519732874
aF-0.9405434767352503
aF1.5747278928756714
aF3.1415905952453613
aa(lp169
F-1.2663162390338343
aF-2.2190502325641077
aF-0.7051499525653284
aF-0.9404595533954065
aF1.574739933013916
aF3.1415905952453613
aa(lp170
F-1.2662566343890589
aF-2.227454487477438
aF-0.7052696386920374
aF-0.9405315558062952
aF1.5747878551483154
aF3.1416263580322266
aa(lp171
F-1.2662566343890589
aF-2.235115353261129
aF-0.7051737944232386
aF-0.9405077139483851
aF1.5747519731521606
aF3.1416144371032715
aa(lp172
F-1.2663043181048792
aF-2.2386401335345667
aF-0.7052095572101038
aF-0.9405434767352503
aF1.5748118162155151
aF3.1415905952453613
aa(lp173
F-1.2663877646075647
aF-2.2386162916766565
aF-0.7052338759051722
aF-0.9406994024859827
aF1.5748118162155151
aF3.1416144371032715
aa(lp174
F-1.2663281599627894
aF-2.2386162916766565
aF-0.7052214781390589
aF-0.9408910910235804
aF1.5749073028564453
aF3.1416025161743164
aa(lp175
F-1.2663162390338343
aF-2.238568131123678
aF-0.7052338759051722
aF-0.9410947004901331
aF1.57491934299469
aF3.1415905952453613
aa(lp176
F-1.2663524786578577
aF-2.238580052052633
aF-0.7052338759051722
aF-0.9411791006671351
aF1.57491934299469
aF3.141578435897827
aa(lp177
F-1.2663281599627894
aF-2.238580052052633
aF-0.7052577177630823
aF-0.9411910215960901
aF1.574931263923645
aF3.141578435897827
aa(lp178
F-1.2663639227496546
aF-2.2386043707477015
aF-0.7052457968341272
aF-0.9412511030780237
aF1.57491934299469
aF3.1416025161743164
aa(lp179
F-1.2663524786578577
aF-2.2386282126056116
aF-0.7052696386920374
aF-0.9412148634540003
aF1.5749433040618896
aF3.141554594039917
aa(lp180
F-1.2663162390338343
aF-2.2386043707477015
aF-0.7052214781390589
aF-0.9412630240069788
aF1.57491934299469
aF3.141566514968872
aa(lp181
F-1.2663639227496546
aF-2.2386043707477015
aF-0.7052577177630823
aF-0.9412749449359339
aF1.57491934299469
aF3.1416025161743164
aa.