(lp0
(lp1
F-1.2376464048968714
aF-1.0988009611712855
aF-2.0254910627948206
aF-1.5565765539752405
aF1.5806796550750732
aF3.1414942741394043
aa(lp2
F-1.237706486378805
aF-1.0988009611712855
aF-2.0255149046527308
aF-1.5565527121173304
aF1.5806915760040283
aF3.141482353210449
aa(lp3
F-1.2376940886126917
aF-1.0988133589373987
aF-2.0255025068866175
aF-1.5565407911883753
aF1.580703616142273
aF3.141470193862915
aa(lp4
F-1.237706486378805
aF-1.0987895170794886
aF-2.0254910627948206
aF-1.5565527121173304
aF1.5806676149368286
aF3.1414942741394043
aa(lp5
F-1.2376702467547815
aF-1.0987771193133753
aF-2.0255025068866175
aF-1.5565527121173304
aF1.5806676149368286
aF3.1414942741394043
aa(lp6
F-1.237706486378805
aF-1.0988009611712855
aF-2.0255025068866175
aF-1.5566003958331507
aF1.5806796550750732
aF3.141482353210449
aa(lp7
F-1.2376583258258265
aF-1.0987895170794886
aF-2.0254786650287073
aF-1.556528393422262
aF1.580703616142273
aF3.14145827293396
aa(lp8
F-1.2376940886126917
aF-1.0988133589373987
aF-2.0254667440997522
aF-1.5565527121173304
aF1.5806676149368286
aF3.141470193862915
aa(lp9
F-1.2376940886126917
aF-1.0987895170794886
aF-2.0254910627948206
aF-1.5565646330462855
aF1.5806676149368286
aF3.1414942741394043
aa(lp10
F-1.23771840730776
aF-1.0987771193133753
aF-2.025526825581686
aF-1.5565884749041956
aF1.580703616142273
aF3.1414942741394043
aa(lp11
F-1.2376821676837366
aF-1.0988133589373987
aF-2.0254910627948206
aF-1.5566003958331507
aF1.580703616142273
aF3.141482353210449
aa(lp12
F-1.2376940886126917
aF-1.0987771193133753
aF-2.0254786650287073
aF-1.5565884749041956
aF1.5807275772094727
aF3.1415061950683594
aa(lp13
F-1.237706486378805
aF-1.0987771193133753
aF-2.0255025068866175
aF-1.5565646330462855
aF1.5806915760040283
aF3.141470193862915
aa(lp14
F-1.237706486378805
aF-1.0987771193133753
aF-2.0255025068866175
aF-1.5566366354571741
aF1.5806676149368286
aF3.1414942741394043
aa(lp15
F-1.237706486378805
aF-1.0987651983844202
aF-2.0255025068866175
aF-1.5566123167621058
aF1.5806915760040283
aF3.1414942741394043
aa(lp16
F-1.2380293051349085
aF-1.0987771193133753
aF-2.025670353566305
aF-1.556624714528219
aF1.580643653869629
aF3.141482353210449
aa(lp17
F-1.2381847540484827
aF-1.0987651983844202
aF-2.0265210310565394
aF-1.5567200819598597
aF1.5805957317352295
aF3.1414942741394043
aa(lp18
F-1.2382448355304163
aF-1.0988133589373987
aF-2.029369656239645
aF-1.5566366354571741
aF1.5805357694625854
aF3.1414942741394043
aa(lp19
F-1.2383406797992151
aF-1.0989325682269495
aF-2.0383251349078577
aF-1.5567086378680628
aF1.5805597305297852
aF3.1415061950683594
aa(lp20
F-1.2384002844439905
aF-1.0992682615863245
aF-2.0485251585589808
aF-1.5566962401019495
aF1.58054780960083
aF3.1414942741394043
aa(lp21
F-1.2383888403521937
aF-1.0996039549456995
aF-2.062065903340475
aF-1.5566843191729944
aF1.5805836915969849
aF3.1414942741394043
aa(lp22
F-1.2384002844439905
aF-1.0999396483050745
aF-2.084022823964254
aF-1.5566485563861292
aF1.5805836915969849
aF3.141470193862915
aa(lp23
F-1.2385438124286097
aF-1.100274387990133
aF-2.110586945210592
aF-1.5566962401019495
aF1.5805597305297852
aF3.141470193862915
aa(lp24
F-1.238807503377096
aF-1.10069448152651
aF-2.1356070677386683
aF-1.5566962401019495
aF1.58054780960083
aF3.1415181159973145
aa(lp25
F-1.2387712637530726
aF-1.1016648451434534
aF-2.1678794066058558
aF-1.5568164030658167
aF1.5805717706680298
aF3.141482353210449
aa(lp26
F-1.2387951056109827
aF-1.1027434507953089
aF-2.2032998243915003
aF-1.5567682425128382
aF1.5806076526641846
aF3.141542673110962
aa(lp27
F-1.2386873404132288
aF-1.105056111012594
aF-2.233738724385397
aF-1.5566604773150843
aF1.5806317329406738
aF3.141482353210449
aa(lp28
F-1.2386158148394983
aF-1.111622158681051
aF-2.2683423201190394
aF-1.5566723982440394
aF1.5807394981384277
aF3.141482353210449
aa(lp29
F-1.237753693257467
aF-1.1219752470599573
aF-2.297056261693136
aF-1.5564926306353968
aF1.5811586380004883
aF3.141470193862915
aa(lp30
F-1.2352517286883753
aF-1.1371453444110315
aF-2.3154524008380335
aF-1.5563367048846644
aF1.5831704139709473
aF3.14145827293396
aa(lp31
F-1.2234004179583948
aF-1.1544478575335901
aF-2.3199644724475306
aF-1.5560734907733362
aF1.589984655380249
aF3.14145827293396
aa(lp32
F-1.196080509816305
aF-1.1721699873553675
aF-2.320024553929464
aF-1.5557730833636683
aF1.5993015766143799
aF3.141482353210449
aa(lp33
F-1.1619957129107874
aF-1.1884310881244105
aF-2.32001239458193
aF-1.5557015577899378
aF1.6034806966781616
aF3.141482353210449
aa(lp34
F-1.1226518789874476
aF-1.2065375486956995
aF-2.32001239458193
aF-1.555521313344137
aF1.6043072938919067
aF3.14145827293396
aa(lp35
F-1.0745757261859339
aF-1.2268369833575647
aF-2.319761101399557
aF-1.5554011503802698
aF1.605277180671692
aF3.1414942741394043
aa(lp36
F-1.0275128523456019
aF-1.2464893499957483
aF-2.319533888493673
aF-1.5552695433246058
aF1.605468988418579
aF3.1415181159973145
aa(lp37
F-0.9766491095172327
aF-1.268658463154928
aF-2.317845884953634
aF-1.5543707052813929
aF1.605468988418579
aF3.1415061950683594
aa(lp38
F-0.9316375891314905
aF-1.2862981001483362
aF-2.308463160191671
aF-1.5519965330706995
aF1.605468988418579
aF3.141482353210449
aa(lp39
F-0.8923118750201624
aF-1.2992642561541956
aF-2.2867873350726526
aF-1.5517805258380335
aF1.60539710521698
aF3.141482353210449
aa(lp40
F-0.8649633566485804
aF-1.3102296034442347
aF-2.271789852772848
aF-1.5519841353045862
aF1.6053012609481812
aF3.141482353210449
aa(lp41
F-0.8540013472186487
aF-1.3328307310687464
aF-2.272029225026266
aF-1.5522125403033655
aF1.6052652597427368
aF3.1415061950683594
aa(lp42
F-0.8559182325946253
aF-1.3690102736102503
aF-2.271694008504049
aF-1.5520203749286097
aF1.604007601737976
aF3.1415061950683594
aa(lp43
F-0.8571642080890101
aF-1.4141667524920862
aF-2.2639978567706507
aF-1.55040151277651
aF1.6000322103500366
aF3.141554594039917
aa(lp44
F-0.8668678442584437
aF-1.4555485884295862
aF-2.2374137083636683
aF-1.5481236616717737
aF1.5833501815795898
aF3.1415905952453613
aa(lp45
F-0.898205582295553
aF-1.492150608693258
aF-2.1991217772113245
aF-1.545126740132467
aF1.5301297903060913
aF3.1415905952453613
aa(lp46
F-0.9428604284869593
aF-1.5235026518451136
aF-2.160170380269186
aF-1.536158863698141
aF1.451601266860962
aF3.1415181159973145
aa(lp47
F-0.9935124556170862
aF-1.5540173689471644
aF-2.1293700377093714
aF-1.5108493010150355
aF1.3722660541534424
aF3.141554594039917
aa(lp48
F-1.0406973997699183
aF-1.584076229725973
aF-2.111915890370504
aF-1.4656856695758265
aF1.3135160207748413
aF3.1415061950683594
aa(lp49
F-1.092548672352926
aF-1.6188700834857386
aF-2.0959818998919886
aF-1.3869646231280726
aF1.272850513458252
aF3.1415061950683594
aa(lp50
F-1.1473286787616175
aF-1.6586268583880823
aF-2.074289623891012
aF-1.2841342131244105
aF1.2629568576812744
aF3.141482353210449
aa(lp51
F-1.1988585630999964
aF-1.699151341115133
aF-2.0540922323810022
aF-1.1933305899249476
aF1.2629448175430298
aF3.14145827293396
aa(lp52
F-1.2551477591144007
aF-1.7431886831866663
aF-2.0316088835345667
aF-1.1050222555743616
aF1.2629687786102295
aF3.14145827293396
aa(lp53
F-1.307709042225973
aF-1.7802508513080042
aF-1.9993541876422327
aF-1.0206483046161097
aF1.2629927396774292
aF3.14145827293396
aa(lp54
F-1.348105255757467
aF-1.80430776277651
aF-1.9625242392169397
aF-0.9510930220233362
aF1.26292085647583
aF3.141446352005005
aa(lp55
F-1.3928435484515589
aF-1.825177017842428
aF-1.920687500630514
aF-0.8896673361407679
aF1.2629808187484741
aF3.141446352005005
aa(lp56
F-1.4354127089129847
aF-1.8420904318438929
aF-1.8863452116595667
aF-0.8528531233416956
aF1.2630047798156738
aF3.141446352005005
aa(lp57
F-1.4851701895343226
aF-1.8608978430377405
aF-1.8526232878314417
aF-0.8355911413775843
aF1.2630763053894043
aF3.14143443107605
aa(lp58
F-1.5307729879962366
aF-1.8770564238177698
aF-1.8281334082232874
aF-0.8356507460223597
aF1.263267993927002
aF3.1413862705230713
aa(lp59
F-1.5703900496112269
aF-1.8903263250934046
aF-1.8087323347674769
aF-0.8355792204486292
aF1.2636635303497314
aF3.141326427459717
aa(lp60
F-1.6062243620501917
aF-1.8992450873004358
aF-1.778719727193014
aF-0.8352912108050745
aF1.264549970626831
aF3.141326427459717
aa(lp61
F-1.6261690298663538
aF-1.8997486273394983
aF-1.7385848204242151
aF-0.8329537550555628
aF1.2650525569915771
aF3.1412785053253174
aa(lp62
F-1.6366732756244105
aF-1.9004676977740687
aF-1.6794865767108362
aF-0.8288901487933558
aF1.2651604413986206
aF3.1412904262542725
aa(lp63
F-1.6381810347186487
aF-1.9048669973956507
aF-1.620981518422262
aF-0.8184011618243616
aF1.265459656715393
aF3.1412665843963623
aa(lp64
F-1.6372235457049769
aF-1.9183405081378382
aF-1.5727265516864222
aF-0.7991731802569788
aF1.2688137292861938
aF3.141230583190918
aa(lp65
F-1.6306913534747522
aF-1.9414880911456507
aF-1.5262053648578089
aF-0.7504571119891565
aF1.2838104963302612
aF3.1412665843963623
aa(lp66
F-1.6143601576434534
aF-1.9714091459857386
aF-1.4800761381732386
aF-0.6661761442767542
aF1.3208461999893188
aF3.1412665843963623
aa(lp67
F-1.5986631552325647
aF-1.9977100531207483
aF-1.4392402807818812
aF-0.580627743397848
aF1.3644684553146362
aF3.1412785053253174
aa(lp68
F-1.5859206358539026
aF-2.02407151857485
aF-1.3932717482196253
aF-0.48434240022768194
aF1.4193236827850342
aF3.141242504119873
aa(lp69
F-1.5792439619647425
aF-2.0427244345294397
aF-1.3608668486224573
aF-0.412607494984762
aF1.468847632408142
aF3.141242504119873
aa(lp70
F-1.5724003950702112
aF-2.0617015997516077
aF-1.3287962118731897
aF-0.3404191176043909
aF1.5341179370880127
aF3.141230583190918
aa(lp71
F-1.5646942297564905
aF-2.076986614857809
aF-1.298258129750387
aF-0.27744895616640264
aF1.619983434677124
aF3.141230583190918
aa(lp72
F-1.5552662054644983
aF-2.0863850752459925
aF-1.2652605215655726
aF-0.2226784865008753
aF1.711137294769287
aF3.1412785053253174
aa(lp73
F-1.5461128393756312
aF-2.088111702595846
aF-1.238495175038473
aF-0.18839055696596319
aF1.7790807485580444
aF3.1412785053253174
aa(lp74
F-1.5315983931170862
aF-2.088207546864645
aF-1.2208626906024378
aF-0.1747043768512171
aF1.82345712184906
aF3.1412785053253174
aa(lp75
F-1.5058959166156214
aF-2.0882437864886683
aF-1.2160199324237269
aF-0.17468053499330694
aF1.8354915380477905
aF3.1412904262542725
aa(lp76
F-1.4797738234149378
aF-2.0882557074176233
aF-1.2140300909625452
aF-0.17460853258241826
aF1.8354556560516357
aF3.1413025856018066
aa(lp77
F-1.4497011343585413
aF-2.0882437864886683
aF-1.2078922430621546
aF-0.17416507402528936
aF1.8354556560516357
aF3.1413025856018066
aa(lp78
F-1.4245222250567835
aF-2.088207546864645
aF-1.2022107283221644
aF-0.17377025285829717
aF1.8354796171188354
aF3.1412785053253174
aa(lp79
F-1.401484791432516
aF-2.0881717840777796
aF-1.1965044180499476
aF-0.17377025285829717
aF1.8354796171188354
aF3.1412904262542725
aa(lp80
F-1.3797619978534144
aF-2.088207546864645
aF-1.1959174315081995
aF-0.17384177843202764
aF1.8355032205581665
aF3.1413025856018066
aa(lp81
F-1.359751049672262
aF-2.0881956259356897
aF-1.1959174315081995
aF-0.17396194139589483
aF1.8355032205581665
aF3.1413025856018066
aa(lp82
F-1.348201100026266
aF-2.088231865559713
aF-1.1960127989398401
aF-0.17410499254335576
aF1.8355151414871216
aF3.1412904262542725
aa(lp83
F-1.3465493361102503
aF-2.088231865559713
aF-1.1962288061725062
aF-0.17427283922304326
aF1.8354796171188354
aF3.141326427459717
aa(lp84
F-1.3464778105365198
aF-2.0882437864886683
aF-1.19633657137026
aF-0.17433292070497686
aF1.8354556560516357
aF3.1413145065307617
aa(lp85
F-1.34650165239443
aF-2.0881956259356897
aF-1.1964686552630823
aF-0.17429668108095342
aF1.8354556560516357
aF3.1413145065307617
aa(lp86
F-1.3465493361102503
aF-2.088207546864645
aF-1.1966365019427698
aF-0.174356762562887
aF1.835431694984436
aF3.141338348388672
aa(lp87
F-1.3465130964862269
aF-2.088219944630758
aF-1.1967323462115687
aF-0.174356762562887
aF1.8354436159133911
aF3.1413145065307617
aa(lp88
F-1.3465493361102503
aF-2.088219944630758
aF-1.1968281904803675
aF-0.17439300218691045
aF1.8354556560516357
aF3.1412785053253174
aa(lp89
F-1.3465612570392054
aF-2.0881598631488245
aF-1.1968281904803675
aF-0.17434484163393194
aF1.8354077339172363
aF3.1413145065307617
aa(lp90
F-1.3465612570392054
aF-2.088219944630758
aF-1.1968281904803675
aF-0.174356762562887
aF1.8354436159133911
aF3.1413145065307617
aa(lp91
F-1.3465612570392054
aF-2.088219944630758
aF-1.1968639532672327
aF-0.1743686834918421
aF1.835431694984436
aF3.1413145065307617
aa(lp92
F-1.3465493361102503
aF-2.088207546864645
aF-1.1968281904803675
aF-0.17439300218691045
aF1.835431694984436
aF3.1412785053253174
aa(lp93
F-1.3465254942523401
aF-2.0881837050067347
aF-1.1968520323382776
aF-0.17438060442079717
aF1.835431694984436
aF3.1413025856018066
aa(lp94
F-1.3465493361102503
aF-2.088219944630758
aF-1.1968043486224573
aF-0.1743686834918421
aF1.8354077339172363
aF3.141326427459717
aa(lp95
F-1.3465612570392054
aF-2.0881598631488245
aF-1.1968157927142542
aF-0.17440492311586553
aF1.8354436159133911
aF3.1413025856018066
aa(lp96
F-1.3465254942523401
aF-2.0881956259356897
aF-1.1968401114093226
aF-0.17438060442079717
aF1.835431694984436
aF3.1413145065307617
aa.