(lp0
(lp1
F-1.2377899328814905
aF-1.098849121724264
aF-2.0368884245501917
aF-1.5565765539752405
aF1.58054780960083
aF3.141542673110962
aa(lp2
F-1.237861458455221
aF-1.0988372007953089
aF-2.0368765036212366
aF-1.5565407911883753
aF1.5805597305297852
aF3.1415061950683594
aa(lp3
F-1.237849537526266
aF-1.0988252798663538
aF-2.036912266408102
aF-1.5565765539752405
aF1.5805957317352295
aF3.1415181159973145
aa(lp4
F-1.2378256956683558
aF-1.098849121724264
aF-2.036936108266012
aF-1.5565407911883753
aF1.5805717706680298
aF3.1415181159973145
aa(lp5
F-1.237849537526266
aF-1.0988133589373987
aF-2.036924187337057
aF-1.5565407911883753
aF1.5805957317352295
aF3.1415181159973145
aa(lp6
F-1.2378137747394007
aF-1.0988133589373987
aF-2.036924187337057
aF-1.5565646330462855
aF1.5805717706680298
aF3.1414942741394043
aa(lp7
F-1.2378018538104456
aF-1.0988252798663538
aF-2.036936108266012
aF-1.5565646330462855
aF1.5805836915969849
aF3.1415181159973145
aa(lp8
F-1.2378738562213343
aF-1.0987895170794886
aF-2.036936108266012
aF-1.5565646330462855
aF1.58054780960083
aF3.1414942741394043
aa(lp9
F-1.2378376165973108
aF-1.0988133589373987
aF-2.036924187337057
aF-1.5565646330462855
aF1.5805717706680298
aF3.141470193862915
aa(lp10
F-1.2378376165973108
aF-1.098849121724264
aF-2.036912266408102
aF-1.5566003958331507
aF1.5805957317352295
aF3.141542673110962
aa(lp11
F-1.237849537526266
aF-1.0988372007953089
aF-2.036948029194967
aF-1.5565646330462855
aF1.5805597305297852
aF3.141554594039917
aa(lp12
F-1.237849537526266
aF-1.0988009611712855
aF-2.036924187337057
aF-1.556528393422262
aF1.5805238485336304
aF3.1414942741394043
aa(lp13
F-1.237849537526266
aF-1.0988009611712855
aF-2.036912266408102
aF-1.5565527121173304
aF1.5805836915969849
aF3.1415061950683594
aa(lp14
F-1.237861458455221
aF-1.0988133589373987
aF-2.036936108266012
aF-1.5565646330462855
aF1.5805717706680298
aF3.1414942741394043
aa(lp15
F-1.237861458455221
aF-1.0988133589373987
aF-2.036936108266012
aF-1.5565527121173304
aF1.5805957317352295
aF3.141554594039917
aa(lp16
F-1.237849537526266
aF-1.0988372007953089
aF-2.036900822316305
aF-1.5565646330462855
aF1.5806196928024292
aF3.141554594039917
aa(lp17
F-1.2378376165973108
aF-1.0988252798663538
aF-2.0368884245501917
aF-1.5565527121173304
aF1.5805836915969849
aF3.1415061950683594
aa(lp18
F-1.2378018538104456
aF-1.0988372007953089
aF-2.0368884245501917
aF-1.5565527121173304
aF1.5805717706680298
aF3.1415061950683594
aa(lp19
F-1.237861458455221
aF-1.0988372007953089
aF-2.0368765036212366
aF-1.5565884749041956
aF1.5805717706680298
aF3.1414942741394043
aa(lp20
F-1.2378857771502894
aF-1.0988133589373987
aF-2.036924187337057
aF-1.5565646330462855
aF1.5805717706680298
aF3.141542673110962
aa(lp21
F-1.237849537526266
aF-1.0988133589373987
aF-2.0368645826922815
aF-1.5566003958331507
aF1.5805597305297852
aF3.1415061950683594
aa(lp22
F-1.2378137747394007
aF-1.098861042653219
aF-2.0368645826922815
aF-1.5565765539752405
aF1.5805597305297852
aF3.1414942741394043
aa(lp23
F-1.2378137747394007
aF-1.0988372007953089
aF-2.036936108266012
aF-1.5565646330462855
aF1.5805597305297852
aF3.1415181159973145
aa(lp24
F-1.2378137747394007
aF-1.098861042653219
aF-2.036948029194967
aF-1.5565884749041956
aF1.5805836915969849
aF3.1415181159973145
aa(lp25
F-1.237849537526266
aF-1.098849121724264
aF-2.037307087575094
aF-1.5565884749041956
aF1.5805717706680298
aF3.1415061950683594
aa(lp26
F-1.237861458455221
aF-1.0988009611712855
aF-2.040719811116354
aF-1.5565646330462855
aF1.5805597305297852
aF3.1415181159973145
aa(lp27
F-1.2378256956683558
aF-1.0988133589373987
aF-2.053936783467428
aF-1.5564807097064417
aF1.5805836915969849
aF3.1415181159973145
aa(lp28
F-1.237849537526266
aF-1.0988133589373987
aF-2.078407589589254
aF-1.556528393422262
aF1.58054780960083
aF3.1415061950683594
aa(lp29
F-1.2378376165973108
aF-1.0987651983844202
aF-2.113340679799215
aF-1.5565045515643519
aF1.5805717706680298
aF3.1415181159973145
aa(lp30
F-1.237861458455221
aF-1.0987651983844202
aF-2.149936024342672
aF-1.5564568678485315
aF1.5806076526641846
aF3.1415061950683594
aa(lp31
F-1.2378976980792444
aF-1.09874135652651
aF-2.1832616964923304
aF-1.5564444700824183
aF1.5805836915969849
aF3.141578435897827
aa(lp32
F-1.2378738562213343
aF-1.0987651983844202
aF-2.2076085249530237
aF-1.5563605467425745
aF1.5805957317352295
aF3.1415061950683594
aa(lp33
F-1.2378256956683558
aF-1.0987055937396448
aF-2.227119747792379
aF-1.5562170187579554
aF1.5805836915969849
aF3.141554594039917
aa(lp34
F-1.2378137747394007
aF-1.0986812750445765
aF-2.243183437977926
aF-1.5543468634234827
aF1.5805717706680298
aF3.141542673110962
aa(lp35
F-1.2378376165973108
aF-1.0986693541156214
aF-2.2591026465045374
aF-1.5393717924701136
aF1.5805357694625854
aF3.141566514968872
aa(lp36
F-1.2378857771502894
aF-1.0987170378314417
aF-2.2721970717059534
aF-1.483189884816305
aF1.5803920030593872
aF3.1415905952453613
aa(lp37
F-1.2378738562213343
aF-1.0986812750445765
aF-2.2880917231189173
aF-1.3894818464862269
aF1.5802006721496582
aF3.141566514968872
aa(lp38
F-1.2378738562213343
aF-1.0986931959735315
aF-2.3045252005206507
aF-1.2830670515643519
aF1.580117106437683
aF3.141542673110962
aa(lp39
F-1.2378857771502894
aF-1.0986693541156214
aF-2.323423449193136
aF-1.1691492239581507
aF1.5799493789672852
aF3.141542673110962
aa(lp40
F-1.2378857771502894
aF-1.0986693541156214
aF-2.3356197516070765
aF-1.0753629843341272
aF1.5796856880187988
aF3.141542673110962
aa(lp41
F-1.2379096190081995
aF-1.0986693541156214
aF-2.3461037317859095
aF-0.9612467924701136
aF1.5791112184524536
aF3.141566514968872
aa(lp42
F-1.2379334608661097
aF-1.0986931959735315
aF-2.3481743971454065
aF-0.8443778196917933
aF1.5785362720489502
aF3.141566514968872
aa(lp43
F-1.2379215399371546
aF-1.0986693541156214
aF-2.3481503168689173
aF-0.741394344960348
aF1.578332543373108
aF3.141566514968872
aa(lp44
F-1.2379334608661097
aF-1.0986693541156214
aF-2.348234240208761
aF-0.629927937184469
aF1.5783085823059082
aF3.141554594039917
aa(lp45
F-1.2380054632769983
aF-1.0986693541156214
aF-2.3482583204852503
aF-0.5209716002093714
aF1.578236699104309
aF3.141554594039917
aa(lp46
F-1.2380054632769983
aF-1.0986931959735315
aF-2.348342005406515
aF-0.405128304158346
aF1.5775659084320068
aF3.141554594039917
aa(lp47
F-1.2380169073687952
aF-1.0986812750445765
aF-2.3484378496753138
aF-0.29084808031191045
aF1.5773146152496338
aF3.141554594039917
aa(lp48
F-1.2380650679217737
aF-1.0986931959735315
aF-2.3485453764544886
aF-0.19286090532411748
aF1.577290654182434
aF3.141542673110962
aa(lp49
F-1.2381728331195276
aF-1.0986693541156214
aF-2.3486290613757532
aF-0.08062869707216436
aF1.5772666931152344
aF3.141554594039917
aa(lp50
F-1.238316837941305
aF-1.0986574331866663
aF-2.3487609068499964
aF0.019781827926635742
aF1.5771708488464355
aF3.141578435897827
aa(lp51
F-1.2388313452350062
aF-1.0986574331866663
aF-2.34894043604006
aF0.11510813236236572
aF1.5764881372451782
aF3.141542673110962
aa(lp52
F-1.2400286833392542
aF-1.0986335913287562
aF-2.3492637316333216
aF0.20925581455230713
aF1.573338508605957
aF3.141566514968872
aa(lp53
F-1.2403276602374476
aF-1.0986693541156214
aF-2.350520197545187
aF0.2872124910354614
aF1.5671231746673584
aF3.1415061950683594
aa(lp54
F-1.2403038183795374
aF-1.0986812750445765
aF-2.355056349431173
aF0.34171855449676514
aF1.5636141300201416
aF3.141554594039917
aa(lp55
F-1.2403276602374476
aF-1.0986574331866663
aF-2.363457504902975
aF0.37102556228637695
aF1.5627999305725098
aF3.141554594039917
aa(lp56
F-1.2402799765216272
aF-1.0986693541156214
aF-2.371452871953146
aF0.37112152576446533
aF1.5628718137741089
aF3.141542673110962
aa(lp57
F-1.2402799765216272
aF-1.0987055937396448
aF-2.3753066698657435
aF0.3710136413574219
aF1.5629076957702637
aF3.1415181159973145
aa(lp58
F-1.2402437368976038
aF-1.0986931959735315
aF-2.3753421942340296
aF0.3708702325820923
aF1.5629912614822388
aF3.141542673110962
aa(lp59
F-1.2402680555926722
aF-1.0987055937396448
aF-2.3753302733050745
aF0.37083423137664795
aF1.5630391836166382
aF3.141542673110962
aa(lp60
F-1.2402918974505823
aF-1.0987055937396448
aF-2.3753066698657435
aF0.37081027030944824
aF1.5630391836166382
aF3.1415181159973145
aa(lp61
F-1.2402680555926722
aF-1.0986812750445765
aF-2.375282589589254
aF0.37081027030944824
aF1.563063144683838
aF3.1415061950683594
aa(lp62
F-1.240256134663717
aF-1.0987170378314417
aF-2.375378195439474
aF0.3707503080368042
aF1.5630751848220825
aF3.141554594039917
aa(lp63
F-1.240256134663717
aF-1.0987055937396448
aF-2.375378195439474
aF0.37079834938049316
aF1.5630751848220825
aF3.141554594039917
aa(lp64
F-1.2402198950396937
aF-1.0986931959735315
aF-2.3759287039386194
aF0.37079834938049316
aF1.563027262687683
aF3.1415181159973145
aa(lp65
F-1.2402680555926722
aF-1.0986693541156214
aF-2.380990807210104
aF0.37078630924224854
aF1.563063144683838
aF3.141542673110962
aa(lp66
F-1.2402918974505823
aF-1.0986812750445765
aF-2.3883753458606165
aF0.3707263469696045
aF1.563063144683838
aF3.1415181159973145
aa(lp67
F-1.2403996626483362
aF-1.0986693541156214
aF-2.3899315039264124
aF0.3706784248352051
aF1.563027262687683
aF3.141554594039917
aa(lp68
F-1.2410462538348597
aF-1.0987055937396448
aF-2.3899315039264124
aF0.3707503080368042
aF1.5630512237548828
aF3.141554594039917
aa(lp69
F-1.2437036673175257
aF-1.0987170378314417
aF-2.389883581792013
aF0.3707263469696045
aF1.5630871057510376
aF3.1415061950683594
aa(lp70
F-1.2464211622821253
aF-1.0987055937396448
aF-2.3898475805865687
aF0.3706784248352051
aF1.5630871057510376
aF3.141566514968872
aa(lp71
F-1.2532442251788538
aF-1.0987170378314417
aF-2.389895502720968
aF0.3706904649734497
aF1.5630512237548828
aF3.1415181159973145
aa(lp72
F-1.256620232258932
aF-1.0987532774554651
aF-2.389871660863058
aF0.3707144260406494
aF1.5630751848220825
aF3.141542673110962
aa(lp73
F-1.2566559950457972
aF-1.09874135652651
aF-2.3899315039264124
aF0.3706904649734497
aF1.5630391836166382
aF3.1415181159973145
aa(lp74
F-1.257972542439596
aF-1.0986931959735315
aF-2.389787737523214
aF0.3706904649734497
aF1.5630751848220825
aF3.141554594039917
aa(lp75
F-1.268914047871725
aF-1.0987170378314417
aF-2.38975173631777
aF0.3706784248352051
aF1.5630991458892822
aF3.141542673110962
aa(lp76
F-1.2949731985675257
aF-1.09874135652651
aF-2.389535967503683
aF0.37066650390625
aF1.5630391836166382
aF3.1415181159973145
aa(lp77
F-1.3289788405047815
aF-1.09874135652651
aF-2.389297072087423
aF0.37066650390625
aF1.5631110668182373
aF3.141542673110962
aa(lp78
F-1.3653762976275843
aF-1.0987651983844202
aF-2.389177147542135
aF0.37066650390625
aF1.5631589889526367
aF3.141578435897827
aa(lp79
F-1.4114535490619105
aF-1.0988372007953089
aF-2.3884952704059046
aF0.37065446376800537
aF1.563183069229126
aF3.1415181159973145
aa(lp80
F-1.4596932570086878
aF-1.0989449659930628
aF-2.3852036635028284
aF0.3707144260406494
aF1.5631470680236816
aF3.141554594039917
aa(lp81
F-1.504735294972555
aF-1.0989449659930628
aF-2.3789685408221644
aF0.3706425428390503
aF1.563135027885437
aF3.141542673110962
aa(lp82
F-1.5490682760821741
aF-1.0990765730487269
aF-2.37402588525881
aF0.37065446376800537
aF1.5631470680236816
aF3.141566514968872
aa(lp83
F-1.5957077185260218
aF-1.0997594038592737
aF-2.370136086140768
aF0.3706425428390503
aF1.5631110668182373
aF3.141554594039917
aa(lp84
F-1.637749973927633
aF-1.1007903257953089
aF-2.3688436190234583
aF0.3706784248352051
aF1.5631710290908813
aF3.141542673110962
aa(lp85
F-1.6818602720843714
aF-1.1022160688983362
aF-2.3686519304858606
aF0.37066650390625
aF1.563183069229126
aF3.141566514968872
aa(lp86
F-1.724377457295553
aF-1.1046841780291956
aF-2.3684006373034876
aF0.37063050270080566
aF1.5631589889526367
aF3.141542673110962
aa(lp87
F-1.765683952962057
aF-1.108950440083639
aF-2.3672760168658655
aF0.37063050270080566
aF1.563194990158081
aF3.1414942741394043
aa(lp88
F-1.8028267065631312
aF-1.1143301169024866
aF-2.367072407399313
aF0.37065446376800537
aF1.5632309913635254
aF3.141554594039917
aa(lp89
F-1.8403986136065882
aF-1.1199501196490687
aF-2.367072407399313
aF0.3706425428390503
aF1.5631710290908813
aF3.1415181159973145
aa(lp90
F-1.8700507322894495
aF-1.1245272795306605
aF-2.367108170186178
aF0.37063050270080566
aF1.563135027885437
aF3.141554594039917
aa(lp91
F-1.8998335043536585
aF-1.1280024687396448
aF-2.367108170186178
aF0.37063050270080566
aF1.5631589889526367
aF3.141554594039917
aa(lp92
F-1.9229901472674769
aF-1.1283381620990198
aF-2.3672876993762415
aF0.37065446376800537
aF1.563183069229126
aF3.141554594039917
aa(lp93
F-1.9353583494769495
aF-1.1283019224749964
aF-2.3678141275988978
aF0.37066650390625
aF1.563183069229126
aF3.141554594039917
aa(lp94
F-1.9373434225665491
aF-1.1283257643329065
aF-2.3679819742785853
aF0.3706425428390503
aF1.5631589889526367
aF3.141554594039917
aa(lp95
F-1.937319580708639
aF-1.12836200395693
aF-2.3679099718676966
aF0.37063050270080566
aF1.5632070302963257
aF3.1415061950683594
aa(lp96
F-1.9373553434955042
aF-1.1284335295306605
aF-2.3677783648120325
aF0.37065446376800537
aF1.5631589889526367
aF3.1415181159973145
aa(lp97
F-1.9373434225665491
aF-1.1302550474749964
aF-2.3666535059558313
aF0.37065446376800537
aF1.563183069229126
aF3.1415181159973145
aa(lp98
F-1.937319580708639
aF-1.1377800146686
aF-2.361997667943136
aF0.3706425428390503
aF1.5631710290908813
aF3.141542673110962
aa(lp99
F-1.9373553434955042
aF-1.1576350370990198
aF-2.3412447611438196
aF0.3706185817718506
aF1.563135027885437
aF3.141542673110962
aa(lp100
F-1.9373434225665491
aF-1.1910913626300257
aF-2.305398766194479
aF0.3706904649734497
aF1.563183069229126
aF3.1415181159973145
aa(lp101
F-1.937331501637594
aF-1.2314866224872034
aF-2.2685583273517054
aF0.37065446376800537
aF1.563194990158081
aF3.1415061950683594
aa(lp102
F-1.937331501637594
aF-1.2785809675799769
aF-2.231787983571188
aF0.37063050270080566
aF1.5631710290908813
aF3.141554594039917
aa(lp103
F-1.9372594992267054
aF-1.3348920981036585
aF-2.190108601246969
aF0.3701751232147217
aF1.5631710290908813
aF3.141554594039917
aa(lp104
F-1.937211815510885
aF-1.385188404713766
aF-2.1510008017169397
aF0.37005531787872314
aF1.5631589889526367
aF3.1415181159973145
aa(lp105
F-1.9371040503131312
aF-1.4392741362201136
aF-2.1048882643329065
aF0.36993539333343506
aF1.563183069229126
aF3.141554594039917
aa(lp106
F-1.9364941755877894
aF-1.492126766835348
aF-2.0556610266314905
aF0.3694084882736206
aF1.5631589889526367
aF3.1415181159973145
aa(lp107
F-1.9349873701678675
aF-1.5428345839129847
aF-2.0069811979876917
aF0.3693366050720215
aF1.5632309913635254
aF3.141554594039917
aa(lp108
F-1.9270690123187464
aF-1.5937126318561
aF-1.9565494696246546
aF0.3693126440048218
aF1.5631470680236816
aF3.141566514968872
aa(lp109
F-1.9086969534503382
aF-1.6367891470538538
aF-1.911670986806051
aF0.36928868293762207
aF1.563183069229126
aF3.141566514968872
aa(lp110
F-1.8827889601336878
aF-1.67535907426943
aF-1.8661072889911097
aF0.36928868293762207
aF1.563194990158081
aF3.141542673110962
aa(lp111
F-1.8532450834857386
aF-1.712395970021383
aF-1.815235439931051
aF0.36926472187042236
aF1.563183069229126
aF3.141566514968872
aa(lp112
F-1.8274801413165491
aF-1.7432363669024866
aF-1.7660124937640589
aF0.36927664279937744
aF1.563183069229126
aF3.1415181159973145
aa(lp113
F-1.8023837248431605
aF-1.7707331816302698
aF-1.7166665236102503
aF0.36927664279937744
aF1.5631710290908813
aF3.1415181159973145
aa(lp114
F-1.7742489019977015
aF-1.7974517981158655
aF-1.6664179007159632
aF0.36934852600097656
aF1.5631589889526367
aF3.1415061950683594
aa(lp115
F-1.747932259236471
aF-1.8199628035174769
aF-1.6248152891742151
aF0.3693726062774658
aF1.5632070302963257
aF3.141542673110962
aa(lp116
F-1.7193525473224085
aF-1.8425219694720667
aF-1.584754769002096
aF0.36932456493377686
aF1.5631470680236816
aF3.141554594039917
aa(lp117
F-1.6900909582721155
aF-1.8633673826800745
aF-1.5500596205340784
aF0.36934852600097656
aF1.563183069229126
aF3.1415181159973145
aa(lp118
F-1.6643098036395472
aF-1.8799217383014124
aF-1.524492088948385
aF0.3693965673446655
aF1.563194990158081
aF3.141542673110962
aa(lp119
F-1.634496037160055
aF-1.8988855520831507
aF-1.4972098509417933
aF0.36934852600097656
aF1.563194990158081
aF3.141554594039917
aa(lp120
F-1.6049559752093714
aF-1.9166744391070765
aF-1.4727190176593226
aF0.3693366050720215
aF1.563183069229126
aF3.141566514968872
aa(lp121
F-1.5798423925982874
aF-1.9315627256976526
aF-1.4534629026996058
aF0.36942052841186523
aF1.563194990158081
aF3.141554594039917
aa(lp122
F-1.550192658101217
aF-1.9481051603900355
aF-1.433523956929342
aF0.3693605661392212
aF1.563183069229126
aF3.141482353210449
aa(lp123
F-1.5209973494159144
aF-1.964731518422262
aF-1.4160650412188929
aF0.3693726062774658
aF1.563194990158081
aF3.141554594039917
aa(lp124
F-1.4926136175738733
aF-1.9810708204852503
aF-1.4007981459247034
aF0.3693845272064209
aF1.563123106956482
aF3.141566514968872
aa(lp125
F-1.4674361387835901
aF-1.9957802931415003
aF-1.3906119505511683
aF0.36934852600097656
aF1.5631710290908813
aF3.1415181159973145
aa(lp126
F-1.4413960615741175
aF-2.0092061201678675
aF-1.3859980742083948
aF0.3693605661392212
aF1.563183069229126
aF3.141554594039917
aa(lp127
F-1.4184306303607386
aF-2.0205348173724573
aF-1.3846796194659632
aF0.3693726062774658
aF1.5631589889526367
aF3.141554594039917
aa(lp128
F-1.3961828390704554
aF-2.026912514363424
aF-1.3847039381610315
aF0.36932456493377686
aF1.5631710290908813
aF3.1415181159973145
aa(lp129
F-1.373610798512594
aF-2.0292022863971155
aF-1.384763542805807
aF0.3693845272064209
aF1.563183069229126
aF3.141566514968872
aa(lp130
F-1.3558967749225062
aF-2.0307844320880335
aF-1.3848117033587855
aF0.3693845272064209
aF1.563183069229126
aF3.1415061950683594
aa(lp131
F-1.3420613447772425
aF-2.033973519002096
aF-1.3849433104144495
aF0.3693366050720215
aF1.563194990158081
aF3.141542673110962
aa(lp132
F-1.332522217427389
aF-2.0404227415667933
aF-1.3851950804339808
aF0.3693366050720215
aF1.5632070302963257
aF3.141554594039917
aa(lp133
F-1.3260701338397425
aF-2.050385300313131
aF-1.3853872458087366
aF0.3693605661392212
aF1.5632189512252808
aF3.141566514968872
aa(lp134
F-1.324202839528219
aF-2.0599754492389124
aF-1.3857463041888636
aF0.3693726062774658
aF1.563183069229126
aF3.1415061950683594
aa(lp135
F-1.324202839528219
aF-2.067695442830221
aF-1.3858659903155726
aF0.3693605661392212
aF1.5631470680236816
aF3.1415181159973145
aa(lp136
F-1.3242266813861292
aF-2.076207462941305
aF-1.386153523121969
aF0.3693366050720215
aF1.5631710290908813
aF3.1415061950683594
aa(lp137
F-1.3241670767413538
aF-2.0843594709979456
aF-1.3867047468768519
aF0.36932456493377686
aF1.5631710290908813
aF3.141554594039917
aa(lp138
F-1.3241789976703089
aF-2.0906289259540003
aF-1.3871844450580042
aF0.36932456493377686
aF1.5631710290908813
aF3.141554594039917
aa(lp139
F-1.3241789976703089
aF-2.0968268553363245
aF-1.3874481360064905
aF0.36932456493377686
aF1.563183069229126
aF3.1415181159973145
aa(lp140
F-1.324202839528219
aF-2.1033366362201136
aF-1.387615982686178
aF0.36932456493377686
aF1.563183069229126
aF3.141542673110962
aa(lp141
F-1.3242266813861292
aF-2.110553566609518
aF-1.3876755873309534
aF0.3693366050720215
aF1.5631710290908813
aF3.141566514968872
aa(lp142
F-1.3242266813861292
aF-2.116044346486227
aF-1.3876636664019983
aF0.36930060386657715
aF1.563183069229126
aF3.1415181159973145
aa(lp143
F-1.3242505232440394
aF-2.1173389593707483
aF-1.387627903615133
aF0.36932456493377686
aF1.563183069229126
aF3.141542673110962
aa(lp144
F-1.3242386023150843
aF-2.117422882710592
aF-1.3876994291888636
aF0.36932456493377686
aF1.5632070302963257
aF3.141566514968872
aa(lp145
F-1.3242748419391077
aF-2.117434803639547
aF-1.3876879850970667
aF0.3693126440048218
aF1.563183069229126
aF3.141542673110962
aa(lp146
F-1.3242147604571741
aF-2.117722813283102
aF-1.3878071943866175
aF0.36930060386657715
aF1.5632189512252808
aF3.141542673110962
aa(lp147
F-1.3242386023150843
aF-2.1181305090533655
aF-1.388071362172262
aF0.36930060386657715
aF1.563194990158081
aF3.141542673110962
aa(lp148
F-1.3242505232440394
aF-2.118394200001852
aF-1.3884785811053675
aF0.36930060386657715
aF1.563194990158081
aF3.1415181159973145
aa(lp149
F-1.3242266813861292
aF-2.1186216513263147
aF-1.3892338911639612
aF0.3693366050720215
aF1.563194990158081
aF3.1415181159973145
aa.