(lp0
(lp1
F-1.2376940886126917
aF-1.0989325682269495
aF-2.025395218526022
aF-1.5564325491534632
aF1.5806676149368286
aF3.1416025161743164
aa(lp2
F-1.237753693257467
aF-1.0989206472979944
aF-2.025407139454977
aF-1.556420628224508
aF1.580715537071228
aF3.1416144371032715
aa(lp3
F-1.23771840730776
aF-1.0988972822772425
aF-2.0253713766681116
aF-1.5564325491534632
aF1.580703616142273
aF3.1416025161743164
aa(lp4
F-1.237729851399557
aF-1.0989092032061976
aF-2.0253594557391565
aF-1.5564325491534632
aF1.5806796550750732
aF3.1416144371032715
aa.