(lp0
(lp1
F-1.5216429869281214
aF-1.8021987120257776
aF-1.8139899412738245
aF-0.9700701872455042
aF1.5399501323699951
aF-0.019928757344381154
aa(lp2
F-1.5216549078570765
aF-1.8022106329547327
aF-1.8140018622027796
aF-0.970046345387594
aF1.5399737358093262
aF-0.01995259920229131
aa(lp3
F-1.5216668287860315
aF-1.8021987120257776
aF-1.8139780203448694
aF-0.9701183477984827
aF1.5399616956710815
aF-0.019988838826314748
aa(lp4
F-1.5216072241412562
aF-1.8022106329547327
aF-1.8139899412738245
aF-0.9700945059405726
aF1.5399616956710815
aF-0.019928757344381154
aa(lp5
F-1.5216429869281214
aF-1.8021743933307093
aF-1.8140018622027796
aF-0.9700825850116175
aF1.5399616956710815
aF-0.019928757344381154
aa(lp6
F-1.5216072241412562
aF-1.8022106329547327
aF-1.8140137831317347
aF-0.9700825850116175
aF1.5399501323699951
aF-0.019916836415426076
aa(lp7
F-1.5216429869281214
aF-1.8022106329547327
aF-1.8139899412738245
aF-0.9700825850116175
aF1.5399616956710815
aF-0.01995259920229131
aa(lp8
F-1.5216668287860315
aF-1.8021987120257776
aF-1.8139899412738245
aF-0.9700701872455042
aF1.5399261713027954
aF-0.01995259920229131
aa(lp9
F-1.5216787497149866
aF-1.8021987120257776
aF-1.8139899412738245
aF-0.9700701872455042
aF1.5399501323699951
aF-0.01995259920229131
aa(lp10
F-1.5216549078570765
aF-1.8021624724017542
aF-1.8139899412738245
aF-0.9700701872455042
aF1.5399501323699951
aF-0.019928757344381154
aa(lp11
F-1.5216310659991663
aF-1.8022225538836878
aF-1.8139899412738245
aF-0.9700825850116175
aF1.5399737358093262
aF-0.01997691789735967
aa(lp12
F-1.5216549078570765
aF-1.8021987120257776
aF-1.8140018622027796
aF-0.9700582663165491
aF1.5399616956710815
aF-0.019928757344381154
aa(lp13
F-1.5216668287860315
aF-1.8022106329547327
aF-1.8139899412738245
aF-0.9700701872455042
aF1.5399380922317505
aF-0.019928757344381154
aa(lp14
F-1.5216549078570765
aF-1.8021987120257776
aF-1.8139899412738245
aF-0.9700701872455042
aF1.5399616956710815
aF-0.019928757344381154
aa(lp15
F-1.5216549078570765
aF-1.8022106329547327
aF-1.8139660994159144
aF-0.970046345387594
aF1.5399380922317505
aF-0.019928757344381154
aa(lp16
F-1.5216429869281214
aF-1.8022106329547327
aF-1.8139899412738245
aF-0.9700825850116175
aF1.5399141311645508
aF-0.019928757344381154
aa(lp17
F-1.5216668287860315
aF-1.8021867910968226
aF-1.8139899412738245
aF-0.9700945059405726
aF1.5399616956710815
aF-0.019916836415426076
aa(lp18
F-1.5216429869281214
aF-1.8022106329547327
aF-1.8140018622027796
aF-0.9700701872455042
aF1.5399616956710815
aF-0.019928757344381154
aa(lp19
F-1.5216787497149866
aF-1.8021987120257776
aF-1.8139660994159144
aF-0.970046345387594
aF1.5399856567382812
aF-0.01996499696840459
aa(lp20
F-1.5216549078570765
aF-1.8022344748126429
aF-1.8139899412738245
aF-0.9700825850116175
aF1.5399616956710815
aF-0.019940678273336232
aa(lp21
F-1.5216429869281214
aF-1.8022106329547327
aF-1.8139899412738245
aF-0.9701064268695276
aF1.5399616956710815
aF-0.019928757344381154
aa(lp22
F-1.5216787497149866
aF-1.8021987120257776
aF-1.8139899412738245
aF-0.970034424458639
aF1.5399501323699951
aF-0.01995259920229131
aa(lp23
F-1.5216906706439417
aF-1.8021743933307093
aF-1.8139780203448694
aF-0.9701064268695276
aF1.5399856567382812
aF-0.019928757344381154
aa(lp24
F-1.5216668287860315
aF-1.802258316670553
aF-1.8140137831317347
aF-0.9700825850116175
aF1.5399616956710815
aF-0.01995259920229131
aa(lp25
F-1.5217865149127405
aF-1.8021987120257776
aF-1.813953701649801
aF-0.970034424458639
aF1.5399737358093262
aF-0.019928757344381154
aa(lp26
F-1.5217626730548304
aF-1.802258316670553
aF-1.813953701649801
aF-0.970034424458639
aF1.5399380922317505
aF-0.01995259920229131
aa(lp27
F-1.5217507521258753
aF-1.802258316670553
aF-1.8138940970050257
aF-0.9700701872455042
aF1.5399616956710815
aF-0.019928757344381154
aa(lp28
F-1.5217626730548304
aF-1.8023064772235315
aF-1.8138697783099573
aF-0.9700825850116175
aF1.5399616956710815
aF-0.01989299455751592
aa(lp29
F-1.5217388311969202
aF-1.8025220076190394
aF-1.8139179388629358
aF-0.970046345387594
aF1.5399380922317505
aF-0.01997691789735967
aa(lp30
F-1.5217626730548304
aF-1.8029654661761683
aF-1.8135946432696741
aF-0.9700582663165491
aF1.5399616956710815
aF-0.019988838826314748
aa(lp31
F-1.5218103567706507
aF-1.8043196837054651
aF-1.8121097723590296
aF-0.9700582663165491
aF1.5399737358093262
aF-0.019928757344381154
aa(lp32
F-1.5218341986285608
aF-1.8075688521014612
aF-1.8096783796893519
aF-0.970034424458639
aF1.5399616956710815
aF-0.019928757344381154
aa(lp33
F-1.5218823591815394
aF-1.8136938253985804
aF-1.8060019651996058
aF-0.9700945059405726
aF1.5399501323699951
aF-0.019916836415426076
aa(lp34
F-1.5223491827594202
aF-1.8223002592669886
aF-1.801917854939596
aF-0.9700825850116175
aF1.5399380922317505
aF-0.01995259920229131
aa(lp35
F-1.523330036793844
aF-1.8318780104266565
aF-1.796600643788473
aF-0.9701302687274378
aF1.5399501323699951
aF-0.019940678273336232
aa(lp36
F-1.5250533262835901
aF-1.843696419392721
aF-1.7876785437213343
aF-0.9700701872455042
aF1.5399616956710815
aF-0.01996499696840459
aa(lp37
F-1.5266087690936487
aF-1.85516864458193
aF-1.7756899038897913
aF-0.9700945059405726
aF1.5399616956710815
aF-0.01995259920229131
aa(lp38
F-1.5273268858539026
aF-1.8692892233477991
aF-1.758982006703512
aF-0.9701183477984827
aF1.5399616956710815
aF-0.01997691789735967
aa(lp39
F-1.5273988882647913
aF-1.8841169516192835
aF-1.7396391073810022
aF-0.9700582663165491
aF1.5399501323699951
aF-0.019928757344381154
aa(lp40
F-1.5273507277118128
aF-1.8990772406207483
aF-1.7193134466754358
aF-0.9700582663165491
aF1.5399616956710815
aF-0.019940678273336232
aa(lp41
F-1.5273626486407679
aF-1.9128864447223108
aF-1.700496021901266
aF-0.970046345387594
aF1.5399501323699951
aF-0.019940678273336232
aa(lp42
F-1.5273388067828577
aF-1.925628964100973
aF-1.683284107838766
aF-0.9700701872455042
aF1.5399501323699951
aF-0.019916836415426076
aa(lp43
F-1.5273268858539026
aF-1.9369085470782679
aF-1.6675918737994593
aF-0.9700825850116175
aF1.5399616956710815
aF-0.01995259920229131
aa(lp44
F-1.5273388067828577
aF-1.9477456251727503
aF-1.6519478003131312
aF-0.970034424458639
aF1.5399616956710815
aF-0.019916836415426076
aa(lp45
F-1.5273626486407679
aF-1.9580910841571253
aF-1.6369383970843714
aF-0.9700825850116175
aF1.5399616956710815
aF-0.019928757344381154
aa(lp46
F-1.5273626486407679
aF-1.966614071522848
aF-1.6243956724749964
aF-0.9700825850116175
aF1.5399616956710815
aF-0.019928757344381154
aa(lp47
F-1.5273388067828577
aF-1.9755566755877894
aF-1.6108110586749476
aF-0.9700945059405726
aF1.5399261713027954
aF-0.019916836415426076
aa(lp48
F-1.5273626486407679
aF-1.9843795935260218
aF-1.5981243292437952
aF-0.9700701872455042
aF1.5399501323699951
aF-0.01995259920229131
aa(lp49
F-1.527386490498678
aF-1.9930232206927698
aF-1.585473362599508
aF-0.9700582663165491
aF1.5399737358093262
aF-0.019928757344381154
aa(lp50
F-1.527374569569723
aF-1.9998558203326624
aF-1.5756738821612757
aF-0.9700701872455042
aF1.5399616956710815
aF-0.01989299455751592
aa(lp51
F-1.5273988882647913
aF-2.0075042883502405
aF-1.5651190916644495
aF-0.9700825850116175
aF1.5399380922317505
aF-0.019940678273336232
aa(lp52
F-1.527386490498678
aF-2.0157039801227015
aF-1.5545523802386683
aF-0.9700825850116175
aF1.5399856567382812
aF-0.01995259920229131
aa(lp53
F-1.527386490498678
aF-2.0232203642474573
aF-1.5455907026873987
aF-0.9701903502093714
aF1.5399380922317505
aF-0.019916836415426076
aa(lp54
F-1.5273268858539026
aF-2.028470818196432
aF-1.5386179129229944
aF-0.9702022711383265
aF1.5399616956710815
aF-0.019928757344381154
aa(lp55
F-1.5273507277118128
aF-2.033278290425436
aF-1.530362908040182
aF-0.9701903502093714
aF1.5399261713027954
aF-0.019928757344381154
aa(lp56
F-1.527386490498678
aF-2.036874596272604
aF-1.521820370350973
aF-0.9702022711383265
aF1.5399380922317505
aF-0.019916836415426076
aa(lp57
F-1.5273626486407679
aF-2.0391882101642054
aF-1.5124028364764612
aF-0.9702022711383265
aF1.5399616956710815
aF-0.019916836415426076
aa(lp58
F-1.5273268858539026
aF-2.0403149763690394
aF-1.5014036337481897
aF-0.9702141920672815
aF1.5399501323699951
aF-0.019928757344381154
aa(lp59
F-1.5273268858539026
aF-2.040494743977682
aF-1.4902609030352991
aF-0.9701903502093714
aF1.5399380922317505
aF-0.01995259920229131
aa(lp60
F-1.5273268858539026
aF-2.0405548254596155
aF-1.4815734068499964
aF-0.9701903502093714
aF1.5399616956710815
aF-0.019928757344381154
aa(lp61
F-1.5273149649249476
aF-2.0407827536212366
aF-1.4734256903277796
aF-0.9702141920672815
aF1.5399737358093262
aF-0.019916836415426076
aa(lp62
F-1.5272553602801722
aF-2.041501824055807
aF-1.4676983992206019
aF-0.9701784292804163
aF1.5399856567382812
aF-0.019928757344381154
aa(lp63
F-1.527266804371969
aF-2.043000046406881
aF-1.465062443410055
aF-0.9701421896563929
aF1.5399616956710815
aF-0.019904915486470998
aa(lp64
F-1.5272553602801722
aF-2.0461891333209437
aF-1.462989632283346
aF-0.9701665083514612
aF1.5399616956710815
aF-0.019928757344381154
aa(lp65
F-1.5273268858539026
aF-2.050360981618063
aF-1.4620431105243128
aF-0.9702141920672815
aF1.5399856567382812
aF-0.019916836415426076
aa(lp66
F-1.5273149649249476
aF-2.0541847387896937
aF-1.4615519682513636
aF-0.9701784292804163
aF1.5399380922317505
aF-0.01989299455751592
aa(lp67
F-1.5273268858539026
aF-2.059579674397604
aF-1.4593351523028772
aF-0.9702261129962366
aF1.5399616956710815
aF-0.019928757344381154
aa(lp68
F-1.5273507277118128
aF-2.063727680836813
aF-1.456543270741598
aF-0.9702261129962366
aF1.5399737358093262
aF-0.019916836415426076
aa(lp69
F-1.5273030439959925
aF-2.0682953039752405
aF-1.4523375670062464
aF-0.9701665083514612
aF1.5399261713027954
aF-0.019928757344381154
aa(lp70
F-1.5273388067828577
aF-2.074888531361715
aF-1.4434579054461878
aF-0.9702141920672815
aF1.5399737358093262
aF-0.019916836415426076
aa(lp71
F-1.5273268858539026
aF-2.0835440794574183
aF-1.4305403868304651
aF-0.9702022711383265
aF1.5399501323699951
aF-0.019916836415426076
aa(lp72
F-1.5273507277118128
aF-2.0930870215045374
aF-1.4172032515155237
aF-0.9701903502093714
aF1.5399616956710815
aF-0.019928757344381154
aa(lp73
F-1.5273030439959925
aF-2.102029625569479
aF-1.4053757826434534
aF-0.9701665083514612
aF1.5399616956710815
aF-0.019940678273336232
aa(lp74
F-1.5273268858539026
aF-2.1126039663897913
aF-1.3918097654925745
aF-0.9701903502093714
aF1.5399501323699951
aF-0.019940678273336232
aa(lp75
F-1.5273149649249476
aF-2.120539967213766
aF-1.3814800421344202
aF-0.9701903502093714
aF1.5399261713027954
aF-0.019916836415426076
aa(lp76
F-1.5273388067828577
aF-2.1280210653888147
aF-1.371077839528219
aF-0.9701784292804163
aF1.5399501323699951
aF-0.019904915486470998
aa(lp77
F-1.5273030439959925
aF-2.133031670247213
aF-1.3641989866839808
aF-0.970154110585348
aF1.5399616956710815
aF-0.019928757344381154
aa(lp78
F-1.5273268858539026
aF-2.1355493704425257
aF-1.3612869421588343
aF-0.9701903502093714
aF1.5399380922317505
aF-0.019928757344381154
aa(lp79
F-1.5272787253009241
aF-2.13613731065859
aF-1.3608792463885706
aF-0.9702022711383265
aF1.5399501323699951
aF-0.01995259920229131
aa(lp80
F-1.5273149649249476
aF-2.1362088362323206
aF-1.3607714811908167
aF-0.9702261129962366
aF1.5399856567382812
aF-0.019928757344381154
aa(lp81
F-1.527266804371969
aF-2.136448685322897
aF-1.3605321089373987
aF-0.9702141920672815
aF1.5399380922317505
aF-0.019940678273336232
aa(lp82
F-1.5273030439959925
aF-2.137059990559713
aF-1.359669033681051
aF-0.9701903502093714
aF1.5399501323699951
aF-0.01995259920229131
aa(lp83
F-1.5272787253009241
aF-2.1379831472979944
aF-1.3581231276141565
aF-0.9701903502093714
aF1.5399501323699951
aF-0.01995259920229131
aa(lp84
F-1.5273149649249476
aF-2.1390746275531214
aF-1.35649282137026
aF-0.9702261129962366
aF1.5399261713027954
aF-0.019940678273336232
aa(lp85
F-1.5273149649249476
aF-2.140956226979391
aF-1.3534248510943812
aF-0.9702141920672815
aF1.5399616956710815
aF-0.019916836415426076
aa(lp86
F-1.5272787253009241
aF-2.143965546284811
aF-1.3484514395343226
aF-0.9701903502093714
aF1.5399261713027954
aF-0.019916836415426076
aa(lp87
F-1.527243439351217
aF-2.1469386259662073
aF-1.3436816374408167
aF-0.9702141920672815
aF1.5399616956710815
aF-0.019940678273336232
aa(lp88
F-1.5272787253009241
aF-2.149576012288229
aF-1.3395345846759241
aF-0.9702022711383265
aF1.5399737358093262
aF-0.019928757344381154
aa(lp89
F-1.5272787253009241
aF-2.1512306372271937
aF-1.3368619124041956
aF-0.9702623526202601
aF1.5399976968765259
aF-0.019928757344381154
aa(lp90
F-1.527231518422262
aF-2.1519859472857874
aF-1.335196320210592
aF-0.9701784292804163
aF1.5399616956710815
aF-0.019940678273336232
aa(lp91
F-1.5272906462298792
aF-2.152525250111715
aF-1.3344767729388636
aF-0.9702141920672815
aF1.5399141311645508
aF-0.019916836415426076
aa(lp92
F-1.5273268858539026
aF-2.1530407110797327
aF-1.3341777960406702
aF-0.9702141920672815
aF1.5399380922317505
aF-0.019940678273336232
aa(lp93
F-1.5272906462298792
aF-2.1538317839251917
aF-1.3339136282550257
aF-0.9702022711383265
aF1.5399501323699951
aF-0.01995259920229131
aa(lp94
F-1.5273626486407679
aF-2.155750099812643
aF-1.3331950346576136
aF-0.9701903502093714
aF1.5399616956710815
aF-0.01996499696840459
aa(lp95
F-1.5273388067828577
aF-2.1583874861346644
aF-1.3316128889666956
aF-0.9701903502093714
aF1.5399261713027954
aF-0.019940678273336232
aa(lp96
F-1.5273507277118128
aF-2.1621997992144983
aF-1.327477757130758
aF-0.9702261129962366
aF1.5399616956710815
aF-0.019916836415426076
aa(lp97
F-1.5273626486407679
aF-2.1660006682025355
aF-1.3207901159869593
aF-0.9702022711383265
aF1.5399380922317505
aF-0.019916836415426076
aa(lp98
F-1.5273988882647913
aF-2.1717432180987757
aF-1.309272591267721
aF-0.9702141920672815
aF1.5399616956710815
aF-0.01995259920229131
aa(lp99
F-1.5273268858539026
aF-2.1768983046161097
aF-1.2988570372210901
aF-0.9702022711383265
aF1.5399856567382812
aF-0.01989299455751592
aa(lp100
F-1.527374569569723
aF-2.1813696066485804
aF-1.2899401823626917
aF-0.9702380339251917
aF1.5399856567382812
aF-0.019928757344381154
aa(lp101
F-1.5273149649249476
aF-2.1849544684039515
aF-1.2833121458636683
aF-0.9702022711383265
aF1.5399501323699951
aF-0.01995259920229131
aa(lp102
F-1.5273030439959925
aF-2.1866448561297815
aF-1.2822087446795862
aF-0.9702022711383265
aF1.5399380922317505
aF-0.019916836415426076
aa(lp103
F-1.5273149649249476
aF-2.1873043219195765
aF-1.282184902821676
aF-0.9701665083514612
aF1.5399616956710815
aF-0.019940678273336232
aa(lp104
F-1.5273388067828577
aF-2.1873162428485315
aF-1.2821968237506312
aF-0.9702022711383265
aF1.5399501323699951
aF-0.019916836415426076
aa(lp105
F-1.5273030439959925
aF-2.1872924009906214
aF-1.2821968237506312
aF-0.9702022711383265
aF1.5399737358093262
aF-0.019928757344381154
aa(lp106
F-1.5273388067828577
aF-2.187268082295553
aF-1.2822330633746546
aF-0.9702022711383265
aF1.5399501323699951
aF-0.019916836415426076
aa(lp107
F-1.5273268858539026
aF-2.187244240437643
aF-1.2822330633746546
aF-0.9702022711383265
aF1.5399501323699951
aF-0.019916836415426076
aa(lp108
F-1.5273388067828577
aF-2.187268082295553
aF-1.2822330633746546
aF-0.9702022711383265
aF1.5399380922317505
aF-0.019940678273336232
aa(lp109
F-1.5273507277118128
aF-2.187232319508688
aF-1.2822569052325647
aF-0.9701903502093714
aF1.5399380922317505
aF-0.019940678273336232
aa(lp110
F-1.5273268858539026
aF-2.1872203985797327
aF-1.2822569052325647
aF-0.9702022711383265
aF1.5399737358093262
aF-0.019940678273336232
aa(lp111
F-1.527266804371969
aF-2.1872203985797327
aF-1.2822688261615198
aF-0.9702022711383265
aF1.5399261713027954
aF-0.019928757344381154
aa(lp112
F-1.5273030439959925
aF-2.1871965567218226
aF-1.282280747090475
aF-0.9701784292804163
aF1.5399616956710815
aF-0.019928757344381154
aa(lp113
F-1.5272553602801722
aF-2.1872084776507776
aF-1.2822449843036097
aF-0.9701903502093714
aF1.5399261713027954
aF-0.019940678273336232
aa(lp114
F-1.5272906462298792
aF-2.187232319508688
aF-1.2822688261615198
aF-0.9702141920672815
aF1.5399616956710815
aF-0.01995259920229131
aa(lp115
F-1.527266804371969
aF-2.187244240437643
aF-1.2822688261615198
aF-0.9701903502093714
aF1.5399501323699951
aF-0.01997691789735967
aa(lp116
F-1.527266804371969
aF-2.187268082295553
aF-1.2822569052325647
aF-0.9702380339251917
aF1.5399616956710815
aF-0.01995259920229131
aa(lp117
F-1.5273149649249476
aF-2.1872084776507776
aF-1.2822688261615198
aF-0.9702261129962366
aF1.5399261713027954
aF-0.019928757344381154
aa(lp118
F-1.5273030439959925
aF-2.187232319508688
aF-1.28229266801943
aF-0.9701421896563929
aF1.5399616956710815
aF-0.019988838826314748
aa(lp119
F-1.5273030439959925
aF-2.187268082295553
aF-1.2822688261615198
aF-0.9701903502093714
aF1.5399616956710815
aF-0.019904915486470998
aa(lp120
F-1.5273149649249476
aF-2.187232319508688
aF-1.282280747090475
aF-0.9701665083514612
aF1.5399616956710815
aF-0.019928757344381154
aa(lp121
F-1.5273030439959925
aF-2.187256161366598
aF-1.2823050657855433
aF-0.9702141920672815
aF1.5399616956710815
aF-0.019940678273336232
aa(lp122
F-1.5273149649249476
aF-2.1872203985797327
aF-1.28229266801943
aF-0.9702022711383265
aF1.5399380922317505
aF-0.019928757344381154
aa(lp123
F-1.5272553602801722
aF-2.1872203985797327
aF-1.2823050657855433
aF-0.9701421896563929
aF1.5399616956710815
aF-0.019916836415426076
aa(lp124
F-1.5272906462298792
aF-2.1872084776507776
aF-1.2823165098773401
aF-0.9701903502093714
aF1.5399501323699951
aF-0.019928757344381154
aa(lp125
F-1.5272787253009241
aF-2.187232319508688
aF-1.2823289076434534
aF-0.9701784292804163
aF1.5399501323699951
aF-0.01995259920229131
aa(lp126
F-1.5273268858539026
aF-2.1872084776507776
aF-1.2823527495013636
aF-0.9702022711383265
aF1.5399616956710815
aF-0.01996499696840459
aa(lp127
F-1.5272787253009241
aF-2.187244240437643
aF-1.2823408285724085
aF-0.9702261129962366
aF1.5399616956710815
aF-0.01995259920229131
aa(lp128
F-1.5273030439959925
aF-2.1872084776507776
aF-1.2823408285724085
aF-0.9701784292804163
aF1.5399616956710815
aF-0.019916836415426076
aa(lp129
F-1.527231518422262
aF-2.187244240437643
aF-1.2823765913592737
aF-0.9701903502093714
aF1.5399380922317505
aF-0.019916836415426076
aa(lp130
F-1.527266804371969
aF-2.187256161366598
aF-1.282388989125387
aF-0.9701784292804163
aF1.5399616956710815
aF-0.01995259920229131
aa(lp131
F-1.5272787253009241
aF-2.187268082295553
aF-1.2824371496783655
aF-0.9702261129962366
aF1.5399737358093262
aF-0.019940678273336232
aa(lp132
F-1.5272553602801722
aF-2.187232319508688
aF-1.2824490706073206
aF-0.9701903502093714
aF1.5399380922317505
aF-0.019928757344381154
aa(lp133
F-1.527266804371969
aF-2.1872203985797327
aF-1.2824371496783655
aF-0.9701903502093714
aF1.5399380922317505
aF-0.01995259920229131
aa(lp134
F-1.5273030439959925
aF-2.187232319508688
aF-1.2824490706073206
aF-0.9701784292804163
aF1.5399380922317505
aF-0.01995259920229131
aa(lp135
F-1.527266804371969
aF-2.187256161366598
aF-1.2824371496783655
aF-0.9701421896563929
aF1.5399501323699951
aF-0.019928757344381154
aa(lp136
F-1.5273030439959925
aF-2.187244240437643
aF-1.2824609915362757
aF-0.9701903502093714
aF1.5399616956710815
aF-0.01995259920229131
aa(lp137
F-1.5272553602801722
aF-2.1872203985797327
aF-1.2824609915362757
aF-0.9701784292804163
aF1.5399501323699951
aF-0.019916836415426076
aa(lp138
F-1.527266804371969
aF-2.1872084776507776
aF-1.2824729124652308
aF-0.9701665083514612
aF1.5399616956710815
aF-0.01995259920229131
aa(lp139
F-1.5272553602801722
aF-2.1872084776507776
aF-1.2824609915362757
aF-0.9701665083514612
aF1.5399616956710815
aF-0.019940678273336232
aa(lp140
F-1.5272191206561487
aF-2.187256161366598
aF-1.2824848333941858
aF-0.9701665083514612
aF1.5399976968765259
aF-0.019904915486470998
aa(lp141
F-1.5272787253009241
aF-2.1871841589557093
aF-1.2824490706073206
aF-0.9701784292804163
aF1.5399380922317505
aF-0.01995259920229131
aa(lp142
F-1.527231518422262
aF-2.187268082295553
aF-1.282496754323141
aF-0.9701903502093714
aF1.5399976968765259
aF-0.01995259920229131
aa(lp143
F-1.527266804371969
aF-2.1872084776507776
aF-1.2824848333941858
aF-0.9702261129962366
aF1.5399501323699951
aF-0.019928757344381154
aa(lp144
F-1.527266804371969
aF-2.187232319508688
aF-1.2824848333941858
aF-0.9701665083514612
aF1.5399380922317505
aF-0.019928757344381154
aa(lp145
F-1.527243439351217
aF-2.187268082295553
aF-1.2824848333941858
aF-0.9701903502093714
aF1.5399737358093262
aF-0.019928757344381154
aa(lp146
F-1.527266804371969
aF-2.187244240437643
aF-1.2824729124652308
aF-0.9701784292804163
aF1.5399616956710815
aF-0.01995259920229131
aa(lp147
F-1.5272787253009241
aF-2.187244240437643
aF-1.282496754323141
aF-0.9701903502093714
aF1.5399737358093262
aF-0.01995259920229131
aa(lp148
F-1.5272906462298792
aF-2.187232319508688
aF-1.282496754323141
aF-0.9701903502093714
aF1.5399616956710815
aF-0.019940678273336232
aa(lp149
F-1.527266804371969
aF-2.1872084776507776
aF-1.2824848333941858
aF-0.9702261129962366
aF1.5399616956710815
aF-0.019904915486470998
aa(lp150
F-1.527266804371969
aF-2.187244240437643
aF-1.2824609915362757
aF-0.9701421896563929
aF1.5399501323699951
aF-0.019928757344381154
aa(lp151
F-1.5272553602801722
aF-2.187232319508688
aF-1.282496754323141
aF-0.9701903502093714
aF1.5399737358093262
aF-0.019940678273336232
aa(lp152
F-1.527231518422262
aF-2.1872203985797327
aF-1.2824848333941858
aF-0.9701784292804163
aF1.5399856567382812
aF-0.01995259920229131
aa(lp153
F-1.527243439351217
aF-2.187232319508688
aF-1.2824848333941858
aF-0.9701784292804163
aF1.5399616956710815
aF-0.019928757344381154
aa(lp154
F-1.527266804371969
aF-2.187172238026754
aF-1.2824848333941858
aF-0.9701784292804163
aF1.5399501323699951
aF-0.019940678273336232
aa(lp155
F-1.527266804371969
aF-2.187268082295553
aF-1.2824848333941858
aF-0.9702141920672815
aF1.5399501323699951
aF-0.019916836415426076
aa.