(lp0
(lp1
F-1.0725997130023401
aF-1.6582673231707972
aF-1.9821727911578577
aF-0.9694350401507776
aF1.5401414632797241
aF-0.020300213490621388
aa(lp2
F-1.0726235548602503
aF-1.658231560383932
aF-1.9821966330157679
aF-0.9694226423846644
aF1.5401175022125244
aF-0.020312134419576466
aa(lp3
F-1.0726116339312952
aF-1.658243481312887
aF-1.9821608702289026
aF-0.9694226423846644
aF1.5401175022125244
aF-0.020312134419576466
aa(lp4
F-1.0725753943072718
aF-1.6582191626178187
aF-1.982208553944723
aF-0.9694226423846644
aF1.5400935411453247
aF-0.020324532185689748
aa(lp5
F-1.0726235548602503
aF-1.658243481312887
aF-1.9821847120868128
aF-0.9694226423846644
aF1.5400935411453247
aF-0.020300213490621388
aa(lp6
F-1.072587792073385
aF-1.658243481312887
aF-1.982208553944723
aF-0.9693988005267542
aF1.5401175022125244
aF-0.020312134419576466
aa(lp7
F-1.0725997130023401
aF-1.6582673231707972
aF-1.9821847120868128
aF-0.9694350401507776
aF1.540129542350769
aF-0.02028829256166631
aa(lp8
F-1.0726235548602503
aF-1.6582673231707972
aF-1.9821966330157679
aF-0.9694350401507776
aF1.54008150100708
aF-0.020312134419576466
aa(lp9
F-1.072587792073385
aF-1.658255402241842
aF-1.9821727911578577
aF-0.9694708029376429
aF1.540129542350769
aF-0.020324532185689748
aa(lp10
F-1.0725997130023401
aF-1.658243481312887
aF-1.9821847120868128
aF-0.9694107214557093
aF1.5401054620742798
aF-0.02028829256166631
aa(lp11
F-1.0726116339312952
aF-1.6582191626178187
aF-1.9821966330157679
aF-0.9694107214557093
aF1.5401054620742798
aF-0.020312134419576466
aa(lp12
F-1.0726235548602503
aF-1.6582673231707972
aF-1.982208553944723
aF-0.9694469610797327
aF1.5401054620742798
aF-0.020312134419576466
aa(lp13
F-1.072587792073385
aF-1.6582673231707972
aF-1.9821966330157679
aF-0.9694350401507776
aF1.5400935411453247
aF-0.020312134419576466
aa(lp14
F-1.0726116339312952
aF-1.658243481312887
aF-1.9821847120868128
aF-0.9694708029376429
aF1.5401414632797241
aF-0.020312134419576466
aa(lp15
F-1.0726116339312952
aF-1.658243481312887
aF-1.9821966330157679
aF-0.9694350401507776
aF1.5401535034179688
aF-0.020324532185689748
aa(lp16
F-1.072587792073385
aF-1.6582673231707972
aF-1.9821608702289026
aF-0.9693988005267542
aF1.5401414632797241
aF-0.020324532185689748
aa(lp17
F-1.0725997130023401
aF-1.6582673231707972
aF-1.9821727911578577
aF-0.9694226423846644
aF1.540129542350769
aF-0.020312134419576466
aa(lp18
F-1.072587792073385
aF-1.6582673231707972
aF-1.9821727911578577
aF-0.9694226423846644
aF1.540129542350769
aF-0.020312134419576466
aa(lp19
F-1.0725753943072718
aF-1.6582673231707972
aF-1.9821608702289026
aF-0.9694588820086878
aF1.5400935411453247
aF-0.020312134419576466
aa(lp20
F-1.0726235548602503
aF-1.6582792440997522
aF-1.9821847120868128
aF-0.9693988005267542
aF1.5401175022125244
aF-0.020312134419576466
aa(lp21
F-1.0725753943072718
aF-1.658231560383932
aF-1.9821727911578577
aF-0.9694350401507776
aF1.5401175022125244
aF-0.020300213490621388
aa(lp22
F-1.072587792073385
aF-1.658255402241842
aF-1.9821727911578577
aF-0.9693988005267542
aF1.5401535034179688
aF-0.020312134419576466
aa(lp23
F-1.0726116339312952
aF-1.658231560383932
aF-1.9821847120868128
aF-0.9694350401507776
aF1.5401175022125244
aF-0.020312134419576466
aa(lp24
F-1.0725997130023401
aF-1.658255402241842
aF-1.9821847120868128
aF-0.9694469610797327
aF1.540129542350769
aF-0.020324532185689748
aa(lp25
F-1.0725997130023401
aF-1.6582673231707972
aF-1.982208553944723
aF-0.9694350401507776
aF1.540129542350769
aF-0.020312134419576466
aa(lp26
F-1.072587792073385
aF-1.6582673231707972
aF-1.9821727911578577
aF-0.9694226423846644
aF1.5401175022125244
aF-0.020324532185689748
aa(lp27
F-1.0725753943072718
aF-1.6582673231707972
aF-1.9821608702289026
aF-0.9694588820086878
aF1.5401414632797241
aF-0.020312134419576466
aa(lp28
F-1.0725997130023401
aF-1.658243481312887
aF-1.9821847120868128
aF-0.9694226423846644
aF1.540129542350769
aF-0.020300213490621388
aa(lp29
F-1.0725753943072718
aF-1.658255402241842
aF-1.982208553944723
aF-0.9694226423846644
aF1.54008150100708
aF-0.020312134419576466
aa(lp30
F-1.0726116339312952
aF-1.658255402241842
aF-1.9821727911578577
aF-0.9693868795977991
aF1.5401054620742798
aF-0.020312134419576466
aa(lp31
F-1.0725997130023401
aF-1.6582792440997522
aF-1.9821847120868128
aF-0.9694107214557093
aF1.5401054620742798
aF-0.020312134419576466
aa(lp32
F-1.0726473967181605
aF-1.658255402241842
aF-1.9821966330157679
aF-0.9694226423846644
aF1.5400935411453247
aF-0.020312134419576466
aa(lp33
F-1.0726116339312952
aF-1.6582191626178187
aF-1.9821727911578577
aF-0.9694469610797327
aF1.5401175022125244
aF-0.020312134419576466
aa(lp34
F-1.072587792073385
aF-1.658231560383932
aF-1.9821727911578577
aF-0.9694226423846644
aF1.5401175022125244
aF-0.020300213490621388
aa(lp35
F-1.0725515524493616
aF-1.658255402241842
aF-1.9821847120868128
aF-0.9693988005267542
aF1.5401535034179688
aF-0.020300213490621388
aa(lp36
F-1.0725515524493616
aF-1.6582673231707972
aF-1.982208553944723
aF-0.9694226423846644
aF1.5401535034179688
aF-0.020312134419576466
aa(lp37
F-1.0725515524493616
aF-1.6583150068866175
aF-1.9822686354266565
aF-0.9694226423846644
aF1.540129542350769
aF-0.020312134419576466
aa(lp38
F-1.0725277105914515
aF-1.65847093263735
aF-1.9824360052691858
aF-0.9694708029376429
aF1.54008150100708
aF-0.02028829256166631
aa(lp39
F-1.0725277105914515
aF-1.6586745421039026
aF-1.9826157728778284
aF-0.9693988005267542
aF1.5401054620742798
aF-0.020312134419576466
aa(lp40
F-1.072479550038473
aF-1.6587947050677698
aF-1.9825556913958948
aF-0.9693988005267542
aF1.5401175022125244
aF-0.020312134419576466
aa(lp41
F-1.0725038687335413
aF-1.6592381636248987
aF-1.982568089162008
aF-0.9694469610797327
aF1.5401535034179688
aF-0.020336453114644826
aa(lp42
F-1.0724919478045862
aF-1.66016132036318
aF-1.9825556913958948
aF-0.969374958668844
aF1.540129542350769
aF-0.020312134419576466
aa(lp43
F-1.0723841826068323
aF-1.662450138722555
aF-1.982568089162008
aF-0.9694350401507776
aF1.540129542350769
aF-0.020300213490621388
aa(lp44
F-1.0721562544452112
aF-1.6659744421588343
aF-1.9825919310199183
aF-0.9694469610797327
aF1.5401414632797241
aF-0.020312134419576466
aa(lp45
F-1.0715578238116663
aF-1.670852009450094
aF-1.9825199286090296
aF-0.9693988005267542
aF1.5401414632797241
aF-0.020324532185689748
aa(lp46
F-1.070216480885641
aF-1.6763179937945765
aF-1.982568089162008
aF-0.9694226423846644
aF1.5401054620742798
aF-0.020312134419576466
aa(lp47
F-1.0669835249530237
aF-1.681795899068014
aF-1.9825318495379847
aF-0.9693988005267542
aF1.5401175022125244
aF-0.02028829256166631
aa(lp48
F-1.0634506384478968
aF-1.687476936970846
aF-1.982579533253805
aF-0.9694350401507776
aF1.540129542350769
aF-0.020312134419576466
aa(lp49
F-1.0599058310138147
aF-1.6960352102862757
aF-1.982568089162008
aF-0.9694107214557093
aF1.5401535034179688
aF-0.020336453114644826
aa(lp50
F-1.0549243132220667
aF-1.7067864576922815
aF-1.982579533253805
aF-0.9694107214557093
aF1.5401175022125244
aF-0.020312134419576466
aa(lp51
F-1.0487692991839808
aF-1.7181013266192835
aF-1.982579533253805
aF-0.9694107214557093
aF1.5401414632797241
aF-0.020312134419576466
aa(lp52
F-1.0437873045550745
aF-1.7276666800128382
aF-1.9826157728778284
aF-0.9694226423846644
aF1.5401054620742798
aF-0.020324532185689748
aa(lp53
F-1.0371769110309046
aF-1.7357094923602503
aF-1.9827235380755823
aF-0.9694469610797327
aF1.540129542350769
aF-0.020312134419576466
aa(lp54
F-1.0301831404315394
aF-1.7396166960345667
aF-1.9838250319110315
aF-0.9694350401507776
aF1.540129542350769
aF-0.020312134419576466
aa(lp55
F-1.020937744771139
aF-1.7397006193744105
aF-1.9857285658465784
aF-0.9694107214557093
aF1.5401054620742798
aF-0.020312134419576466
aa(lp56
F-1.0103986899005335
aF-1.7396886984454554
aF-1.990206543599264
aF-0.9693988005267542
aF1.5400935411453247
aF-0.020312134419576466
aa(lp57
F-1.0017998854266565
aF-1.7396286169635218
aF-1.998923126851217
aF-0.969363037739889
aF1.5401774644851685
aF-0.02028829256166631
aa(lp58
F-0.9947574774371546
aF-1.7396286169635218
aF-2.0133145491229456
aF-0.9693988005267542
aF1.5401054620742798
aF-0.020312134419576466
aa(lp59
F-0.9919675032245081
aF-1.7395804564105433
aF-2.0255149046527308
aF-0.9694469610797327
aF1.5401535034179688
aF-0.020324532185689748
aa(lp60
F-0.9921229521380823
aF-1.7395685354815882
aF-2.0309861342059534
aF-0.9694350401507776
aF1.54008150100708
aF-0.020276371632711232
aa(lp61
F-0.9921229521380823
aF-1.7394965330706995
aF-2.0307467619525355
aF-0.9693868795977991
aF1.5401054620742798
aF-0.020300213490621388
aa(lp62
F-0.9921467939959925
aF-1.7395685354815882
aF-2.0307586828814905
aF-0.9693868795977991
aF1.5401414632797241
aF-0.020312134419576466
aa(lp63
F-0.9920991102801722
aF-1.7395804564105433
aF-2.0307467619525355
aF-0.969374958668844
aF1.5401175022125244
aF-0.020300213490621388
aa(lp64
F-0.9921348730670374
aF-1.739556614552633
aF-2.030710522328512
aF-0.9694226423846644
aF1.5401054620742798
aF-0.020312134419576466
aa(lp65
F-0.9923265616046351
aF-1.7395804564105433
aF-2.03033954301943
aF-0.9694107214557093
aF1.5400935411453247
aF-0.02028829256166631
aa(lp66
F-0.9933083693133753
aF-1.7395928541766565
aF-2.028902832661764
aF-0.9693988005267542
aF1.5401054620742798
aF-0.020300213490621388
aa(lp67
F-0.9946501890765589
aF-1.7396405378924769
aF-2.0272749106036585
aF-0.9693868795977991
aF1.5401054620742798
aF-0.020312134419576466
aa(lp68
F-0.9956677595721644
aF-1.739652458821432
aF-2.0247486273394983
aF-0.9693868795977991
aF1.540129542350769
aF-0.020324532185689748
aa(lp69
F-0.9976800123797815
aF-1.7397845427142542
aF-2.0197556654559534
aF-0.9693868795977991
aF1.5401054620742798
aF-0.020312134419576466
aa(lp70
F-1.002458397542135
aF-1.7400005499469202
aF-2.013386074696676
aF-0.9694107214557093
aF1.5401175022125244
aF-0.020300213490621388
aa(lp71
F-1.009488884602682
aF-1.740887467061178
aF-2.0064061323748987
aF-0.9693868795977991
aF1.5401175022125244
aF-0.020336453114644826
aa(lp72
F-1.0182912985431116
aF-1.7430208365069788
aF-2.000096623097555
aF-0.9693272749530237
aF1.540129542350769
aF-0.020312134419576466
aa(lp73
F-1.0261953512774866
aF-1.7468450705157679
aF-1.9970791975604456
aF-0.9693272749530237
aF1.540129542350769
aF-0.020312134419576466
aa(lp74
F-1.0335124174701136
aF-1.7533653418170374
aF-1.9973190466510218
aF-0.9693511168109339
aF1.5401414632797241
aF-0.020300213490621388
aa(lp75
F-1.0371649901019495
aF-1.7629302183734339
aF-1.997235123311178
aF-0.9693511168109339
aF1.5401175022125244
aF-0.020324532185689748
aa(lp76
F-1.0400150457965296
aF-1.7744973341571253
aF-1.996911350880758
aF-0.9693511168109339
aF1.540129542350769
aF-0.020336453114644826
aa(lp77
F-1.041487995778219
aF-1.7869752089129847
aF-1.9966958204852503
aF-0.9693868795977991
aF1.540129542350769
aF-0.020312134419576466
aa(lp78
F-1.0414641539203089
aF-1.798769776021139
aF-1.9966123739825647
aF-0.969374958668844
aF1.54008150100708
aF-0.020312134419576466
aa(lp79
F-1.041487995778219
aF-1.8115957419024866
aF-1.9964082876788538
aF-0.9693868795977991
aF1.54008150100708
aF-0.020336453114644826
aa(lp80
F-1.0414164702044886
aF-1.8221562544452112
aF-1.9957740942584437
aF-0.969363037739889
aF1.5401654243469238
aF-0.020324532185689748
aa(lp81
F-1.041236702595846
aF-1.828353230153219
aF-1.994014088307516
aF-0.9691231886493128
aF1.540716290473938
aF-0.020348374043599904
aa(lp82
F-1.0411651770221155
aF-1.828341309224264
aF-1.992720905934469
aF-0.9688356558429163
aF1.540776252746582
aF-0.020324532185689748
aa(lp83
F-1.0411408583270472
aF-1.8278139273272913
aF-1.992828671132223
aF-0.9687636534320276
aF1.540764331817627
aF-0.020312134419576466
aa(lp84
F-1.0410569349872034
aF-1.8278139273272913
aF-1.9930561224566858
aF-0.9687398115741175
aF1.540776252746582
aF-0.020300213490621388
aa(lp85
F-1.040541950856344
aF-1.827766243611471
aF-1.9938343206988733
aF-0.9686921278582972
aF1.5407882928848267
aF-0.020348374043599904
aa(lp86
F-1.039788071309225
aF-1.8276222387896937
aF-1.9947565237628382
aF-0.9685600439654749
aF1.5408002138137817
aF-0.020312134419576466
aa(lp87
F-1.03886586824526
aF-1.8263757864581507
aF-1.9970791975604456
aF-0.968139950429098
aF1.5408241748809814
aF-0.02028829256166631
aa(lp88
F-1.0375002066241663
aF-1.823463265095846
aF-2.00167686143984
aF-0.9675167242633265
aF1.5408122539520264
aF-0.020300213490621388
aa(lp89
F-1.0357516447650355
aF-1.8202746550189417
aF-2.0073521772967737
aF-0.9670732657061976
aF1.5409080982208252
aF-0.020324532185689748
aa(lp90
F-1.032135311757223
aF-1.8156355063067835
aF-2.015290085469381
aF-0.9670007864581507
aF1.5410997867584229
aF-0.020312134419576466
aa(lp91
F-1.0258601347552698
aF-1.810049835835592
aF-2.0252631346331995
aF-0.9670370260821741
aF1.5410159826278687
aF-0.020312134419576466
aa(lp92
F-1.0214646498309534
aF-1.8060820738421839
aF-2.037642780934469
aF-0.9671691099749964
aF1.5408960580825806
aF-0.02028829256166631
aa(lp93
F-1.015836540852682
aF-1.802713696156637
aF-2.054403607045309
aF-0.9671452681170862
aF1.5408720970153809
aF-0.020312134419576466
aa(lp94
F-1.0112970511065882
aF-1.7984941641436976
aF-2.0709970633136194
aF-0.9671571890460413
aF1.5408841371536255
aF-0.020324532185689748
aa(lp95
F-1.008435074483053
aF-1.7926090399371546
aF-2.081029240285055
aF-0.9672411123858851
aF1.5408002138137817
aF-0.020312134419576466
aa(lp96
F-1.0053570906268519
aF-1.7856572310077112
aF-2.085937801991598
aF-0.9673007170306605
aF1.540764331817627
aF-0.020312134419576466
aa(lp97
F-1.0013206640826624
aF-1.7758515516864222
aF-2.089924160634176
aF-0.9672530333148401
aF1.5407522916793823
aF-0.02028829256166631
aa(lp98
F-0.9988892714129847
aF-1.7652199904071253
aF-2.0948203245746058
aF-0.9672530333148401
aF1.540764331817627
aF-0.020300213490621388
aa(lp99
F-0.995943848286764
aF-1.7515676657306116
aF-2.1000521818744105
aF-0.9673250357257288
aF1.5408002138137817
aF-0.020312134419576466
aa(lp100
F-0.9905779997455042
aF-1.737603012715475
aF-2.1051762739764612
aF-0.9673007170306605
aF1.5407522916793823
aF-0.020300213490621388
aa(lp101
F-0.9855235258685511
aF-1.723255459462301
aF-2.1122267881976526
aF-0.9672768751727503
aF1.5408002138137817
aF-0.020312134419576466
aa(lp102
F-0.9812839666949671
aF-1.711041275654928
aF-2.1216843763934534
aF-0.9673007170306605
aF1.540764331817627
aF-0.020312134419576466
aa(lp103
F-0.9759781996356409
aF-1.6976049582110804
aF-2.1364806334124964
aF-0.9673250357257288
aF1.5408002138137817
aF-0.020312134419576466
aa(lp104
F-0.9729478994952601
aF-1.6857031027423304
aF-2.152342144642965
aF-0.9673131147967737
aF1.540776252746582
aF-0.020300213490621388
aa(lp105
F-0.9706004301654261
aF-1.6770251433001917
aF-2.1664908568011683
aF-0.9673131147967737
aF1.5408122539520264
aF-0.020312134419576466
aa(lp106
F-0.9664443174945276
aF-1.667999569569723
aF-2.1812270323382776
aF-0.96722919145693
aF1.5407882928848267
aF-0.020312134419576466
aa(lp107
F-0.9631264845477503
aF-1.6593340078936976
aF-2.1938193480121058
aF-0.9673727194415491
aF1.5407882928848267
aF-0.020300213490621388
aa(lp108
F-0.9623120466815394
aF-1.6522143522845667
aF-2.2015278975116175
aF-0.9673727194415491
aF1.5408241748809814
aF-0.020312134419576466
aa(lp109
F-0.9622762838946741
aF-1.6472762266742151
aF-2.2042458693133753
aF-0.9673846403705042
aF1.5408122539520264
aF-0.020312134419576466
aa(lp110
F-0.9622882048236292
aF-1.6430209318744105
aF-2.2057059446917933
aF-0.9673727194415491
aF1.5408002138137817
aF-0.020300213490621388
aa(lp111
F-0.962264362965719
aF-1.6390298048602503
aF-2.206771198903219
aF-0.9673369566546839
aF1.540776252746582
aF-0.020324532185689748
aa(lp112
F-0.962264362965719
aF-1.6355422178851526
aF-2.207728687916891
aF-0.9673250357257288
aF1.5408241748809814
aF-0.020312134419576466
aa(lp113
F-0.9622400442706507
aF-1.6321261564837855
aF-2.21002704301943
aF-0.9672887961017054
aF1.5407882928848267
aF-0.020312134419576466
aa(lp114
F-0.9621565977679651
aF-1.6291778723346155
aF-2.2154372374164026
aF-0.9672649542437952
aF1.5408122539520264
aF-0.020300213490621388
aa(lp115
F-0.9618571440326136
aF-1.6260374228106897
aF-2.227466885243551
aF-0.9673007170306605
aF1.5408122539520264
aF-0.020336453114644826
aa(lp116
F-0.9612939993487757
aF-1.6232689062701624
aF-2.240537945424215
aF-0.9673369566546839
aF1.5408241748809814
aF-0.020312134419576466
aa(lp117
F-0.9612463156329554
aF-1.61981708208193
aF-2.250232998524801
aF-0.9673131147967737
aF1.5407882928848267
aF-0.020324532185689748
aa(lp118
F-0.9612343947040003
aF-1.6163290182696741
aF-2.2535250822650355
aF-0.967348877583639
aF1.540776252746582
aF-0.020312134419576466
aa(lp119
F-0.9612463156329554
aF-1.6123140493976038
aF-2.2542784849749964
aF-0.967360798512594
aF1.5408002138137817
aF-0.020312134419576466
aa(lp120
F-0.9612224737750452
aF-1.6094015280352991
aF-2.25431472459902
aF-0.9673131147967737
aF1.5408122539520264
aF-0.020312134419576466
aa(lp121
F-0.9612820784198206
aF-1.60858661333193
aF-2.2542665640460413
aF-0.967348877583639
aF1.5408241748809814
aF-0.020276371632711232
aa(lp122
F-0.9612463156329554
aF-1.608598534260885
aF-2.254242722188131
aF-0.9673007170306605
aF1.5408122539520264
aF-0.020300213490621388
aa(lp123
F-0.961306397114889
aF-1.6086228529559534
aF-2.254242722188131
aF-0.967360798512594
aF1.5407882928848267
aF-0.020312134419576466
aa(lp124
F-0.9613302389727991
aF-1.6086347738849085
aF-2.254242722188131
aF-0.967360798512594
aF1.5408122539520264
aF-0.020312134419576466
aa(lp125
F-0.9612701574908655
aF-1.6086228529559534
aF-2.254242722188131
aF-0.9673369566546839
aF1.540764331817627
aF-0.020312134419576466
aa(lp126
F-0.9612820784198206
aF-1.6086705366717737
aF-2.254206959401266
aF-0.967360798512594
aF1.5407882928848267
aF-0.020324532185689748
aa(lp127
F-0.961306397114889
aF-1.6086466948138636
aF-2.2541831175433558
aF-0.967348877583639
aF1.5408241748809814
aF-0.020336453114644826
aa(lp128
F-0.9612939993487757
aF-1.6086824576007288
aF-2.254218403493063
aF-0.9673369566546839
aF1.5408002138137817
aF-0.020312134419576466
aa(lp129
F-0.961318318043844
aF-1.6086586157428187
aF-2.254218403493063
aF-0.967348877583639
aF1.5408002138137817
aF-0.020312134419576466
aa(lp130
F-0.9612939993487757
aF-1.6086943785296839
aF-2.254195038472311
aF-0.9673727194415491
aF1.5407882928848267
aF-0.020312134419576466
aa(lp131
F-0.961306397114889
aF-1.6087186972247522
aF-2.254218403493063
aF-0.967348877583639
aF1.5407882928848267
aF-0.020300213490621388
aa(lp132
F-0.961306397114889
aF-1.6087186972247522
aF-2.2541831175433558
aF-0.9673369566546839
aF1.5408002138137817
aF-0.02028829256166631
aa(lp133
F-0.9613302389727991
aF-1.6087186972247522
aF-2.2541592756854456
aF-0.967348877583639
aF1.540764331817627
aF-0.020324532185689748
aa(lp134
F-0.9613302389727991
aF-1.6087544600116175
aF-2.254206959401266
aF-0.967348877583639
aF1.5407882928848267
aF-0.020312134419576466
aa(lp135
F-0.961306397114889
aF-1.6087902227984827
aF-2.254206959401266
aF-0.9673007170306605
aF1.5408002138137817
aF-0.02028829256166631
aa(lp136
F-0.961318318043844
aF-1.608802620564596
aF-2.254195038472311
aF-0.9673369566546839
aF1.540776252746582
aF-0.020312134419576466
aa(lp137
F-0.9613302389727991
aF-1.6088264624225062
aF-2.2541831175433558
aF-0.967360798512594
aF1.5407882928848267
aF-0.020324532185689748
aa(lp138
F-0.9612939993487757
aF-1.6088622252093714
aF-2.254195038472311
aF-0.967348877583639
aF1.540764331817627
aF-0.020312134419576466
aa(lp139
F-0.961318318043844
aF-1.6088622252093714
aF-2.254195038472311
aF-0.967348877583639
aF1.540776252746582
aF-0.020312134419576466
aa.