(lp0
(lp1
F-1.065953556691305
aF-1.7496498266803187
aF-2.0253470579730433
aF-0.9695428053485315
aF1.5399141311645508
aF-0.01996499696840459
aa(lp2
F-1.06596547762026
aF-1.7496255079852503
aF-2.025323216115133
aF-0.9695666472064417
aF1.5399141311645508
aF-0.01995259920229131
aa(lp3
F-1.0659773985492151
aF-1.7496374289142054
aF-2.025287453328268
aF-0.9695666472064417
aF1.5399501323699951
aF-0.019928757344381154
aa(lp4
F-1.065953556691305
aF-1.7496617476092737
aF-2.0253117720233362
aF-0.9695666472064417
aF1.5399501323699951
aF-0.019928757344381154
aa(lp5
F-1.0659297148333948
aF-1.749613110219137
aF-2.025287453328268
aF-0.9695785681353968
aF1.5399501323699951
aF-0.019940678273336232
aa(lp6
F-1.0659773985492151
aF-1.7496255079852503
aF-2.0253117720233362
aF-0.9696148077594202
aF1.5399501323699951
aF-0.019940678273336232
aa(lp7
F-1.0659893194781702
aF-1.7496617476092737
aF-2.0253117720233362
aF-0.9695547262774866
aF1.5399380922317505
aF-0.01995259920229131
aa(lp8
F-1.0659773985492151
aF-1.7496374289142054
aF-2.0252631346331995
aF-0.9696028868304651
aF1.5399141311645508
aF-0.019940678273336232
aa(lp9
F-1.0659893194781702
aF-1.7496374289142054
aF-2.0253117720233362
aF-0.9695785681353968
aF1.5399261713027954
aF-0.01997691789735967
aa(lp10
F-1.06594163576235
aF-1.7496498266803187
aF-2.025287453328268
aF-0.9695904890643519
aF1.5399141311645508
aF-0.019928757344381154
aa(lp11
F-1.065953556691305
aF-1.749613110219137
aF-2.025287453328268
aF-0.9695547262774866
aF1.5399380922317505
aF-0.019928757344381154
aa(lp12
F-1.06594163576235
aF-1.7496498266803187
aF-2.025287453328268
aF-0.9695666472064417
aF1.5399616956710815
aF-0.019928757344381154
aa(lp13
F-1.06594163576235
aF-1.7496498266803187
aF-2.025287453328268
aF-0.9695904890643519
aF1.5399380922317505
aF-0.019940678273336232
aa(lp14
F-1.06596547762026
aF-1.7496736685382288
aF-2.025287453328268
aF-0.9695547262774866
aF1.5399022102355957
aF-0.01996499696840459
aa(lp15
F-1.0658934752093714
aF-1.7496374289142054
aF-2.025299374257223
aF-0.9695785681353968
aF1.5399380922317505
aF-0.019916836415426076
aa(lp16
F-1.0659297148333948
aF-1.7496255079852503
aF-2.025275532399313
aF-0.9695547262774866
aF1.5399261713027954
aF-0.01995259920229131
aa(lp17
F-1.0659773985492151
aF-1.7495892683612269
aF-2.025323216115133
aF-0.9695666472064417
aF1.5399261713027954
aF-0.01997691789735967
aa(lp18
F-1.065953556691305
aF-1.7496736685382288
aF-2.0253117720233362
aF-0.9695904890643519
aF1.5399501323699951
aF-0.019940678273336232
aa(lp19
F-1.0659893194781702
aF-1.7496374289142054
aF-2.0253470579730433
aF-0.9695785681353968
aF1.5399380922317505
aF-0.019916836415426076
aa(lp20
F-1.065953556691305
aF-1.7496255079852503
aF-2.025323216115133
aF-0.9695547262774866
aF1.5399380922317505
aF-0.01995259920229131
aa(lp21
F-1.0659773985492151
aF-1.7496736685382288
aF-2.0253470579730433
aF-0.9695308844195765
aF1.5399616956710815
aF-0.01995259920229131
aa(lp22
F-1.065953556691305
aF-1.7496855894671839
aF-2.0254185835467737
aF-0.9695904890643519
aF1.5399261713027954
aF-0.019928757344381154
aa(lp23
F-1.06594163576235
aF-1.749709431325094
aF-2.0255988279925745
aF-0.9696028868304651
aF1.5399141311645508
aF-0.019940678273336232
aa(lp24
F-1.0660131613360804
aF-1.7497456709491175
aF-2.025670353566305
aF-0.9695785681353968
aF1.5399141311645508
aF-0.01995259920229131
aa(lp25
F-1.0659177939044397
aF-1.7498052755938929
aF-2.0257065931903284
aF-0.9695308844195765
aF1.5399380922317505
aF-0.01997691789735967
aa(lp26
F-1.0659297148333948
aF-1.7499011198626917
aF-2.025742832814352
aF-0.9695666472064417
aF1.5399141311645508
aF-0.01996499696840459
aa(lp27
F-1.065953556691305
aF-1.7499612013446253
aF-2.025766674672262
aF-0.9695785681353968
aF1.5399501323699951
aF-0.01995259920229131
aa(lp28
F-1.0658934752093714
aF-1.7499969641314905
aF-2.025790516530172
aF-0.9696028868304651
aF1.5399261713027954
aF-0.01995259920229131
aa(lp29
F-1.0659773985492151
aF-1.7500093618976038
aF-2.025766674672262
aF-0.9695904890643519
aF1.5399261713027954
aF-0.019928757344381154
aa(lp30
F-1.0659058729754847
aF-1.7500212828265589
aF-2.025801960621969
aF-0.9695547262774866
aF1.5399380922317505
aF-0.019940678273336232
aa(lp31
F-1.0659177939044397
aF-1.7500689665423792
aF-2.0256827513324183
aF-0.9695785681353968
aF1.539890170097351
aF-0.019940678273336232
aa(lp32
F-1.06596547762026
aF-1.7500808874713343
aF-2.025538746510641
aF-0.9695189634906214
aF1.5399501323699951
aF-0.019940678273336232
aa(lp33
F-1.065953556691305
aF-1.7500570456134241
aF-2.025395218526022
aF-0.9695547262774866
aF1.5399141311645508
aF-0.019940678273336232
aa(lp34
F-1.065953556691305
aF-1.750045124684469
aF-2.025454823170797
aF-0.9695666472064417
aF1.5399141311645508
aF-0.019940678273336232
aa(lp35
F-1.0659058729754847
aF-1.750045124684469
aF-2.025430981312887
aF-0.9695785681353968
aF1.5399501323699951
aF-0.01996499696840459
aa(lp36
F-1.0659058729754847
aF-1.7499492804156702
aF-2.025442902241842
aF-0.9695904890643519
aF1.5399261713027954
aF-0.01995259920229131
aa(lp37
F-1.0659297148333948
aF-1.7498052755938929
aF-2.0254185835467737
aF-0.9695666472064417
aF1.5399501323699951
aF-0.019940678273336232
aa(lp38
F-1.0658934752093714
aF-1.7497575918780726
aF-2.025454823170797
aF-0.9695785681353968
aF1.5399141311645508
aF-0.01995259920229131
aa(lp39
F-1.0658934752093714
aF-1.7498052755938929
aF-2.025430981312887
aF-0.9695428053485315
aF1.5399141311645508
aF-0.019928757344381154
aa(lp40
F-1.0658934752093714
aF-1.7497695128070276
aF-2.0254910627948206
aF-0.9696148077594202
aF1.5399380922317505
aF-0.01995259920229131
aa(lp41
F-1.0659058729754847
aF-1.7497933546649378
aF-2.025454823170797
aF-0.9695904890643519
aF1.5399380922317505
aF-0.01996499696840459
aa(lp42
F-1.0659058729754847
aF-1.7497933546649378
aF-2.025454823170797
aF-0.9695666472064417
aF1.5399261713027954
aF-0.01995259920229131
aa(lp43
F-1.0658815542804163
aF-1.7497814337359827
aF-2.0254786650287073
aF-0.9695904890643519
aF1.5399616956710815
aF-0.01997691789735967
aa(lp44
F-1.0658815542804163
aF-1.7497814337359827
aF-2.0255025068866175
aF-0.9695547262774866
aF1.5399141311645508
aF-0.01995259920229131
aa(lp45
F-1.0659058729754847
aF-1.7497933546649378
aF-2.0254667440997522
aF-0.9695428053485315
aF1.5399141311645508
aF-0.01995259920229131
aa(lp46
F-1.0658696333514612
aF-1.749817196522848
aF-2.0254786650287073
aF-0.9695547262774866
aF1.539890170097351
aF-0.019940678273336232
aa(lp47
F-1.0658934752093714
aF-1.749817196522848
aF-2.0254910627948206
aF-0.9695666472064417
aF1.5399141311645508
aF-0.019940678273336232
aa(lp48
F-1.0658934752093714
aF-1.7497814337359827
aF-2.025407139454977
aF-0.9695785681353968
aF1.5399141311645508
aF-0.01995259920229131
aa(lp49
F-1.0659058729754847
aF-1.7497213522540491
aF-2.02509576479067
aF-0.9695547262774866
aF1.5399141311645508
aF-0.019940678273336232
aa(lp50
F-1.0658934752093714
aF-1.7493975798236292
aF-2.0247367064105433
aF-0.9695904890643519
aF1.5399261713027954
aF-0.019988838826314748
aa(lp51
F-1.0659297148333948
aF-1.7491939703570765
aF-2.0246647039996546
aF-0.9695904890643519
aF1.5399261713027954
aF-0.01995259920229131
aa(lp52
F-1.0659297148333948
aF-1.749145809804098
aF-2.02470046678652
aF-0.9695785681353968
aF1.5399380922317505
aF-0.01996499696840459
aa(lp53
F-1.065953556691305
aF-1.749157730733053
aF-2.024820629750387
aF-0.9695666472064417
aF1.5399380922317505
aF-0.019928757344381154
aa(lp54
F-1.0659177939044397
aF-1.7492297331439417
aF-2.0249159971820276
aF-0.9695785681353968
aF1.539890170097351
aF-0.019928757344381154
aa(lp55
F-1.0659297148333948
aF-1.7492416540728968
aF-2.0251196066485804
aF-0.9695904890643519
aF1.5399261713027954
aF-0.019928757344381154
aa(lp56
F-1.0658934752093714
aF-1.7493255774127405
aF-2.0253356138812464
aF-0.9695428053485315
aF1.5399261713027954
aF-0.01995259920229131
aa(lp57
F-1.0659297148333948
aF-1.749373737965719
aF-2.0256827513324183
aF-0.9695666472064417
aF1.5399616956710815
aF-0.019928757344381154
aa(lp58
F-1.065953556691305
aF-1.7493374983416956
aF-2.0261853376971644
aF-0.9695547262774866
aF1.5399380922317505
aF-0.01996499696840459
aa(lp59
F-1.0659297148333948
aF-1.749373737965719
aF-2.0266640822040003
aF-0.9695904890643519
aF1.5399501323699951
aF-0.01995259920229131
aa(lp60
F-1.0659297148333948
aF-1.749361817036764
aF-2.0272749106036585
aF-0.9695904890643519
aF1.5399022102355957
aF-0.01995259920229131
aa(lp61
F-1.0659297148333948
aF-1.749361817036764
aF-2.027932945881979
aF-0.9696028868304651
aF1.5399261713027954
aF-0.019940678273336232
aa(lp62
F-1.06594163576235
aF-1.749373737965719
aF-2.029393498097555
aF-0.9695547262774866
aF1.5399380922317505
aF-0.01996499696840459
aa(lp63
F-1.0659177939044397
aF-1.7493856588946741
aF-2.0314648787127894
aF-0.9695308844195765
aF1.5399501323699951
aF-0.019928757344381154
aa(lp64
F-1.065953556691305
aF-1.749373737965719
aF-2.033093277608053
aF-0.9695666472064417
aF1.5399261713027954
aF-0.01995259920229131
aa(lp65
F-1.0659297148333948
aF-1.749361817036764
aF-2.033692185078756
aF-0.9695785681353968
aF1.5399141311645508
aF-0.019928757344381154
aa(lp66
F-1.0659177939044397
aF-1.7494095007525843
aF-2.033811871205465
aF-0.9695785681353968
aF1.5399141311645508
aF-0.019940678273336232
aa(lp67
F-1.0659177939044397
aF-1.7493856588946741
aF-2.0338714758502405
aF-0.9695904890643519
aF1.5399141311645508
aF-0.019940678273336232
aa(lp68
F-1.06594163576235
aF-1.7493975798236292
aF-2.0340874830829065
aF-0.9695904890643519
aF1.5399141311645508
aF-0.019916836415426076
aa(lp69
F-1.0659177939044397
aF-1.7494095007525843
aF-2.0344703833209437
aF-0.9695666472064417
aF1.5399501323699951
aF-0.019940678273336232
aa(lp70
F-1.0659177939044397
aF-1.7493856588946741
aF-2.035355869923727
aF-0.9695904890643519
aF1.5399261713027954
aF-0.019928757344381154
aa(lp71
F-1.0658815542804163
aF-1.7494214216815394
aF-2.036457363759176
aF-0.9695666472064417
aF1.539890170097351
aF-0.01996499696840459
aa(lp72
F-1.0659297148333948
aF-1.7494695822345179
aF-2.038492981587545
aF-0.9695666472064417
aF1.5399141311645508
aF-0.019928757344381154
aa(lp73
F-1.0658696333514612
aF-1.749697510396139
aF-2.04154616991152
aF-0.9695666472064417
aF1.5399261713027954
aF-0.019928757344381154
aa(lp74
F-1.0659297148333948
aF-1.7498415152179163
aF-2.046981159840719
aF-0.9695189634906214
aF1.5399501323699951
aF-0.01997691789735967
aa(lp75
F-1.0658934752093714
aF-1.7498653570758265
aF-2.0553372542010706
aF-0.9695189634906214
aF1.5399380922317505
aF-0.019940678273336232
aa(lp76
F-1.0659297148333948
aF-1.7498415152179163
aF-2.068578545247213
aF-0.9695189634906214
aF1.5399261713027954
aF-0.019928757344381154
aa(lp77
F-1.0658934752093714
aF-1.7498534361468714
aF-2.083435360585348
aF-0.9695308844195765
aF1.5399380922317505
aF-0.019940678273336232
aa(lp78
F-1.0659297148333948
aF-1.7498415152179163
aF-2.0979931990252894
aF-0.9695547262774866
aF1.5399380922317505
aF-0.01996499696840459
aa(lp79
F-1.06594163576235
aF-1.7498295942889612
aF-2.1139748732196253
aF-0.9695428053485315
aF1.539878249168396
aF-0.019928757344381154
aa(lp80
F-1.0659297148333948
aF-1.7498052755938929
aF-2.1287711302386683
aF-0.9695428053485315
aF1.539890170097351
aF-0.019904915486470998
aa(lp81
F-1.06594163576235
aF-1.7497933546649378
aF-2.1414244810687464
aF-0.9695666472064417
aF1.5399141311645508
aF-0.01995259920229131
aa(lp82
F-1.0659297148333948
aF-1.7497933546649378
aF-2.152688805256979
aF-0.9694708029376429
aF1.5399261713027954
aF-0.019928757344381154
aa(lp83
F-1.06594163576235
aF-1.7498052755938929
aF-2.163821522389547
aF-0.9695428053485315
aF1.5399141311645508
aF-0.01995259920229131
aa(lp84
F-1.0658815542804163
aF-1.7498052755938929
aF-2.172356430684225
aF-0.9695308844195765
aF1.5399022102355957
aF-0.01995259920229131
aa(lp85
F-1.0658934752093714
aF-1.7497575918780726
aF-2.181514088307516
aF-0.9695065657245081
aF1.539878249168396
aF-0.01996499696840459
aa(lp86
F-1.0658934752093714
aF-1.7497575918780726
aF-2.1896656195269983
aF-0.9695065657245081
aF1.5399022102355957
aF-0.01995259920229131
aa(lp87
F-1.0658696333514612
aF-1.7497575918780726
aF-2.1978171507464808
aF-0.9695428053485315
aF1.5399380922317505
aF-0.01995259920229131
aa(lp88
F-1.0658815542804163
aF-1.7497456709491175
aF-2.203359905873434
aF-0.9695189634906214
aF1.5398662090301514
aF-0.019940678273336232
aa(lp89
F-1.0657857100116175
aF-1.7497213522540491
aF-2.2083151976214808
aF-0.9695065657245081
aF1.5399261713027954
aF-0.019940678273336232
aa(lp90
F-1.0657737890826624
aF-1.749373737965719
aF-2.211510960255758
aF-0.9692671934710901
aF1.5399856567382812
aF-0.01995259920229131
aa(lp91
F-1.0657618681537073
aF-1.7492778936969202
aF-2.2115471998797815
aF-0.9692071119891565
aF1.5399501323699951
aF-0.01997691789735967
aa(lp92
F-1.0657618681537073
aF-1.7493136564837855
aF-2.211582962666647
aF-0.9691951910602015
aF1.5399501323699951
aF-0.01997691789735967
aa(lp93
F-1.0657857100116175
aF-1.7493017355548304
aF-2.211594883595602
aF-0.9691832701312464
aF1.5399616956710815
aF-0.01995259920229131
aa(lp94
F-1.0657137076007288
aF-1.7493255774127405
aF-2.2115471998797815
aF-0.9691832701312464
aF1.5399856567382812
aF-0.019988838826314748
aa(lp95
F-1.0657017866717737
aF-1.7493255774127405
aF-2.2115471998797815
aF-0.9691951910602015
aF1.5399737358093262
aF-0.01997691789735967
aa(lp96
F-1.0657499472247522
aF-1.7493255774127405
aF-2.2115348021136683
aF-0.9691713492022913
aF1.5399856567382812
aF-0.01997691789735967
aa(lp97
F-1.0657618681537073
aF-1.7493374983416956
aF-2.211582962666647
aF-0.9691231886493128
aF1.5399737358093262
aF-0.01995259920229131
aa(lp98
F-1.0657618681537073
aF-1.7493017355548304
aF-2.2116668860064905
aF-0.9690755049334925
aF1.5399616956710815
aF-0.01995259920229131
aa(lp99
F-1.0657499472247522
aF-1.7491820494281214
aF-2.212205235158102
aF-0.9684279600726526
aF1.5399976968765259
aF-0.01996499696840459
aa(lp100
F-1.0657499472247522
aF-1.7485345045672815
aF-2.2130191961871546
aF-0.9681161085711878
aF1.5399501323699951
aF-0.019928757344381154
aa(lp101
F-1.065726105366842
aF-1.7478631178485315
aF-2.214180294667379
aF-0.9679601828204554
aF1.540009617805481
aF-0.01995259920229131
aa(lp102
F-1.065726105366842
aF-1.746640984212057
aF-2.215952221547262
aF-0.9675167242633265
aF1.5400335788726807
aF-0.01996499696840459
aa(lp103
F-1.0657380262957972
aF-1.7450106779681605
aF-2.2182257811175745
aF-0.9669292608844202
aF1.5400575399398804
aF-0.01995259920229131
aa(lp104
F-1.0657380262957972
aF-1.7435720602618616
aF-2.2198899427997034
aF-0.9669049421893519
aF1.5400456190109253
aF-0.01997691789735967
aa(lp105
F-1.0657380262957972
aF-1.7426379362689417
aF-2.2209437529193323
aF-0.9669531027423304
aF1.5400935411453247
aF-0.019916836415426076
aa(lp106
F-1.0657857100116175
aF-1.741007153187887
aF-2.2228110472308558
aF-0.9669049421893519
aF1.5400575399398804
aF-0.01997691789735967
aa(lp107
F-1.0657137076007288
aF-1.7382386366473597
aF-2.2260306517230433
aF-0.9669292608844202
aF1.5400456190109253
aF-0.019928757344381154
aa(lp108
F-1.0657618681537073
aF-1.7337916533099573
aF-2.2318480650531214
aF-0.9669173399554651
aF1.5400935411453247
aF-0.01995259920229131
aa(lp109
F-1.0657499472247522
aF-1.7295244375811976
aF-2.2372220198260706
aF-0.9668334166156214
aF1.5401175022125244
aF-0.019928757344381154
aa(lp110
F-1.0657737890826624
aF-1.7252453009234827
aF-2.242321316395895
aF-0.9667852560626429
aF1.5400935411453247
aF-0.01995259920229131
aa(lp111
F-1.0657618681537073
aF-1.7190840880023401
aF-2.250831905995504
aF-0.9661858717547815
aF1.5401535034179688
aF-0.01995259920229131
aa(lp112
F-1.0657857100116175
aF-1.7128875891314905
aF-2.2575581709491175
aF-0.9659822622882288
aF1.5401414632797241
aF-0.01995259920229131
aa(lp113
F-1.0657857100116175
aF-1.705024544392721
aF-2.266547505055563
aF-0.9659584204303187
aF1.5400935411453247
aF-0.019928757344381154
aa(lp114
F-1.0657976309405726
aF-1.696179215108053
aF-2.2771523634540003
aF-0.9659464995013636
aF1.5401414632797241
aF-0.019928757344381154
aa(lp115
F-1.0657499472247522
aF-1.6866019407855433
aF-2.288307015095846
aF-0.9659221808062952
aF1.540129542350769
aF-0.019928757344381154
aa(lp116
F-1.0657976309405726
aF-1.6783917585956019
aF-2.2977386156665247
aF-0.9659822622882288
aF1.540069580078125
aF-0.01996499696840459
aa(lp117
F-1.0657618681537073
aF-1.6691506544696253
aF-2.3084750811206263
aF-0.9658983389483851
aF1.5401054620742798
aF-0.01995259920229131
aa(lp118
F-1.0657737890826624
aF-1.6597774664508265
aF-2.3185885588275355
aF-0.9659464995013636
aF1.5400935411453247
aF-0.019988838826314748
aa(lp119
F-1.0657737890826624
aF-1.6519864241229456
aF-2.327672783528463
aF-0.9658983389483851
aF1.5401054620742798
aF-0.01997691789735967
aa(lp120
F-1.0657857100116175
aF-1.6451910177813929
aF-2.3348897139178675
aF-0.9659584204303187
aF1.54008150100708
aF-0.01995259920229131
aa(lp121
F-1.0658095518695276
aF-1.6421344915973108
aF-2.338479820881979
aF-0.9659703413592737
aF1.5400935411453247
aF-0.01996499696840459
aa(lp122
F-1.0657618681537073
aF-1.6414392630206507
aF-2.338767115269796
aF-0.966006104146139
aF1.5400575399398804
aF-0.01996499696840459
aa(lp123
F-1.0657618681537073
aF-1.6414511839496058
aF-2.3386836687671106
aF-0.9659941832171839
aF1.540069580078125
aF-0.019928757344381154
aa(lp124
F-1.0658095518695276
aF-1.6414631048785608
aF-2.3386955896960657
aF-0.966006104146139
aF1.5400575399398804
aF-0.019928757344381154
aa(lp125
F-1.065821949635641
aF-1.6414511839496058
aF-2.3386715094195765
aF-0.966006104146139
aF1.54008150100708
aF-0.019940678273336232
aa(lp126
F-1.0658095518695276
aF-1.6414993445025843
aF-2.3386476675616663
aF-0.9659941832171839
aF1.5400935411453247
aF-0.01995259920229131
aa.