(lp0
(lp1
F-1.5688822905169886
aF-1.6405399481402796
aF-1.800504509602682
aF-0.9696505705462855
aF1.5395426750183105
aF-0.019808594380513966
aa(lp2
F-1.5688822905169886
aF-1.6405399481402796
aF-1.8004563490497034
aF-0.9696386496173304
aF1.5395545959472656
aF-0.019796673451558888
aa(lp3
F-1.5688584486590784
aF-1.6405041853534144
aF-1.8004687468158167
aF-0.9696267286883753
aF1.53959059715271
aF-0.0198443571673792
aa(lp4
F-1.5688584486590784
aF-1.6405161062823694
aF-1.8004687468158167
aF-0.9696386496173304
aF1.5395426750183105
aF-0.019808594380513966
aa(lp5
F-1.5688584486590784
aF-1.6405399481402796
aF-1.800516430531637
aF-0.9696386496173304
aF1.5395426750183105
aF-0.0198443571673792
aa(lp6
F-1.5688822905169886
aF-1.6405280272113245
aF-1.8004563490497034
aF-0.9696505705462855
aF1.5395545959472656
aF-0.019820515309469044
aa(lp7
F-1.5688942114459437
aF-1.6405280272113245
aF-1.8004925886737269
aF-0.9696267286883753
aF1.5395785570144653
aF-0.019820515309469044
aa(lp8
F-1.5688465277301233
aF-1.6405161062823694
aF-1.8004563490497034
aF-0.9696267286883753
aF1.5395666360855103
aF-0.019832436238424123
aa(lp9
F-1.5688703695880335
aF-1.6405161062823694
aF-1.800504509602682
aF-0.9696505705462855
aF1.5395545959472656
aF-0.0198443571673792
aa(lp10
F-1.5688584486590784
aF-1.6405280272113245
aF-1.8004925886737269
aF-0.9696624914752405
aF1.5395426750183105
aF-0.019832436238424123
aa(lp11
F-1.5688584486590784
aF-1.6405041853534144
aF-1.8004806677447718
aF-0.9696744124041956
aF1.5395545959472656
aF-0.019820515309469044
aa(lp12
F-1.5688465277301233
aF-1.6405280272113245
aF-1.800516430531637
aF-0.9696505705462855
aF1.5395545959472656
aF-0.019832436238424123
aa(lp13
F-1.5688465277301233
aF-1.6405280272113245
aF-1.8004925886737269
aF-0.9696624914752405
aF1.5395426750183105
aF-0.019832436238424123
aa(lp14
F-1.5688942114459437
aF-1.6405161062823694
aF-1.800504509602682
aF-0.9696744124041956
aF1.539530634880066
aF-0.0198443571673792
aa(lp15
F-1.5688584486590784
aF-1.6405161062823694
aF-1.8004449049579065
aF-0.9696267286883753
aF1.539602518081665
aF-0.0198443571673792
aa(lp16
F-1.5688465277301233
aF-1.6405399481402796
aF-1.800504509602682
aF-0.9696267286883753
aF1.5395785570144653
aF-0.019820515309469044
aa(lp17
F-1.5688822905169886
aF-1.6405637899981897
aF-1.8004687468158167
aF-0.9696624914752405
aF1.5395545959472656
aF-0.019796673451558888
aa(lp18
F-1.5688584486590784
aF-1.6405041853534144
aF-1.800516430531637
aF-0.9696148077594202
aF1.5395666360855103
aF-0.019796673451558888
aa(lp19
F-1.5688822905169886
aF-1.6404922644244593
aF-1.8004925886737269
aF-0.9696386496173304
aF1.5395785570144653
aF-0.019820515309469044
aa(lp20
F-1.5688822905169886
aF-1.6405518690692347
aF-1.8004806677447718
aF-0.9696505705462855
aF1.5395785570144653
aF-0.019832436238424123
aa(lp21
F-1.5688465277301233
aF-1.6405161062823694
aF-1.8004806677447718
aF-0.9696624914752405
aF1.5395066738128662
aF-0.019808594380513966
aa(lp22
F-1.5688822905169886
aF-1.640479866658346
aF-1.800504509602682
aF-0.9696624914752405
aF1.5395187139511108
aF-0.019808594380513966
aa(lp23
F-1.5688822905169886
aF-1.6405041853534144
aF-1.8004806677447718
aF-0.9696505705462855
aF1.5395785570144653
aF-0.019808594380513966
aa(lp24
F-1.5688822905169886
aF-1.6405041853534144
aF-1.800504509602682
aF-0.9696148077594202
aF1.5395426750183105
aF-0.019820515309469044
aa(lp25
F-1.5688942114459437
aF-1.6405280272113245
aF-1.800504509602682
aF-0.9696624914752405
aF1.5395545959472656
aF-0.019808594380513966
aa(lp26
F-1.5688942114459437
aF-1.6405280272113245
aF-1.8004806677447718
aF-0.9696505705462855
aF1.5395545959472656
aF-0.019832436238424123
aa(lp27
F-1.5688584486590784
aF-1.6404922644244593
aF-1.800504509602682
aF-0.9696624914752405
aF1.5395545959472656
aF-0.019832436238424123
aa(lp28
F-1.5688703695880335
aF-1.6405399481402796
aF-1.8004806677447718
aF-0.9696386496173304
aF1.5395426750183105
aF-0.019820515309469044
aa(lp29
F-1.5688942114459437
aF-1.6405041853534144
aF-1.8004925886737269
aF-0.9696267286883753
aF1.5395545959472656
aF-0.019808594380513966
aa(lp30
F-1.5688703695880335
aF-1.6405280272113245
aF-1.800504509602682
aF-0.9696267286883753
aF1.539530634880066
aF-0.019820515309469044
aa(lp31
F-1.5688465277301233
aF-1.6405399481402796
aF-1.8004806677447718
aF-0.9696624914752405
aF1.5395666360855103
aF-0.019820515309469044
aa(lp32
F-1.5688584486590784
aF-1.6405161062823694
aF-1.800504509602682
aF-0.9696624914752405
aF1.5395666360855103
aF-0.019808594380513966
aa(lp33
F-1.5688584486590784
aF-1.6405637899981897
aF-1.8005288282977503
aF-0.9696505705462855
aF1.5395426750183105
aF-0.019832436238424123
aa(lp34
F-1.5688822905169886
aF-1.6405518690692347
aF-1.8004925886737269
aF-0.9696505705462855
aF1.5395666360855103
aF-0.019820515309469044
aa(lp35
F-1.5688942114459437
aF-1.640588108693258
aF-1.8006365934955042
aF-0.9696744124041956
aF1.539530634880066
aF-0.019832436238424123
aa(lp36
F-1.5688226858722132
aF-1.6406238714801233
aF-1.8006489912616175
aF-0.9696386496173304
aF1.5395666360855103
aF-0.019820515309469044
aa(lp37
F-1.5688584486590784
aF-1.6406596342669886
aF-1.8009479681598108
aF-0.9696267286883753
aF1.5395545959472656
aF-0.019856754933492482
aa(lp38
F-1.5688584486590784
aF-1.6406720320331019
aF-1.8014028708087366
aF-0.969698731099264
aF1.5395666360855103
aF-0.0198443571673792
aa(lp39
F-1.5688346068011683
aF-1.6407316366778772
aF-1.8024328390704554
aF-0.9695904890643519
aF1.53959059715271
aF-0.019796673451558888
aa(lp40
F-1.5688465277301233
aF-1.6408398787127894
aF-1.8042176405536097
aF-0.9696386496173304
aF1.5395785570144653
aF-0.019820515309469044
aa(lp41
F-1.5688226858722132
aF-1.6410077253924769
aF-1.8090317885028284
aF-0.9696386496173304
aF1.5395426750183105
aF-0.019832436238424123
aa(lp42
F-1.5687630812274378
aF-1.6417868773089808
aF-1.8147805372821253
aF-0.9696148077594202
aF1.5395666360855103
aF-0.0198443571673792
aa(lp43
F-1.5688226858722132
aF-1.6442320982562464
aF-1.8208163420306605
aF-0.9696386496173304
aF1.5395426750183105
aF-0.019820515309469044
aa(lp44
F-1.568810764943258
aF-1.648247543965475
aF-1.8239296118365687
aF-0.969698731099264
aF1.5395545959472656
aF-0.0198443571673792
aa(lp45
F-1.5687630812274378
aF-1.6547072569476526
aF-1.8241937796222132
aF-0.9696148077594202
aF1.5395785570144653
aF-0.0198443571673792
aa(lp46
F-1.5687750021563929
aF-1.6620667616473597
aF-1.8241456190692347
aF-0.9696386496173304
aF1.5395666360855103
aF-0.019820515309469044
aa(lp47
F-1.568786923085348
aF-1.6732972303973597
aF-1.8241694609271448
aF-0.9696148077594202
aF1.5395666360855103
aF-0.019820515309469044
aa(lp48
F-1.5686429182635706
aF-1.6842649618731897
aF-1.8241332213031214
aF-0.9696386496173304
aF1.5395785570144653
aF-0.019856754933492482
aa(lp49
F-1.5686076323138636
aF-1.698000733052389
aF-1.8241093794452112
aF-0.9696386496173304
aF1.5395666360855103
aF-0.019808594380513966
aa(lp50
F-1.5684879461871546
aF-1.709986988698141
aF-1.8241213003741663
aF-0.9695904890643519
aF1.5395666360855103
aF-0.019820515309469044
aa(lp51
F-1.5681889692889612
aF-1.7228239218341272
aF-1.8240254561053675
aF-0.9696267286883753
aF1.5395666360855103
aF-0.019820515309469044
aa(lp52
F-1.56793719926943
aF-1.732748810444967
aF-1.8239415327655237
aF-0.9696505705462855
aF1.5395545959472656
aF-0.0198443571673792
aa(lp53
F-1.5673864523517054
aF-1.7414029280291956
aF-1.823869530354635
aF-0.9696505705462855
aF1.5395666360855103
aF-0.019796673451558888
aa(lp54
F-1.5667288939105433
aF-1.746784512196676
aF-1.8238938490497034
aF-0.9696868101703089
aF1.5395785570144653
aF-0.019832436238424123
aa(lp55
F-1.565472427998678
aF-1.750836197529928
aF-1.8238099257098597
aF-0.9696505705462855
aF1.5395545959472656
aF-0.019832436238424123
aa(lp56
F-1.5639289061175745
aF-1.7530296484576624
aF-1.8237622419940394
aF-0.9696868101703089
aF1.5395666360855103
aF-0.019832436238424123
aa(lp57
F-1.5623257795916956
aF-1.755139176045553
aF-1.8235586325274866
aF-0.9696505705462855
aF1.5395666360855103
aF-0.019832436238424123
aa(lp58
F-1.5619905630694788
aF-1.7576563994037073
aF-1.8229721228228968
aF-0.9696028868304651
aF1.539530634880066
aF-0.019832436238424123
aa(lp59
F-1.5620868841754358
aF-1.7615516821490687
aF-1.8220976034747522
aF-0.9696028868304651
aF1.53959059715271
aF-0.019832436238424123
aa(lp60
F-1.5620268026935022
aF-1.765531365071432
aF-1.8211634794818323
aF-0.9696505705462855
aF1.5395666360855103
aF-0.019808594380513966
aa(lp61
F-1.5620148817645472
aF-1.7702301184283655
aF-1.8200495878802698
aF-0.9696028868304651
aF1.5395785570144653
aF-0.019832436238424123
aa(lp62
F-1.5620148817645472
aF-1.7747491041766565
aF-1.81852895418276
aF-0.9696267286883753
aF1.5395426750183105
aF-0.019820515309469044
aa(lp63
F-1.5620148817645472
aF-1.7796757856952112
aF-1.8159058729754847
aF-0.9696028868304651
aF1.5395545959472656
aF-0.019832436238424123
aa(lp64
F-1.5620268026935022
aF-1.7842782179461878
aF-1.8113310972796839
aF-0.9696386496173304
aF1.5395545959472656
aF-0.019796673451558888
aa(lp65
F-1.5619905630694788
aF-1.7905471960650843
aF-1.803222958241598
aF-0.9696267286883753
aF1.5395785570144653
aF-0.019832436238424123
aa(lp66
F-1.5619786421405237
aF-1.7970202604876917
aF-1.7942412535296839
aF-0.9696267286883753
aF1.539530634880066
aF-0.0198443571673792
aa(lp67
F-1.5620148817645472
aF-1.8059857527362269
aF-1.782492462788717
aF-0.9696267286883753
aF1.5395545959472656
aF-0.019796673451558888
aa(lp68
F-1.5619548002826136
aF-1.8150842825519007
aF-1.7720006147967737
aF-0.9695904890643519
aF1.5395666360855103
aF-0.019820515309469044
aa(lp69
F-1.5619905630694788
aF-1.8268550078021448
aF-1.760862175618307
aF-0.9696148077594202
aF1.5395785570144653
aF-0.01978475252260381
aa(lp70
F-1.561883274708883
aF-1.8380029837237757
aF-1.7510650793658655
aF-0.9696386496173304
aF1.5395426750183105
aF-0.019820515309469044
aa(lp71
F-1.5616915861712855
aF-1.8510687986956995
aF-1.7391961256610315
aF-0.9696386496173304
aF1.5395545959472656
aF-0.0198443571673792
aa(lp72
F-1.5611169973956507
aF-1.8621328512774866
aF-1.7277815977679651
aF-0.9696148077594202
aF1.5395666360855103
aF-0.019820515309469044
aa(lp73
F-1.5601123015033167
aF-1.8738082090960901
aF-1.713360611592428
aF-0.9696505705462855
aF1.5395666360855103
aF-0.019832436238424123
aa(lp74
F-1.5591548124896448
aF-1.8830507437335413
aF-1.70001727739443
aF-0.9696505705462855
aF1.5395785570144653
aF-0.019832436238424123
aa(lp75
F-1.5575278441058558
aF-1.8932512442218226
aF-1.6838348547564905
aF-0.9696386496173304
aF1.5395545959472656
aF-0.01978475252260381
aa(lp76
F-1.5545843283282679
aF-1.9010432402240198
aF-1.6700952688800257
aF-0.9696148077594202
aF1.5395426750183105
aF-0.019808594380513966
aa(lp77
F-1.5494392553912562
aF-1.9090145269977015
aF-1.6554816404925745
aF-0.9696386496173304
aF1.5395785570144653
aF-0.019820515309469044
aa(lp78
F-1.5456221739398401
aF-1.9162667433368128
aF-1.6435626188861292
aF-0.9696267286883753
aF1.5395545959472656
aF-0.019772831593648732
aa(lp79
F-1.5415900389300745
aF-1.9248860518084925
aF-1.6314871946917933
aF-0.9695904890643519
aF1.539530634880066
aF-0.019808594380513966
aa(lp80
F-1.5373061339007776
aF-1.9320066610919397
aF-1.6221917311297815
aF-0.9696028868304651
aF1.5395666360855103
aF-0.019796673451558888
aa(lp81
F-1.5335968176471155
aF-1.9405410925494593
aF-1.6120689550982874
aF-0.9696386496173304
aF1.539602518081665
aF-0.0198443571673792
aa(lp82
F-1.5316103140460413
aF-1.949064079915182
aF-1.6032756010638636
aF-0.9696744124041956
aF1.5395426750183105
aF-0.019808594380513966
aa(lp83
F-1.5291932264911097
aF-1.9599006811725062
aF-1.5923979918109339
aF-0.9696267286883753
aF1.5395666360855103
aF-0.019820515309469044
aa(lp84
F-1.5263217131244105
aF-1.9696829954730433
aF-1.5826461950885218
aF-0.9696267286883753
aF1.5395666360855103
aF-0.019820515309469044
aa(lp85
F-1.5238927046405237
aF-1.9814546743976038
aF-1.5707381407367151
aF-0.9699266592608851
aF1.5395066738128662
aF-0.019748512898580373
aa(lp86
F-1.5232699553119105
aF-1.991572682057516
aF-1.5590093771563929
aF-0.9698427359210413
aF1.5395545959472656
aF-0.019808594380513966
aa(lp87
F-1.5232699553119105
aF-2.0022056738482874
aF-1.5444524923907679
aF-0.969818417225973
aF1.5395545959472656
aF-0.019796673451558888
aa(lp88
F-1.5232461134540003
aF-2.0111005941974085
aF-1.5310819784747522
aF-0.969818417225973
aF1.5395545959472656
aF-0.019796673451558888
aa(lp89
F-1.5232818762408655
aF-2.021170441304342
aF-1.5158417860614222
aF-0.9698427359210413
aF1.5395666360855103
aF-0.019808594380513966
aa(lp90
F-1.5232818762408655
aF-2.0289982000934046
aF-1.50372821489443
aF-0.9698665777789515
aF1.539530634880066
aF-0.019808594380513966
aa(lp91
F-1.5232699553119105
aF-2.037341896687643
aF-1.4906919638263147
aF-0.969818417225973
aF1.5395545959472656
aF-0.019820515309469044
aa(lp92
F-1.523330036793844
aF-2.044223133717672
aF-1.480363670979635
aF-0.9698546568499964
aF1.5395666360855103
aF-0.01978475252260381
aa(lp93
F-1.523318115864889
aF-2.0518716017352503
aF-1.4691961447345179
aF-0.969818417225973
aF1.5395545959472656
aF-0.019796673451558888
aa(lp94
F-1.5232942740069788
aF-2.0573743025409144
aF-1.460808579121725
aF-0.9698784987079065
aF1.5395545959472656
aF-0.019796673451558888
aa(lp95
F-1.5232699553119105
aF-2.0623133818255823
aF-1.453583065663473
aF-0.9698784987079065
aF1.5395545959472656
aF-0.019820515309469044
aa(lp96
F-1.5232580343829554
aF-2.065334145222799
aF-1.4494612852679651
aF-0.9698546568499964
aF1.539530634880066
aF-0.019796673451558888
aa(lp97
F-1.5232942740069788
aF-2.0683191458331507
aF-1.445662800465719
aF-0.969830338154928
aF1.5395545959472656
aF-0.019796673451558888
aa(lp98
F-1.5232818762408655
aF-2.071508232747213
aF-1.4423916975604456
aF-0.969830338154928
aF1.5395066738128662
aF-0.019808594380513966
aa(lp99
F-1.5232580343829554
aF-2.075991932545797
aF-1.437981907521383
aF-0.969830338154928
aF1.5395426750183105
aF-0.019796673451558888
aa(lp100
F-1.5232346693622034
aF-2.0803192297564905
aF-1.4337757269488733
aF-0.9698064962970179
aF1.5395426750183105
aF-0.019772831593648732
aa(lp101
F-1.5232346693622034
aF-2.0851500670062464
aF-1.4297974745379847
aF-0.9697702566729944
aF1.5395187139511108
aF-0.019796673451558888
aa(lp102
F-1.52319842973818
aF-2.0888550917254847
aF-1.4267538229571741
aF-0.969818417225973
aF1.539530634880066
aF-0.01978475252260381
aa(lp103
F-1.5231745878802698
aF-2.0922840277301233
aF-1.4229071776019495
aF-0.969830338154928
aF1.5395066738128662
aF-0.019808594380513966
aa(lp104
F-1.52319842973818
aF-2.0954483191119593
aF-1.4180544058429163
aF-0.9698546568499964
aF1.5395666360855103
aF-0.019796673451558888
aa(lp105
F-1.5232461134540003
aF-2.0998123327838343
aF-1.4105880896197718
aF-0.969830338154928
aF1.539530634880066
aF-0.019808594380513966
aa(lp106
F-1.52319842973818
aF-2.104487721120016
aF-1.4020922819720667
aF-0.9698546568499964
aF1.5395785570144653
aF-0.019796673451558888
aa(lp107
F-1.523186508809225
aF-2.11100942293276
aF-1.3908150831805628
aF-0.969830338154928
aF1.5395545959472656
aF-0.019796673451558888
aa(lp108
F-1.5231745878802698
aF-2.1164878050433558
aF-1.3812883535968226
aF-0.9698546568499964
aF1.5395545959472656
aF-0.019820515309469044
aa(lp109
F-1.523186508809225
aF-2.1221945921527308
aF-1.370838467274801
aF-0.9698427359210413
aF1.5394947528839111
aF-0.019820515309469044
aa(lp110
F-1.5231745878802698
aF-2.126618210469381
aF-1.3623650709735315
aF-0.9698427359210413
aF1.5395545959472656
aF-0.019772831593648732
aa(lp111
F-1.5231507460223597
aF-2.131233517323629
aF-1.3535926977740687
aF-0.9697821776019495
aF1.5395545959472656
aF-0.019808594380513966
aa(lp112
F-1.5231626669513147
aF-2.136005226765768
aF-1.344987694417135
aF-0.9698427359210413
aF1.5395666360855103
aF-0.019808594380513966
aa(lp113
F-1.5231507460223597
aF-2.1415794531451624
aF-1.3349445501910608
aF-0.969830338154928
aF1.5395666360855103
aF-0.019772831593648732
aa(lp114
F-1.523186508809225
aF-2.1462672392474573
aF-1.3273819128619593
aF-0.9698427359210413
aF1.5395545959472656
aF-0.019796673451558888
aa(lp115
F-1.5231269041644495
aF-2.1508711020099085
aF-1.3197954336749476
aF-0.9698427359210413
aF1.5395545959472656
aF-0.019820515309469044
aa(lp116
F-1.5231745878802698
aF-2.154539410267965
aF-1.3143542448626917
aF-0.969830338154928
aF1.5395545959472656
aF-0.019820515309469044
aa(lp117
F-1.5231626669513147
aF-2.157680336629049
aF-1.3104231993304651
aF-0.9698427359210413
aF1.539530634880066
aF-0.01978475252260381
aa(lp118
F-1.5231626669513147
aF-2.1606414953814905
aF-1.3075946013080042
aF-0.9697945753680628
aF1.5395187139511108
aF-0.019796673451558888
aa(lp119
F-1.5231626669513147
aF-2.1633032003985804
aF-1.306671444569723
aF-0.969818417225973
aF1.5395666360855103
aF-0.019808594380513966
aa(lp120
F-1.5231626669513147
aF-2.1650055090533655
aF-1.306671444569723
aF-0.9698546568499964
aF1.53959059715271
aF-0.019808594380513966
aa(lp121
F-1.523186508809225
aF-2.166084591542379
aF-1.306671444569723
aF-0.969830338154928
aF1.5395785570144653
aF-0.019832436238424123
aa(lp122
F-1.52319842973818
aF-2.166072670613424
aF-1.3066957632647913
aF-0.969818417225973
aF1.5395545959472656
aF-0.019820515309469044
aa(lp123
F-1.523210350667135
aF-2.166060749684469
aF-1.3066838423358362
aF-0.969830338154928
aF1.5395785570144653
aF-0.019832436238424123
aa(lp124
F-1.5231507460223597
aF-2.166048828755514
aF-1.3066838423358362
aF-0.969830338154928
aF1.539530634880066
aF-0.019820515309469044
aa(lp125
F-1.5232461134540003
aF-2.166036907826559
aF-1.3066957632647913
aF-0.969830338154928
aF1.5395785570144653
aF-0.019820515309469044
aa(lp126
F-1.5232227484332483
aF-2.166048828755514
aF-1.3067196051227015
aF-0.969818417225973
aF1.539530634880066
aF-0.019820515309469044
aa(lp127
F-1.5232346693622034
aF-2.166048828755514
aF-1.3067196051227015
aF-0.969830338154928
aF1.539530634880066
aF-0.019796673451558888
aa(lp128
F-1.5232461134540003
aF-2.166036907826559
aF-1.3066957632647913
aF-0.9698546568499964
aF1.5395785570144653
aF-0.019832436238424123
aa(lp129
F-1.5232942740069788
aF-2.166048828755514
aF-1.3067315260516565
aF-0.9698546568499964
aF1.5395666360855103
aF-0.019820515309469044
aa(lp130
F-1.5232346693622034
aF-2.166036907826559
aF-1.3066838423358362
aF-0.9698427359210413
aF1.5395426750183105
aF-0.019832436238424123
aa(lp131
F-1.5232699553119105
aF-2.166084591542379
aF-1.3067315260516565
aF-0.9698427359210413
aF1.5395666360855103
aF-0.019820515309469044
aa(lp132
F-1.5232818762408655
aF-2.166072670613424
aF-1.30676776567568
aF-0.9698427359210413
aF1.5395187139511108
aF-0.019820515309469044
aa(lp133
F-1.5232818762408655
aF-2.166048828755514
aF-1.3067439238177698
aF-0.969818417225973
aF1.5395785570144653
aF-0.0198443571673792
aa(lp134
F-1.5232461134540003
aF-2.166048828755514
aF-1.30676776567568
aF-0.9697821776019495
aF1.5395426750183105
aF-0.01978475252260381
aa(lp135
F-1.5232580343829554
aF-2.166048828755514
aF-1.3067916075335901
aF-0.9698427359210413
aF1.5395426750183105
aF-0.01978475252260381
aa(lp136
F-1.5232818762408655
aF-2.166060749684469
aF-1.306779686604635
aF-0.9698546568499964
aF1.5395545959472656
aF-0.019772831593648732
aa(lp137
F-1.5232346693622034
aF-2.166084591542379
aF-1.3067439238177698
aF-0.9698427359210413
aF1.5395545959472656
aF-0.01978475252260381
aa(lp138
F-1.5232942740069788
aF-2.166072670613424
aF-1.306779686604635
aF-0.9698427359210413
aF1.5395426750183105
aF-0.019808594380513966
aa(lp139
F-1.5232580343829554
aF-2.166060749684469
aF-1.3067553679095667
aF-0.969830338154928
aF1.5395545959472656
aF-0.019820515309469044
aa(lp140
F-1.5232818762408655
aF-2.166048828755514
aF-1.306779686604635
aF-0.9698546568499964
aF1.5395666360855103
aF-0.019796673451558888
aa(lp141
F-1.5232818762408655
aF-2.166084591542379
aF-1.3068035284625452
aF-0.9698665777789515
aF1.5395666360855103
aF-0.019808594380513966
aa(lp142
F-1.5232942740069788
aF-2.1661084334002894
aF-1.3068392912494105
aF-0.969830338154928
aF1.5395545959472656
aF-0.019796673451558888
aa(lp143
F-1.5232461134540003
aF-2.166060749684469
aF-1.3068392912494105
aF-0.969830338154928
aF1.5395545959472656
aF-0.019796673451558888
aa(lp144
F-1.5232699553119105
aF-2.1661084334002894
aF-1.3068516890155237
aF-0.9697945753680628
aF1.5395187139511108
aF-0.019796673451558888
aa(lp145
F-1.5232580343829554
aF-2.166060749684469
aF-1.3068273703204554
aF-0.9698427359210413
aF1.539530634880066
aF-0.019796673451558888
aa(lp146
F-1.5232461134540003
aF-2.166048828755514
aF-1.3068392912494105
aF-0.969818417225973
aF1.5395785570144653
aF-0.019808594380513966
aa(lp147
F-1.5232942740069788
aF-2.166084591542379
aF-1.3067916075335901
aF-0.969830338154928
aF1.5395545959472656
aF-0.01978475252260381
aa(lp148
F-1.5232346693622034
aF-2.166060749684469
aF-1.3068755308734339
aF-0.9698427359210413
aF1.5395545959472656
aF-0.019796673451558888
aa(lp149
F-1.5232699553119105
aF-2.1660965124713343
aF-1.3068516890155237
aF-0.9698908964740198
aF1.5395066738128662
aF-0.019808594380513966
aa(lp150
F-1.5232699553119105
aF-2.1660965124713343
aF-1.3068273703204554
aF-0.9698427359210413
aF1.5395666360855103
aF-0.01978475252260381
aa(lp151
F-1.5233061949359339
aF-2.166084591542379
aF-1.3068273703204554
aF-0.9698427359210413
aF1.5395785570144653
aF-0.0198443571673792
aa(lp152
F-1.5232942740069788
aF-2.166084591542379
aF-1.3068273703204554
aF-0.9698546568499964
aF1.539530634880066
aF-0.019808594380513966
aa(lp153
F-1.5232699553119105
aF-2.166084591542379
aF-1.3068035284625452
aF-0.9698784987079065
aF1.5395545959472656
aF-0.019820515309469044
aa(lp154
F-1.5232942740069788
aF-2.1660965124713343
aF-1.3068392912494105
aF-0.9698064962970179
aF1.5395426750183105
aF-0.019820515309469044
aa(lp155
F-1.5233061949359339
aF-2.1660965124713343
aF-1.3068035284625452
aF-0.9698427359210413
aF1.5395545959472656
aF-0.01978475252260381
aa(lp156
F-1.5232942740069788
aF-2.1660965124713343
aF-1.3068035284625452
aF-0.9698546568499964
aF1.539530634880066
aF-0.019808594380513966
aa(lp157
F-1.5232580343829554
aF-2.166048828755514
aF-1.3068154493915003
aF-0.969818417225973
aF1.5395426750183105
aF-0.019820515309469044
aa(lp158
F-1.523318115864889
aF-2.166084591542379
aF-1.3068755308734339
aF-0.9698064962970179
aF1.5395545959472656
aF-0.01978475252260381
aa(lp159
F-1.5232818762408655
aF-2.166072670613424
aF-1.3068392912494105
aF-0.9698784987079065
aF1.5395426750183105
aF-0.01978475252260381
aa(lp160
F-1.5232580343829554
aF-2.1661084334002894
aF-1.3068516890155237
aF-0.9698546568499964
aF1.5395426750183105
aF-0.019820515309469044
aa(lp161
F-1.5232942740069788
aF-2.1661084334002894
aF-1.3068392912494105
aF-0.9698546568499964
aF1.5395666360855103
aF-0.019772831593648732
aa(lp162
F-1.523330036793844
aF-2.166084591542379
aF-1.3068516890155237
aF-0.969818417225973
aF1.539530634880066
aF-0.019796673451558888
aa(lp163
F-1.5232818762408655
aF-2.1660965124713343
aF-1.3068392912494105
aF-0.9698427359210413
aF1.5395187139511108
aF-0.019796673451558888
aa(lp164
F-1.5233419577227991
aF-2.166060749684469
aF-1.3068392912494105
aF-0.9698546568499964
aF1.5395785570144653
aF-0.01978475252260381
aa(lp165
F-1.523318115864889
aF-2.1661084334002894
aF-1.3068636099444788
aF-0.969818417225973
aF1.5395785570144653
aF-0.01978475252260381
aa(lp166
F-1.5233061949359339
aF-2.1661203543292444
aF-1.3068516890155237
aF-0.9698427359210413
aF1.5395187139511108
aF-0.01978475252260381
aa(lp167
F-1.5233061949359339
aF-2.166072670613424
aF-1.3068636099444788
aF-0.9698665777789515
aF1.5395545959472656
aF-0.019820515309469044
aa(lp168
F-1.5233657995807093
aF-2.166084591542379
aF-1.3068755308734339
aF-0.969830338154928
aF1.5395545959472656
aF-0.019832436238424123
aa(lp169
F-1.5233419577227991
aF-2.166060749684469
aF-1.3068392912494105
aF-0.969818417225973
aF1.5395545959472656
aF-0.019772831593648732
aa(lp170
F-1.5233781973468226
aF-2.166072670613424
aF-1.3068516890155237
aF-0.9698427359210413
aF1.5395666360855103
aF-0.019808594380513966
aa(lp171
F-1.5233419577227991
aF-2.166084591542379
aF-1.3068755308734339
aF-0.9698665777789515
aF1.539530634880066
aF-0.019820515309469044
aa(lp172
F-1.5234139601336878
aF-2.166072670613424
aF-1.306899372731344
aF-0.9698064962970179
aF1.539530634880066
aF-0.019808594380513966
aa(lp173
F-1.523330036793844
aF-2.166072670613424
aF-1.3069112936602991
aF-0.9698546568499964
aF1.5395785570144653
aF-0.019796673451558888
aa(lp174
F-1.5233538786517542
aF-2.166060749684469
aF-1.3068636099444788
aF-0.9698427359210413
aF1.5395545959472656
aF-0.01978475252260381
aa(lp175
F-1.5233419577227991
aF-2.166084591542379
aF-1.3069112936602991
aF-0.9698546568499964
aF1.5395187139511108
aF-0.01978475252260381
aa(lp176
F-1.5233419577227991
aF-2.166084591542379
aF-1.3069112936602991
aF-0.9698427359210413
aF1.5395666360855103
aF-0.019808594380513966
aa(lp177
F-1.5233538786517542
aF-2.1661084334002894
aF-1.3069356123553675
aF-0.9698784987079065
aF1.5395426750183105
aF-0.01978475252260381
aa(lp178
F-1.5233781973468226
aF-2.1661327520953577
aF-1.3069356123553675
aF-0.9698546568499964
aF1.539530634880066
aF-0.019796673451558888
aa(lp179
F-1.5233538786517542
aF-2.1661203543292444
aF-1.3069232145892542
aF-0.9698784987079065
aF1.539530634880066
aF-0.019820515309469044
aa(lp180
F-1.5233901182757776
aF-2.166084591542379
aF-1.3069232145892542
aF-0.969818417225973
aF1.5395666360855103
aF-0.019820515309469044
aa(lp181
F-1.5233901182757776
aF-2.166084591542379
aF-1.3069356123553675
aF-0.9698427359210413
aF1.5395666360855103
aF-0.019796673451558888
aa(lp182
F-1.5234020392047327
aF-2.1661084334002894
aF-1.3069232145892542
aF-0.969818417225973
aF1.5395785570144653
aF-0.019796673451558888
aa(lp183
F-1.5233901182757776
aF-2.1661084334002894
aF-1.3069475332843226
aF-0.9697945753680628
aF1.5395545959472656
aF-0.01978475252260381
aa(lp184
F-1.5233538786517542
aF-2.166072670613424
aF-1.3069356123553675
aF-0.969818417225973
aF1.5395785570144653
aF-0.019796673451558888
aa(lp185
F-1.5233419577227991
aF-2.166072670613424
aF-1.3069232145892542
aF-0.969830338154928
aF1.5395426750183105
aF-0.01978475252260381
aa(lp186
F-1.5233901182757776
aF-2.1660965124713343
aF-1.3069594542132776
aF-0.969830338154928
aF1.5395066738128662
aF-0.019820515309469044
aa(lp187
F-1.5233781973468226
aF-2.1660965124713343
aF-1.3069356123553675
aF-0.969830338154928
aF1.5395785570144653
aF-0.01978475252260381
aa(lp188
F-1.5234020392047327
aF-2.166084591542379
aF-1.3069475332843226
aF-0.969818417225973
aF1.5395666360855103
aF-0.01978475252260381
aa(lp189
F-1.5233901182757776
aF-2.1660965124713343
aF-1.3069356123553675
aF-0.9698665777789515
aF1.5395785570144653
aF-0.01978475252260381
aa(lp190
F-1.5234258810626429
aF-2.166084591542379
aF-1.3069356123553675
aF-0.9698546568499964
aF1.5395426750183105
aF-0.01978475252260381
aa(lp191
F-1.5234020392047327
aF-2.1660965124713343
aF-1.3069594542132776
aF-0.969818417225973
aF1.5395666360855103
aF-0.019832436238424123
aa(lp192
F-1.5233901182757776
aF-2.166072670613424
aF-1.3069475332843226
aF-0.9698546568499964
aF1.5395785570144653
aF-0.019820515309469044
aa(lp193
F-1.5234139601336878
aF-2.166084591542379
aF-1.3069594542132776
aF-0.969818417225973
aF1.5395545959472656
aF-0.01978475252260381
aa(lp194
F-1.5234020392047327
aF-2.1661327520953577
aF-1.3069356123553675
aF-0.9698064962970179
aF1.5395666360855103
aF-0.019796673451558888
aa(lp195
F-1.5233538786517542
aF-2.1661203543292444
aF-1.3069713751422327
aF-0.9698784987079065
aF1.5395426750183105
aF-0.019808594380513966
aa(lp196
F-1.5234258810626429
aF-2.166048828755514
aF-1.3069594542132776
aF-0.9698427359210413
aF1.5395187139511108
aF-0.019808594380513966
aa(lp197
F-1.523437801991598
aF-2.166060749684469
aF-1.3069832960711878
aF-0.9698427359210413
aF1.5395545959472656
aF-0.019808594380513966
aa(lp198
F-1.5233901182757776
aF-2.1661203543292444
aF-1.3069356123553675
aF-0.9698427359210413
aF1.5395666360855103
aF-0.019820515309469044
aa(lp199
F-1.5234020392047327
aF-2.166144673024313
aF-1.3069952170001429
aF-0.9698546568499964
aF1.5395426750183105
aF-0.01978475252260381
aa(lp200
F-1.5234020392047327
aF-2.1661084334002894
aF-1.3069713751422327
aF-0.969818417225973
aF1.539602518081665
aF-0.019832436238424123
aa(lp201
F-1.523437801991598
aF-2.1661327520953577
aF-1.3069475332843226
aF-0.9698665777789515
aF1.5395426750183105
aF-0.019808594380513966
aa(lp202
F-1.5234020392047327
aF-2.166084591542379
aF-1.3069356123553675
aF-0.969830338154928
aF1.5395426750183105
aF-0.019796673451558888
aa(lp203
F-1.5234139601336878
aF-2.166084591542379
aF-1.3069713751422327
aF-0.969818417225973
aF1.539530634880066
aF-0.019808594380513966
aa(lp204
F-1.5234139601336878
aF-2.166084591542379
aF-1.3069832960711878
aF-0.9698665777789515
aF1.539602518081665
aF-0.0198443571673792
aa(lp205
F-1.5234139601336878
aF-2.1661084334002894
aF-1.3069832960711878
aF-0.9698546568499964
aF1.5395666360855103
aF-0.019820515309469044
aa(lp206
F-1.5234139601336878
aF-2.1661084334002894
aF-1.3069713751422327
aF-0.9698546568499964
aF1.5395545959472656
aF-0.019796673451558888
aa(lp207
F-1.5234020392047327
aF-2.166084591542379
aF-1.3069713751422327
aF-0.9698546568499964
aF1.5395545959472656
aF-0.019832436238424123
aa(lp208
F-1.5234020392047327
aF-2.1660965124713343
aF-1.307007137929098
aF-0.9698546568499964
aF1.5395187139511108
aF-0.019796673451558888
aa(lp209
F-1.5234139601336878
aF-2.1661203543292444
aF-1.3069713751422327
aF-0.9698427359210413
aF1.5395545959472656
aF-0.019808594380513966
aa(lp210
F-1.523437801991598
aF-2.166084591542379
aF-1.3069713751422327
aF-0.969830338154928
aF1.5395545959472656
aF-0.01978475252260381
aa(lp211
F-1.523437801991598
aF-2.166072670613424
aF-1.3069952170001429
aF-0.969830338154928
aF1.5395545959472656
aF-0.019808594380513966
aa(lp212
F-1.5234020392047327
aF-2.166084591542379
aF-1.3070195356952112
aF-0.9698546568499964
aF1.5395426750183105
aF-0.019808594380513966
aa(lp213
F-1.5233901182757776
aF-2.1661203543292444
aF-1.307007137929098
aF-0.9698427359210413
aF1.5395187139511108
aF-0.01978475252260381
aa(lp214
F-1.5234139601336878
aF-2.1661084334002894
aF-1.3069952170001429
aF-0.9697945753680628
aF1.5395785570144653
aF-0.019820515309469044
aa(lp215
F-1.5234139601336878
aF-2.166072670613424
aF-1.307007137929098
aF-0.9698427359210413
aF1.5395545959472656
aF-0.019820515309469044
aa(lp216
F-1.5234258810626429
aF-2.166072670613424
aF-1.307007137929098
aF-0.9698427359210413
aF1.5395545959472656
aF-0.019796673451558888
aa(lp217
F-1.523437801991598
aF-2.166084591542379
aF-1.3069952170001429
aF-0.969818417225973
aF1.5395785570144653
aF-0.01978475252260381
aa(lp218
F-1.5234020392047327
aF-2.166060749684469
aF-1.3069952170001429
aF-0.9698427359210413
aF1.5395666360855103
aF-0.019796673451558888
aa(lp219
F-1.523437801991598
aF-2.166144673024313
aF-1.3069832960711878
aF-0.9698427359210413
aF1.5395785570144653
aF-0.01978475252260381
aa(lp220
F-1.523461643849508
aF-2.166084591542379
aF-1.3069475332843226
aF-0.9698784987079065
aF1.5395187139511108
aF-0.019772831593648732
aa(lp221
F-1.5234258810626429
aF-2.166084591542379
aF-1.3069832960711878
aF-0.969830338154928
aF1.5395785570144653
aF-0.019808594380513966
aa(lp222
F-1.5234258810626429
aF-2.1661203543292444
aF-1.3070433775531214
aF-0.969830338154928
aF1.5395666360855103
aF-0.019832436238424123
aa(lp223
F-1.5234020392047327
aF-2.1661084334002894
aF-1.3069952170001429
aF-0.9698665777789515
aF1.5395666360855103
aF-0.019808594380513966
aa(lp224
F-1.5233781973468226
aF-2.166084591542379
aF-1.3069713751422327
aF-0.9698427359210413
aF1.5395545959472656
aF-0.019808594380513966
aa(lp225
F-1.5233901182757776
aF-2.166084591542379
aF-1.307007137929098
aF-0.9698546568499964
aF1.5395426750183105
aF-0.019820515309469044
aa(lp226
F-1.5234139601336878
aF-2.166084591542379
aF-1.3069713751422327
aF-0.9698427359210413
aF1.5395426750183105
aF-0.019796673451558888
aa(lp227
F-1.5233781973468226
aF-2.1661203543292444
aF-1.3070552984820765
aF-0.9698665777789515
aF1.539530634880066
aF-0.019772831593648732
aa(lp228
F-1.5234258810626429
aF-2.1660965124713343
aF-1.307030979787008
aF-0.9698546568499964
aF1.5395666360855103
aF-0.019808594380513966
aa(lp229
F-1.523437801991598
aF-2.1661084334002894
aF-1.3069713751422327
aF-0.9698665777789515
aF1.5395545959472656
aF-0.019808594380513966
aa(lp230
F-1.5234258810626429
aF-2.166072670613424
aF-1.307007137929098
aF-0.9698427359210413
aF1.5395545959472656
aF-0.01978475252260381
aa(lp231
F-1.5234139601336878
aF-2.1661084334002894
aF-1.307030979787008
aF-0.9698665777789515
aF1.5395545959472656
aF-0.019796673451558888
aa(lp232
F-1.523449722920553
aF-2.166084591542379
aF-1.3069952170001429
aF-0.969830338154928
aF1.5395785570144653
aF-0.01978475252260381
aa(lp233
F-1.5234020392047327
aF-2.166084591542379
aF-1.3069952170001429
aF-0.9698427359210413
aF1.5395187139511108
aF-0.019796673451558888
aa(lp234
F-1.5234258810626429
aF-2.1661084334002894
aF-1.3069952170001429
aF-0.9698665777789515
aF1.5395666360855103
aF-0.019808594380513966
aa(lp235
F-1.5234139601336878
aF-2.166072670613424
aF-1.3070195356952112
aF-0.9698546568499964
aF1.5395666360855103
aF-0.019796673451558888
aa(lp236
F-1.5234139601336878
aF-2.1660965124713343
aF-1.307007137929098
aF-0.9698546568499964
aF1.5395785570144653
aF-0.019796673451558888
aa(lp237
F-1.5234139601336878
aF-2.166072670613424
aF-1.3070195356952112
aF-0.9698665777789515
aF1.5395426750183105
aF-0.019820515309469044
aa(lp238
F-1.5234258810626429
aF-2.1661084334002894
aF-1.3069832960711878
aF-0.9698665777789515
aF1.5395426750183105
aF-0.01978475252260381
aa(lp239
F-1.5233901182757776
aF-2.166072670613424
aF-1.307007137929098
aF-0.969830338154928
aF1.539530634880066
aF-0.019796673451558888
aa(lp240
F-1.5234139601336878
aF-2.1661084334002894
aF-1.307007137929098
aF-0.969818417225973
aF1.5395666360855103
aF-0.019796673451558888
aa(lp241
F-1.523449722920553
aF-2.166084591542379
aF-1.307007137929098
aF-0.969830338154928
aF1.5395187139511108
aF-0.019796673451558888
aa(lp242
F-1.5234020392047327
aF-2.1661327520953577
aF-1.3069594542132776
aF-0.9698427359210413
aF1.5395426750183105
aF-0.019820515309469044
aa(lp243
F-1.5234139601336878
aF-2.166060749684469
aF-1.3069952170001429
aF-0.9698665777789515
aF1.5395666360855103
aF-0.019820515309469044
aa(lp244
F-1.5234258810626429
aF-2.1661327520953577
aF-1.3070195356952112
aF-0.9698427359210413
aF1.539530634880066
aF-0.019808594380513966
aa(lp245
F-1.5234139601336878
aF-2.1661203543292444
aF-1.3070195356952112
aF-0.9698064962970179
aF1.5395426750183105
aF-0.019808594380513966
aa(lp246
F-1.5234258810626429
aF-2.1661203543292444
aF-1.307030979787008
aF-0.9698784987079065
aF1.5395545959472656
aF-0.019820515309469044
aa(lp247
F-1.5233901182757776
aF-2.1661084334002894
aF-1.3069594542132776
aF-0.969830338154928
aF1.5395187139511108
aF-0.01978475252260381
aa(lp248
F-1.5234020392047327
aF-2.1661203543292444
aF-1.3070195356952112
aF-0.969830338154928
aF1.5395426750183105
aF-0.019820515309469044
aa(lp249
F-1.523449722920553
aF-2.1661203543292444
aF-1.3069952170001429
aF-0.969818417225973
aF1.5395666360855103
aF-0.019808594380513966
aa(lp250
F-1.523461643849508
aF-2.166084591542379
aF-1.3069832960711878
aF-0.9698546568499964
aF1.539602518081665
aF-0.019808594380513966
aa(lp251
F-1.5234258810626429
aF-2.166072670613424
aF-1.3070195356952112
aF-0.9698546568499964
aF1.5395426750183105
aF-0.01978475252260381
aa(lp252
F-1.523437801991598
aF-2.166084591542379
aF-1.3070195356952112
aF-0.9698064962970179
aF1.5395666360855103
aF-0.019796673451558888
aa(lp253
F-1.523437801991598
aF-2.166084591542379
aF-1.307007137929098
aF-0.969830338154928
aF1.5395666360855103
aF-0.019796673451558888
aa.