(lp0
(lp1
(lp2
F-1.5708206335650843
aF-1.299995247517721
aF-2.3999601046191614
aF-0.9701421896563929
aF1.5399141311645508
aF3.141566514968872
aa(lp3
F-0.0318279
aF0.88176698
aF0.55647
aaa(lp4
(lp5
F-1.5708325544940394
aF-1.2999475638019007
aF-2.3999601046191614
aF-0.970154110585348
aF1.5399261713027954
aF3.1415061950683594
aag3
aa(lp6
(lp7
F-1.5708206335650843
aF-1.299983326588766
aF-2.3999839464770716
aF-0.970154110585348
aF1.5399141311645508
aF3.141542673110962
aag3
aa(lp8
(lp9
F-1.5708444754229944
aF-1.299983326588766
aF-2.3999720255481165
aF-0.9701421896563929
aF1.5399261713027954
aF3.1415181159973145
aag3
aa(lp10
(lp11
F-1.5708325544940394
aF-1.2999594847308558
aF-2.3999601046191614
aF-0.9701421896563929
aF1.5399380922317505
aF3.141554594039917
aag3
aa(lp12
(lp13
F-1.5708444754229944
aF-1.2999714056598108
aF-2.3999479452716272
aF-0.9701302687274378
aF1.5399141311645508
aF3.141566514968872
aag3
aa(lp14
(lp15
F-1.5708683172809046
aF-1.2999594847308558
aF-2.3999839464770716
aF-0.9701784292804163
aF1.5399141311645508
aF3.141566514968872
aag3
aa(lp16
(lp17
F-1.5708444754229944
aF-1.2999475638019007
aF-2.3999601046191614
aF-0.9701665083514612
aF1.5398662090301514
aF3.141554594039917
aag3
aa(lp18
(lp19
F-1.5708802382098597
aF-1.2999714056598108
aF-2.3999479452716272
aF-0.9701421896563929
aF1.539890170097351
aF3.1415181159973145
aag3
aa(lp20
(lp21
F-1.5708563963519495
aF-1.299983326588766
aF-2.3999839464770716
aF-0.9701421896563929
aF1.5399261713027954
aF3.141554594039917
aag3
aa(lp22
(lp23
F-1.5708563963519495
aF-1.2999475638019007
aF-2.3999479452716272
aF-0.9702022711383265
aF1.5399261713027954
aF3.141542673110962
aag3
aa(lp24
(lp25
F-1.5708444754229944
aF-1.2999475638019007
aF-2.3999601046191614
aF-0.9701784292804163
aF1.5399141311645508
aF3.141578435897827
aag3
aa(lp26
(lp27
F-1.5708206335650843
aF-1.299995247517721
aF-2.3999601046191614
aF-0.9701064268695276
aF1.5399022102355957
aF3.1415181159973145
aag3
aa(lp28
(lp29
F-1.570892635975973
aF-1.2999594847308558
aF-2.3999839464770716
aF-0.9701665083514612
aF1.539890170097351
aF3.1415181159973145
aag3
aa(lp30
(lp31
F-1.570892635975973
aF-1.299983326588766
aF-2.399936024342672
aF-0.970154110585348
aF1.5399261713027954
aF3.141542673110962
aag3
aa(lp32
(lp33
F-1.5708206335650843
aF-1.299983326588766
aF-2.3999601046191614
aF-0.9701665083514612
aF1.539890170097351
aF3.141554594039917
aag3
aa(lp34
(lp35
F-1.5708563963519495
aF-1.2999714056598108
aF-2.399936024342672
aF-0.9701784292804163
aF1.5399022102355957
aF3.141578435897827
aag3
aa(lp36
(lp37
F-1.5708563963519495
aF-1.2999475638019007
aF-2.3999601046191614
aF-0.9701421896563929
aF1.5399141311645508
aF3.141566514968872
aag3
aa(lp38
(lp39
F-1.5708683172809046
aF-1.2999594847308558
aF-2.3999479452716272
aF-0.9701665083514612
aF1.5399022102355957
aF3.141566514968872
aag3
aa(lp40
(lp41
F-1.5708563963519495
aF-1.2999594847308558
aF-2.3999479452716272
aF-0.9701665083514612
aF1.5399141311645508
aF3.141554594039917
aag3
aa(lp42
(lp43
F-1.5708802382098597
aF-1.2999594847308558
aF-2.400008026753561
aF-0.9702022711383265
aF1.539878249168396
aF3.141578435897827
aag3
aa(lp44
(lp45
F-1.5708325544940394
aF-1.2999714056598108
aF-2.3999479452716272
aF-0.9701302687274378
aF1.539878249168396
aF3.141554594039917
aag3
aa(lp46
(lp47
F-1.5708444754229944
aF-1.2999118010150355
aF-2.3999479452716272
aF-0.9701665083514612
aF1.5398662090301514
aF3.141566514968872
aag3
aa(lp48
(lp49
F-1.5708444754229944
aF-1.2999594847308558
aF-2.3999601046191614
aF-0.970154110585348
aF1.539878249168396
aF3.141554594039917
aag3
aa(lp50
(lp51
F-1.570916477833883
aF-1.2999714056598108
aF-2.399936024342672
aF-0.9702141920672815
aF1.5398541688919067
aF3.141554594039917
aag3
aa(lp52
(lp53
F-1.570904556904928
aF-1.2999356428729456
aF-2.3999601046191614
aF-0.9701665083514612
aF1.5398541688919067
aF3.141554594039917
aag3
aa(lp54
(lp55
F-1.5708563963519495
aF-1.2999594847308558
aF-2.3999839464770716
aF-0.970154110585348
aF1.5398662090301514
aF3.141554594039917
aag3
aa(lp56
(lp57
F-1.5708563963519495
aF-1.2999475638019007
aF-2.399888579045431
aF-0.9701302687274378
aF1.5399380922317505
aF3.141566514968872
aag3
aa(lp58
(lp59
F-1.5708563963519495
aF-1.2999232451068323
aF-2.399876419697897
aF-0.970046345387594
aF1.5399976968765259
aF3.1415181159973145
aag3
aa(lp60
(lp61
F-1.5708325544940394
aF-1.2998278776751917
aF-2.3994694391833704
aF-0.9700105826007288
aF1.54008150100708
aF3.141566514968872
aag3
aa(lp62
(lp63
F-1.570784870778219
aF-1.2997196356402796
aF-2.398201290761129
aF-0.9699266592608851
aF1.5402014255523682
aF3.141566514968872
aag3
aa(lp64
(lp65
F-1.5705936590777796
aF-1.2996600309955042
aF-2.395484272633688
aF-0.9697945753680628
aF1.5406204462051392
aF3.1415181159973145
aag3
aa(lp66
(lp67
F-1.5702107588397425
aF-1.2996600309955042
aF-2.3920136133777063
aF-0.9697583357440394
aF1.5408960580825806
aF3.141566514968872
aag3
aa(lp68
(lp69
F-1.5690858999835413
aF-1.2996719519244593
aF-2.3875137011157435
aF-0.9697583357440394
aF1.5413631200790405
aF3.141542673110962
aag3
aa(lp70
(lp71
F-1.5666092077838343
aF-1.2997077147113245
aF-2.380883280430929
aF-0.9697464148150843
aF1.5418660640716553
aF3.141554594039917
aag3
aa(lp72
(lp73
F-1.5611408392535608
aF-1.2997797171222132
aF-2.368436638508932
aF-0.9697464148150843
aF1.5418421030044556
aF3.1415181159973145
aag3
aa(lp74
(lp75
F-1.5549429098712366
aF-1.2999118010150355
aF-2.355414930974142
aF-0.9697583357440394
aF1.5418660640716553
aF3.141542673110962
aag3
aa(lp76
(lp77
F-1.5454309622394007
aF-1.299995247517721
aF-2.341879192982809
aF-0.9698427359210413
aF1.5418181419372559
aF3.1415061950683594
aag3
aa(lp78
(lp79
F-1.5351641813861292
aF-1.3001750151263636
aF-2.331430498753683
aF-0.9697702566729944
aF1.5417941808700562
aF3.141578435897827
aag3
aa(lp80
(lp81
F-1.5210450331317347
aF-1.3006423155414026
aF-2.320754353200094
aF-0.9698064962970179
aF1.5417941808700562
aF3.141566514968872
aag3
aa(lp82
(lp83
F-1.5069850126849573
aF-1.3016012350665491
aF-2.312579933797018
aF-0.969818417225973
aF1.5417702198028564
aF3.141578435897827
aag3
aa(lp84
(lp85
F-1.4865229765521448
aF-1.3040574232684534
aF-2.303244415913717
aF-0.9697821776019495
aF1.5416983366012573
aF3.1416144371032715
aag3
aa(lp86
(lp87
F-1.4647553602801722
aF-1.3086956183062952
aF-2.2965057531939905
aF-0.969818417225973
aF1.5416626930236816
aF3.141578435897827
aag3
aa(lp88
(lp89
F-1.4453333059894007
aF-1.3157537619220179
aF-2.2922092119800013
aF-0.9697945753680628
aF1.541638731956482
aF3.1416263580322266
aag3
aa(lp90
(lp91
F-1.4235289732562464
aF-1.3280251661883753
aF-2.289144817982809
aF-0.9698546568499964
aF1.541542887687683
aF3.1416025161743164
aag3
aa(lp92
(lp93
F-1.407755200062887
aF-1.3395655790912073
aF-2.287577215825216
aF-0.9698064962970179
aF1.5415668487548828
aF3.1416144371032715
aag3
aa(lp94
(lp95
F-1.3925803343402308
aF-1.3533595244037073
aF-2.285398785267965
aF-0.9697464148150843
aF1.541542887687683
aF3.1416025161743164
aag3
aa(lp96
(lp97
F-1.3737662474261683
aF-1.3735640684710901
aF-2.2814491430865687
aF-0.9697583357440394
aF1.5415068864822388
aF3.141650438308716
aag3
aa(lp98
(lp99
F-1.3592718283282679
aF-1.3924992720233362
aF-2.278086010609762
aF-0.9697225729571741
aF1.5415068864822388
aF3.1416025161743164
aag3
aa(lp100
(lp101
F-1.3484285513507288
aF-1.4082468191729944
aF-2.276792828236715
aF-0.9697344938861292
aF1.5415308475494385
aF3.1416263580322266
aag3
aa(lp102
(lp103
F-1.3381112257586878
aF-1.426223103200094
aF-2.276374165211813
aF-0.9696624914752405
aF1.5415068864822388
aF3.1416263580322266
aag3
aa(lp104
(lp105
F-1.3309534231769007
aF-1.4408682028399866
aF-2.2758591810809534
aF-0.969494644795553
aF1.541471004486084
aF3.1416263580322266
aag3
aa(lp106
(lp107
F-1.3242629210101526
aF-1.4570353666888636
aF-2.2745068709002894
aF-0.9691231886493128
aF1.5415068864822388
aF3.1416263580322266
aag3
aa(lp108
(lp109
F-1.3201807180987757
aF-1.474196736012594
aF-2.2712395826922815
aF-0.968475643788473
aF1.5415189266204834
aF3.1416144371032715
aag3
aa(lp110
(lp111
F-1.3191517035113733
aF-1.4860499540912073
aF-2.2680557409869593
aF-0.9680798689471644
aF1.5414470434188843
aF3.1416263580322266
aag3
aa(lp112
(lp113
F-1.3190558592425745
aF-1.5003002325641077
aF-2.263818089162008
aF-0.9678404966937464
aF1.541482925415039
aF3.1416144371032715
aag3
aa(lp114
(lp115
F-1.3190677801715296
aF-1.510247532521383
aF-2.260239903126852
aF-0.9677923361407679
aF1.541482925415039
aF3.1416144371032715
aag3
aa(lp116
(lp117
F-1.3190205732928675
aF-1.5193560759173792
aF-2.2562535444842737
aF-0.9677923361407679
aF1.5414949655532837
aF3.1416385173797607
aag3
aa(lp118
(lp119
F-1.3190797011004847
aF-1.5298312346087855
aF-2.2515495459186
aF-0.9677441755877894
aF1.5415068864822388
aF3.1416385173797607
aag3
aa(lp120
(lp121
F-1.3190797011004847
aF-1.536734406148092
aF-2.2489522139178675
aF-0.9677684942828577
aF1.5415068864822388
aF3.1416144371032715
aag3
aa(lp122
(lp123
F-1.319092098866598
aF-1.5435059706317347
aF-2.2472403685199183
aF-0.9677441755877894
aF1.541482925415039
aF3.1416144371032715
aag3
aa(lp124
(lp125
F-1.3190320173846644
aF-1.5491984526263636
aF-2.2467501799212855
aF-0.9677203337298792
aF1.5415189266204834
aF3.141578435897827
aag3
aa(lp126
(lp127
F-1.3191278616534632
aF-1.5509246031390589
aF-2.246702019368307
aF-0.9677084128009241
aF1.5415068864822388
aF3.141650438308716
aag3
aa(lp128
(lp129
F-1.319104019795553
aF-1.5508769194232386
aF-2.246582333241598
aF-0.967696491871969
aF1.541542887687683
aF3.1416144371032715
aag3
aa(lp130
(lp131
F-1.319092098866598
aF-1.5507810751544397
aF-2.246115509663717
aF-0.9677684942828577
aF1.5414949655532837
aF3.1416025161743164
aag3
aa(lp132
(lp133
F-1.319104019795553
aF-1.5508292357074183
aF-2.2456005255328577
aF-0.9677203337298792
aF1.541482925415039
aF3.1416385173797607
aag3
aa(lp134
(lp135
F-1.3190797011004847
aF-1.550816837941305
aF-2.2453139464007776
aF-0.9677322546588343
aF1.5415068864822388
aF3.1416144371032715
aag3
aa(lp136
(lp137
F-1.3190677801715296
aF-1.5508292357074183
aF-2.2453015486346644
aF-0.9677322546588343
aF1.5415189266204834
aF3.1416144371032715
aag3
aa(lp138
(lp139
F-1.3191517035113733
aF-1.5506966749774378
aF-2.2443793455706995
aF-0.9677804152118128
aF1.5415548086166382
aF3.1416263580322266
aag3
aa(lp140
(lp141
F-1.319104019795553
aF-1.5505769888507288
aF-2.243183437977926
aF-0.967684570943014
aF1.541471004486084
aF3.1416025161743164
aag3
aa(lp142
(lp143
F-1.319092098866598
aF-1.5505049864398401
aF-2.2421415487872522
aF-0.9677084128009241
aF1.5414589643478394
aF3.1415905952453613
aag3
aa(lp144
(lp145
F-1.319115940724508
aF-1.5505526701556605
aF-2.2420218626605433
aF-0.9677203337298792
aF1.541482925415039
aF3.1415905952453613
aag3
aa(lp146
(lp147
F-1.319104019795553
aF-1.5505288282977503
aF-2.2420218626605433
aF-0.9677084128009241
aF1.541471004486084
aF3.1416025161743164
aag3
aa(lp148
(lp149
F-1.3191278616534632
aF-1.5505288282977503
aF-2.2420218626605433
aF-0.9676602522479456
aF1.541471004486084
aF3.1415905952453613
aag3
aa(lp150
(lp151
F-1.3190797011004847
aF-1.5505412260638636
aF-2.2420933882342737
aF-0.9677441755877894
aF1.5415068864822388
aF3.1416263580322266
aag3
aa(lp152
(lp153
F-1.3190677801715296
aF-1.5505650679217737
aF-2.242201630269186
aF-0.9677804152118128
aF1.541471004486084
aF3.1416025161743164
aag3
aa(lp154
(lp155
F-1.3191278616534632
aF-1.5505889097796839
aF-2.2422974745379847
aF-0.967816177998678
aF1.5414589643478394
aF3.1415905952453613
aag3
aa(lp156
(lp157
F-1.319092098866598
aF-1.5505769888507288
aF-2.242345158253805
aF-0.9678280989276331
aF1.5414589643478394
aF3.1415905952453613
aag3
aa(lp158
(lp159
F-1.3190677801715296
aF-1.5505769888507288
aF-2.242488686238424
aF-0.9678280989276331
aF1.5414949655532837
aF3.141566514968872
aag3
aa(lp160
(lp161
F-1.319092098866598
aF-1.5505650679217737
aF-2.2425130049334925
aF-0.9678404966937464
aF1.5414589643478394
aF3.141578435897827
aag3
aa(lp162
(lp163
F-1.319104019795553
aF-1.5505769888507288
aF-2.242584530507223
aF-0.9678762594806116
aF1.5414949655532837
aF3.1415905952453613
aag3
aa(lp164
(lp165
F-1.3191278616534632
aF-1.5505650679217737
aF-2.242584530507223
aF-0.9679721037494105
aF1.541482925415039
aF3.141578435897827
aag3
aa(lp166
(lp167
F-1.319115940724508
aF-1.550600830708639
aF-2.2427881399737757
aF-0.9680078665362757
aF1.5414470434188843
aF3.141566514968872
aag3
aa(lp168
(lp169
F-1.3191397825824183
aF-1.5505526701556605
aF-2.2427762190448206
aF-0.9680197874652308
aF1.541482925415039
aF3.1415905952453613
aag3
aa(lp170
(lp171
F-1.3191517035113733
aF-1.5505288282977503
aF-2.2427762190448206
aF-0.9680078665362757
aF1.5412912368774414
aF3.141566514968872
aag3
aa(lp172
(lp173
F-1.3193071524249476
aF-1.5505526701556605
aF-2.2429078261004847
aF-0.9680441061602991
aF1.5408122539520264
aF3.141578435897827
aag3
aa(lp174
(lp175
F-1.3192594687091272
aF-1.5505412260638636
aF-2.243206802998678
aF-0.9681280295001429
aF1.5407882928848267
aF3.141566514968872
aag3
aa(lp176
(lp177
F-1.3193309942828577
aF-1.5505049864398401
aF-2.2431591192828577
aF-0.9681161085711878
aF1.5405606031417847
aF3.1415905952453613
aag3
aa(lp178
(lp179
F-1.319343392048971
aF-1.550373379384176
aF-2.2428601423846644
aF-0.9679001013385218
aF1.5400335788726807
aF3.1416025161743164
aag3
aa(lp180
(lp181
F-1.319343392048971
aF-1.5498583952533167
aF-2.2415550390826624
aF-0.9668572584735315
aF1.539890170097351
aF3.1415905952453613
aag3
aa(lp182
(lp183
F-1.3192952314959925
aF-1.5482762495623987
aF-2.23895770708193
aF-0.9641597906695765
aF1.539878249168396
aF3.141566514968872
aag3
aa(lp184
(lp185
F-1.319343392048971
aF-1.5445006529437464
aF-2.2307708899127405
aF-0.9581659475909632
aF1.5397943258285522
aF3.1416025161743164
aag3
aa(lp186
(lp187
F-1.3193791548358362
aF-1.539682690297262
aF-2.218513790761129
aF-0.95050555864443
aF1.5391714572906494
aF3.1415905952453613
aag3
aa(lp188
(lp189
F-1.319355312977926
aF-1.533078972493307
aF-2.203383747731344
aF-0.9360244909869593
aF1.5379738807678223
aF3.141578435897827
aag3
aa(lp190
(lp191
F-1.319355312977926
aF-1.526727024708883
aF-2.18879205385317
aF-0.9167478720294397
aF1.5360338687896729
aF3.1416144371032715
aag3
aa(lp192
(lp193
F-1.3193910757647913
aF-1.5196798483477991
aF-2.173098866139547
aF-0.8908541838275355
aF1.5337347984313965
aF3.1416263580322266
aag3
aa(lp194
(lp195
F-1.3193672339068812
aF-1.5127041975604456
aF-2.157058064137594
aF-0.8586190382586878
aF1.530860424041748
aF3.1416144371032715
aag3
aa(lp196
(lp197
F-1.3193309942828577
aF-1.5055854956256312
aF-2.1378329435931605
aF-0.8127549330340784
aF1.5262854099273682
aF3.1416263580322266
aag3
aa(lp198
(lp199
F-1.3193190733539026
aF-1.501486603413717
aF-2.1185839811908167
aF-0.7592795530902308
aF1.5182971954345703
aF3.141554594039917
aag3
aa(lp200
(lp201
F-1.319247070943014
aF-1.501031223927633
aF-2.0965684095965784
aF-0.6916726271258753
aF1.5042494535446167
aF3.1416025161743164
aag3
aa(lp202
(lp203
F-1.3193071524249476
aF-1.5010913054095667
aF-2.079952065144674
aF-0.6395176092730921
aF1.4903331995010376
aF3.1416144371032715
aag3
aa(lp204
(lp205
F-1.3191755453692835
aF-1.5011752287494105
aF-2.0628207365619105
aF-0.586764160786764
aF1.472679615020752
aF3.1415905952453613
aag3
aa(lp206
(lp207
F-1.319115940724508
aF-1.501246754323141
aF-2.038097683583395
aF-0.5162251631366175
aF1.4480801820755005
aF3.141566514968872
aag3
aa(lp208
(lp209
F-1.318601433430807
aF-1.5014265219317835
aF-2.0182951132403772
aF-0.4635584990130823
aF1.432007074356079
aF3.141542673110962
aag3
aa(lp210
(lp211
F-1.3167222181903284
aF-1.501582447682516
aF-1.994277302418844
aF-0.40258723894228154
aF1.4182218313217163
aF3.141566514968872
aag3
aa(lp212
(lp213
F-1.313634220753805
aF-1.5023019949542444
aF-1.9661639372455042
aF-0.33363515535463506
aF1.4081974029541016
aF3.141578435897827
aag3
aa(lp214
(lp215
F-1.3115633169757288
aF-1.5042546431170862
aF-1.9416182676898401
aF-0.275339428578512
aF1.4049755334854126
aF3.141566514968872
aag3
aa(lp216
(lp217
F-1.3106415907489222
aF-1.5088213125811976
aF-1.9192989508258265
aF-0.22064096132387334
aF1.404735803604126
aF3.141566514968872
aag3
aa(lp218
(lp219
F-1.3103540579425257
aF-1.5177863279925745
aF-1.8992293516742151
aF-0.16789752641786748
aF1.4039931297302246
aF3.1415061950683594
aag3
aa(lp220
(lp221
F-1.3104022184955042
aF-1.5291598478900355
aF-1.8841179052936
aF-0.12481338182558233
aF1.4024962186813354
aF3.1415181159973145
aag3
aa(lp222
(lp223
F-1.310366455708639
aF-1.550469223652975
aF-1.8658917585956019
aF-0.06908828416933233
aF1.3981962203979492
aF3.1414942741394043
aag3
aa(lp224
(lp225
F-1.3104742209063929
aF-1.5704253355609339
aF-1.853617016469137
aF-0.029757324849263966
aF1.3951420783996582
aF3.141554594039917
aag3
aa(lp226
(lp227
F-1.3104742209063929
aF-1.59306508699526
aF-1.841306511555807
aF0.007235527038574219
aF1.3923755884170532
aF3.141554594039917
aag3
aa(lp228
(lp229
F-1.3105219046222132
aF-1.6223462263690394
aF-1.825965706502096
aF0.046480774879455566
aF1.3895732164382935
aF3.141578435897827
aag3
aa(lp230
(lp231
F-1.310617748891012
aF-1.6494458357440394
aF-1.8114269415484827
aF0.07758963108062744
aF1.3862195014953613
aF3.141554594039917
aag3
aa(lp232
(lp233
F-1.310869042073385
aF-1.6816280523883265
aF-1.7919538656817835
aF0.1123281717300415
aF1.3784698247909546
aF3.141578435897827
aag3
aa(lp234
(lp235
F-1.31085712114443
aF-1.7189644018756312
aF-1.7657845656024378
aF0.1502896547317505
aF1.360575795173645
aF3.141554594039917
aag3
aa(lp236
(lp237
F-1.3108928839312952
aF-1.7511122862445276
aF-1.7402623335467737
aF0.18121719360351562
aF1.3381301164627075
aF3.141554594039917
aag3
aa(lp238
(lp239
F-1.3108928839312952
aF-1.781461540852682
aF-1.7142108122455042
aF0.20659565925598145
aF1.313132882118225
aF3.1414942741394043
aag3
aa(lp240
(lp241
F-1.3108809630023401
aF-1.805638615285055
aF-1.6929023901568812
aF0.22230470180511475
aF1.292494535446167
aF3.1415181159973145
aag3
aa(lp242
(lp243
F-1.3109167257892054
aF-1.8310983816729944
aF-1.6706703344928187
aF0.2322385311126709
aF1.2723356485366821
aF3.1415061950683594
aag3
aa(lp244
(lp245
F-1.3108928839312952
aF-1.857110325490133
aF-1.648893181477682
aF0.23405945301055908
aF1.2617108821868896
aF3.1415181159973145
aag3
aa(lp246
(lp247
F-1.3108213583575647
aF-1.877380673085348
aF-1.632134739552633
aF0.234167218208313
aF1.2618786096572876
aF3.141554594039917
aag3
aa(lp248
(lp249
F-1.3109048048602503
aF-1.8961404005633753
aF-1.6155431906329554
aF0.23409533500671387
aF1.2618306875228882
aF3.141554594039917
aag3
aa(lp250
(lp251
F-1.3109048048602503
aF-1.9101889769183558
aF-1.6021979490863245
aF0.2341073751449585
aF1.2617707252502441
aF3.141554594039917
aag3
aa(lp252
(lp253
F-1.3108928839312952
aF-1.9247902075396937
aF-1.587151352559225
aF0.2341073751449585
aF1.2618067264556885
aF3.141542673110962
aag3
aa(lp254
(lp255
F-1.3109405676471155
aF-1.938263241444723
aF-1.572367016469137
aF0.23407137393951416
aF1.2617228031158447
aF3.1416025161743164
aag3
aa(lp256
(lp257
F-1.3109048048602503
aF-1.9467862288104456
aF-1.5629985968219202
aF0.2340834140777588
aF1.2617348432540894
aF3.1415905952453613
aag3
aa(lp258
(lp259
F-1.3109048048602503
aF-1.9540751616107386
aF-1.5554869810687464
aF0.23405945301055908
aF1.2617467641830444
aF3.141566514968872
aag3
aa(lp260
(lp261
F-1.3109286467181605
aF-1.9611957708941858
aF-1.5500834623919886
aF0.2339874505996704
aF1.2617707252502441
aF3.141554594039917
aag3
aa(lp262
(lp263
F-1.3109524885760706
aF-1.9640963713275355
aF-1.5497482458697718
aF0.23395156860351562
aF1.2617108821868896
aF3.141578435897827
aag3
aa(lp264
(lp265
F-1.3110006491290491
aF-1.9651992956744593
aF-1.5497363249408167
aF0.23399949073791504
aF1.26168692111969
aF3.1416025161743164
aag3
aa(lp266
(lp267
F-1.310976807271139
aF-1.9652355352984827
aF-1.5497124830829065
aF0.2339634895324707
aF1.261698842048645
aF3.141578435897827
aag3
aa(lp268
(lp269
F-1.3110244909869593
aF-1.965283219014303
aF-1.549772087727682
aF0.233939528465271
aF1.26168692111969
aF3.141578435897827
aag3
aa(lp270
(lp271
F-1.3110125700580042
aF-1.9652593771563929
aF-1.5497363249408167
aF0.23395156860351562
aF1.261698842048645
aF3.1415905952453613
aag3
aa(lp272
(lp273
F-1.3111560980426233
aF-1.9652474562274378
aF-1.549772087727682
aF0.2339874505996704
aF1.2617348432540894
aF3.141578435897827
aag3
aa(lp274
(lp275
F-1.3113120237933558
aF-1.9652355352984827
aF-1.549772087727682
aF0.23392760753631592
aF1.2617467641830444
aF3.1416263580322266
aag3
aa(lp276
(lp277
F-1.3113239447223108
aF-1.9652355352984827
aF-1.549795929585592
aF0.23392760753631592
aF1.2617228031158447
aF3.141578435897827
aag3
aa(lp278
(lp279
F-1.3113959471331995
aF-1.9652593771563929
aF-1.549772087727682
aF0.2339155673980713
aF1.2617108821868896
aF3.1415905952453613
aag3
aa(lp280
(lp281
F-1.311359707509176
aF-1.9652593771563929
aF-1.5498078505145472
aF0.2338557243347168
aF1.2617228031158447
aF3.141566514968872
aag3
aa(lp282
(lp283
F-1.3113716284381312
aF-1.9652474562274378
aF-1.549784008656637
aF0.2338796854019165
aF1.2617707252502441
aF3.1416025161743164
aag3
aa(lp284
(lp285
F-1.3114436308490198
aF-1.9651873747455042
aF-1.5498078505145472
aF0.23386764526367188
aF1.2617228031158447
aF3.141566514968872
aag3
aa(lp286
(lp287
F-1.3114317099200647
aF-1.9652236143695276
aF-1.5498078505145472
aF0.23384368419647217
aF1.261758804321289
aF3.1415905952453613
aag3
aa.