(lp0
(lp1
F-1.2376583258258265
aF-1.0987895170794886
aF-2.0254786650287073
aF-1.556528393422262
aF1.5806796550750732
aF3.141470193862915
aa(lp2
F-1.2376464048968714
aF-1.0988009611712855
aF-2.0254910627948206
aF-1.5564807097064417
aF1.5806915760040283
aF3.141470193862915
aa(lp3
F-1.2376821676837366
aF-1.0988009611712855
aF-2.0254667440997522
aF-1.556528393422262
aF1.5806676149368286
aF3.1414942741394043
aa(lp4
F-1.2376464048968714
aF-1.0988009611712855
aF-2.0254667440997522
aF-1.5565407911883753
aF1.5806676149368286
aF3.1414942741394043
aa(lp5
F-1.2376464048968714
aF-1.0988009611712855
aF-2.0254910627948206
aF-1.5565407911883753
aF1.5807275772094727
aF3.1415181159973145
aa(lp6
F-1.2376225630389612
aF-1.0987895170794886
aF-2.0255025068866175
aF-1.5564926306353968
aF1.580703616142273
aF3.141470193862915
aa(lp7
F-1.2376702467547815
aF-1.0988009611712855
aF-2.0255149046527308
aF-1.556516472493307
aF1.5806796550750732
aF3.14145827293396
aa(lp8
F-1.2376702467547815
aF-1.0988133589373987
aF-2.0254910627948206
aF-1.556528393422262
aF1.5806796550750732
aF3.141482353210449
aa(lp9
F-1.2376702467547815
aF-1.0988009611712855
aF-2.0255025068866175
aF-1.5565045515643519
aF1.5806915760040283
aF3.141470193862915
aa(lp10
F-1.2376821676837366
aF-1.0988009611712855
aF-2.0254667440997522
aF-1.5564807097064417
aF1.5806676149368286
aF3.141446352005005
aa(lp11
F-1.2376702467547815
aF-1.0988009611712855
aF-2.0255025068866175
aF-1.556528393422262
aF1.5806915760040283
aF3.14145827293396
aa(lp12
F-1.2376702467547815
aF-1.0987895170794886
aF-2.0254786650287073
aF-1.5564807097064417
aF1.5806317329406738
aF3.141482353210449
aa(lp13
F-1.2376940886126917
aF-1.0988133589373987
aF-2.025454823170797
aF-1.5564926306353968
aF1.5806796550750732
aF3.14145827293396
aa(lp14
F-1.2376821676837366
aF-1.0988009611712855
aF-2.0254910627948206
aF-1.556516472493307
aF1.5806796550750732
aF3.14143443107605
aa(lp15
F-1.2376940886126917
aF-1.098849121724264
aF-2.0254786650287073
aF-1.556516472493307
aF1.5806076526641846
aF3.141482353210449
aa(lp16
F-1.2376583258258265
aF-1.0989206472979944
aF-2.025526825581686
aF-1.556528393422262
aF1.5806676149368286
aF3.14145827293396
aa(lp17
F-1.2376583258258265
aF-1.0990527311908167
aF-2.0255149046527308
aF-1.5564926306353968
aF1.5806676149368286
aF3.1414222717285156
aa(lp18
F-1.2376940886126917
aF-1.0990284124957483
aF-2.025550667439596
aF-1.5564926306353968
aF1.580643653869629
aF3.141482353210449
aa(lp19
F-1.2376464048968714
aF-1.0990284124957483
aF-2.025538746510641
aF-1.5564807097064417
aF1.580643653869629
aF3.141470193862915
aa(lp20
F-1.2376583258258265
aF-1.0990403334247034
aF-2.0255025068866175
aF-1.5565045515643519
aF1.580643653869629
aF3.141470193862915
aa(lp21
F-1.2376821676837366
aF-1.0990045706378382
aF-2.0255149046527308
aF-1.556516472493307
aF1.580643653869629
aF3.141482353210449
aa(lp22
F-1.23771840730776
aF-1.0990164915667933
aF-2.0254667440997522
aF-1.556516472493307
aF1.5806196928024292
aF3.141470193862915
aa(lp23
F-1.237706486378805
aF-1.099112335835592
aF-2.025538746510641
aF-1.5565045515643519
aF1.5805836915969849
aF3.141470193862915
aa(lp24
F-1.2376821676837366
aF-1.099436108266012
aF-2.0254786650287073
aF-1.5564568678485315
aF1.5805597305297852
aF3.141482353210449
aa(lp25
F-1.2376940886126917
aF-1.1006463209735315
aF-2.0255149046527308
aF-1.5563605467425745
aF1.5806196928024292
aF3.1415061950683594
aa(lp26
F-1.2376583258258265
aF-1.1037376562701624
aF-2.0255025068866175
aF-1.5563848654376429
aF1.5806317329406738
aF3.1414942741394043
aa(lp27
F-1.2376464048968714
aF-1.1089022795306605
aF-2.025562588368551
aF-1.5563367048846644
aF1.5805957317352295
aF3.1414942741394043
aa(lp28
F-1.2375982443438929
aF-1.116223160420553
aF-2.025801960621969
aF-1.5563247839557093
aF1.5806196928024292
aF3.1415061950683594
aa(lp29
F-1.2376464048968714
aF-1.1266840139972132
aF-2.0258143583880823
aF-1.556277100239889
aF1.5805957317352295
aF3.1415181159973145
aa(lp30
F-1.2376702467547815
aF-1.1384509245501917
aF-2.025778118764059
aF-1.555737320576803
aF1.5805717706680298
aF3.141542673110962
aa(lp31
F-1.2376464048968714
aF-1.1504457632647913
aF-2.025778118764059
aF-1.5548623243915003
aF1.5805957317352295
aF3.141542673110962
aa(lp32
F-1.2376940886126917
aF-1.1650884787188929
aF-2.0257065931903284
aF-1.552835766469137
aF1.5805957317352295
aF3.141554594039917
aa(lp33
F-1.2376464048968714
aF-1.177119557057516
aF-2.025694195424215
aF-1.5446470419513147
aF1.5805717706680298
aF3.141566514968872
aa(lp34
F-1.2376702467547815
aF-1.1892817656146448
aF-2.0257304350482386
aF-1.5106452147113245
aF1.5805836915969849
aF3.141566514968872
aa(lp35
F-1.2376702467547815
aF-1.1989043394671839
aF-2.025766674672262
aF-1.4605181852923792
aF1.5806196928024292
aF3.141566514968872
aa(lp36
F-1.2376583258258265
aF-1.2060702482806605
aF-2.0257304350482386
aF-1.4145515600787562
aF1.5805957317352295
aF3.1415181159973145
aa(lp37
F-1.2376583258258265
aF-1.2117980162249964
aF-2.025766674672262
aF-1.3858493010150355
aF1.5805836915969849
aF3.141542673110962
aa(lp38
F-1.2376940886126917
aF-1.2179816404925745
aF-2.0257542769061487
aF-1.3738721052752894
aF1.5805957317352295
aF3.1415061950683594
aa(lp39
F-1.2376702467547815
aF-1.2290776411639612
aF-2.025778118764059
aF-1.3734763304339808
aF1.5805957317352295
aF3.141554594039917
aa(lp40
F-1.2376940886126917
aF-1.2424147764789026
aF-2.0257185141192835
aF-1.3724339644061487
aF1.5805836915969849
aF3.141554594039917
aa(lp41
F-1.2376702467547815
aF-1.2570226828204554
aF-2.025694195424215
aF-1.366906468068258
aF1.5805717706680298
aF3.141554594039917
aa(lp42
F-1.2376821676837366
aF-1.2702043692218226
aF-2.0257185141192835
aF-1.3605759779559534
aF1.5805717706680298
aF3.1415181159973145
aa(lp43
F-1.2376702467547815
aF-1.2767351309405726
aF-2.025670353566305
aF-1.3544018904315394
aF1.5806317329406738
aF3.141542673110962
aa(lp44
F-1.2376940886126917
aF-1.2780774275409144
aF-2.0257304350482386
aF-1.3508408705340784
aF1.5805957317352295
aF3.1415061950683594
aa(lp45
F-1.2376464048968714
aF-1.278281037007467
aF-2.025694195424215
aF-1.350241486226217
aF1.5805957317352295
aF3.141566514968872
aa(lp46
F-1.23771840730776
aF-1.2796834150897425
aF-2.0256226698504847
aF-1.3496783415423792
aF1.5806317329406738
aF3.141542673110962
aa(lp47
F-1.2376702467547815
aF-1.284093205128805
aF-2.0255149046527308
aF-1.3476999441729944
aF1.5805957317352295
aF3.1415181159973145
aa(lp48
F-1.2376940886126917
aF-1.2916424910174769
aF-2.0255025068866175
aF-1.3452900091754358
aF1.5806317329406738
aF3.141542673110962
aa(lp49
F-1.2376702467547815
aF-1.2991684118853968
aF-2.025430981312887
aF-1.335891071950094
aF1.5806196928024292
aF3.141542673110962
aa(lp50
F-1.2376940886126917
aF-1.3070414702044886
aF-2.0253594557391565
aF-1.2973220984088343
aF1.5805717706680298
aF3.141578435897827
aa(lp51
F-1.2376583258258265
aF-1.3162811438189905
aF-2.025395218526022
aF-1.2402070204364222
aF1.5806076526641846
aF3.1415181159973145
aa(lp52
F-1.2376583258258265
aF-1.328672234212057
aF-2.025407139454977
aF-1.1898415724383753
aF1.580643653869629
aF3.1414942741394043
aa(lp53
F-1.2376702467547815
aF-1.3434723059283655
aF-2.025395218526022
aF-1.1590669790851038
aF1.5805957317352295
aF3.1415181159973145
aa(lp54
F-1.2376702467547815
aF-1.3629220167743128
aF-2.025395218526022
aF-1.1356414000140589
aF1.5806076526641846
aF3.141554594039917
aa(lp55
F-1.2376940886126917
aF-1.3806350866900843
aF-2.0252392927752894
aF-1.1154521147357386
aF1.5806076526641846
aF3.141554594039917
aa(lp56
F-1.237706486378805
aF-1.394872013722555
aF-2.0251553694354456
aF-1.090936009083883
aF1.5805957317352295
aF3.1415061950683594
aa(lp57
F-1.2376821676837366
aF-1.4080188910113733
aF-2.0249999205218714
aF-1.05347186723818
aF1.5806076526641846
aF3.1415181159973145
aa(lp58
F-1.2376940886126917
aF-1.4169829527484339
aF-2.024987522755758
aF-1.0171478430377405
aF1.5805836915969849
aF3.1414942741394043
aa(lp59
F-1.237706486378805
aF-1.4254916349994105
aF-2.024928394948141
aF-0.9749253431903284
aF1.5805717706680298
aF3.141566514968872
aa(lp60
F-1.237753693257467
aF-1.4340251127826136
aF-2.0248563925372522
aF-0.9339264074908655
aF1.5805238485336304
aF3.1415181159973145
aa(lp61
F-1.237957779561178
aF-1.4449785391436976
aF-2.0247367064105433
aF-0.8935754934894007
aF1.5805238485336304
aF3.141542673110962
aa(lp62
F-1.2380769888507288
aF-1.4581497351275843
aF-2.0242818037616175
aF-0.8574083487140101
aF1.5805118083953857
aF3.141554594039917
aa(lp63
F-1.2382805983172815
aF-1.4775050322162073
aF-2.0239346663104456
aF-0.8085835615741175
aF1.580487847328186
aF3.141542673110962
aa(lp64
F-1.2386992613421839
aF-1.495673958455221
aF-2.0236952940570276
aF-0.7622764746295374
aF1.580475926399231
aF3.1415061950683594
aa(lp65
F-1.239405934010641
aF-1.5164077917682093
aF-2.0227492491351526
aF-0.7058408896075647
aF1.5804638862609863
aF3.1415181159973145
aa(lp66
F-1.2395017782794397
aF-1.533102814351217
aF-2.0215161482440394
aF-0.6530268828021448
aF1.5804519653320312
aF3.141542673110962
aa(lp67
F-1.240136448537008
aF-1.5464304129229944
aF-2.0183189550982874
aF-0.6052835623370569
aF1.5800811052322388
aF3.1415061950683594
aa(lp68
F-1.2404354254352015
aF-1.5545805136310022
aF-2.014571491871969
aF-0.5559232870685022
aF1.5800092220306396
aF3.1414942741394043
aa(lp69
F-1.2412856260882776
aF-1.554687801991598
aF-2.010141674672262
aF-0.5296734015094202
aF1.5798654556274414
aF3.1414942741394043
aa(lp70
F-1.2432244459735315
aF-1.5547359625445765
aF-2.00478965440859
aF-0.5224698225604456
aF1.5797096490859985
aF3.141470193862915
aa(lp71
F-1.2457388083087366
aF-1.5547359625445765
aF-2.002131764088766
aF-0.5224817434894007
aF1.5788475275039673
aF3.141470193862915
aa(lp72
F-1.256632153187887
aF-1.5547240416156214
aF-1.9958699385272425
aF-0.5224817434894007
aF1.5784764289855957
aF3.141470193862915
aa(lp73
F-1.27724534669985
aF-1.554711643849508
aF-1.989739720021383
aF-0.5225299040423792
aF1.5783804655075073
aF3.14145827293396
aa(lp74
F-1.301185433064596
aF-1.554711643849508
aF-1.9862917105304163
aF-0.5224698225604456
aF1.578464388847351
aF3.141482353210449
aa(lp75
F-1.3286197821246546
aF-1.554699722920553
aF-1.9834416548358362
aF-0.5225299040423792
aF1.5784404277801514
aF3.141446352005005
aa(lp76
F-1.3515761534320276
aF-1.554687801991598
aF-1.981729809437887
aF-0.5224936644183558
aF1.5784764289855957
aF3.1414942741394043
aa(lp77
F-1.3715642134295862
aF-1.554711643849508
aF-1.9816339651690882
aF-0.5224817434894007
aF1.578464388847351
aF3.14145827293396
aa(lp78
F-1.3899715582477015
aF-1.5546401182757776
aF-1.9816096464740198
aF-0.5224579016314905
aF1.5785003900527954
aF3.1414942741394043
aa(lp79
F-1.4044402281390589
aF-1.5546401182757776
aF-1.981729809437887
aF-0.5225537459002894
aF1.5785362720489502
aF3.1414942741394043
aa(lp80
F-1.4115851561175745
aF-1.5546043554889124
aF-1.981741730366842
aF-0.5225656668292444
aF1.5786198377609253
aF3.141470193862915
aa(lp81
F-1.4118006865130823
aF-1.5546281973468226
aF-1.981741730366842
aF-0.5225537459002894
aF1.5788235664367676
aF3.14143443107605
aa(lp82
F-1.4115613142596644
aF-1.5546043554889124
aF-1.9817655722247522
aF-0.5225299040423792
aF1.5790152549743652
aF3.1414942741394043
aa(lp83
F-1.4107711950885218
aF-1.5546281973468226
aF-1.9818013350116175
aF-0.5226014296161097
aF1.5793265104293823
aF3.141482353210449
aa(lp84
F-1.409443203602926
aF-1.5546281973468226
aF-1.9818256537066858
aF-0.5225656668292444
aF1.579566240310669
aF3.141482353210449
aa(lp85
F-1.4035313765155237
aF-1.5545685927020472
aF-1.9817536512957972
aF-0.5225175062762659
aF1.5796021223068237
aF3.1414942741394043
aa(lp86
F-1.3918259779559534
aF-1.5545924345599573
aF-1.981837574635641
aF-0.5225537459002894
aF1.5796021223068237
aF3.1415181159973145
aa(lp87
F-1.3773205916034144
aF-1.5545924345599573
aF-1.9817655722247522
aF-0.5225537459002894
aF1.5796021223068237
aF3.141470193862915
aa(lp88
F-1.3604567686664026
aF-1.5545924345599573
aF-1.9817655722247522
aF-0.5225413481341761
aF1.5796021223068237
aF3.141470193862915
aa(lp89
F-1.3430069128619593
aF-1.5546043554889124
aF-1.981837574635641
aF-0.5225656668292444
aF1.5796257257461548
aF3.1415181159973145
aa(lp90
F-1.3237960974322718
aF-1.5545924345599573
aF-1.9818013350116175
aF-0.5225895086871546
aF1.579566240310669
aF3.1414942741394043
aa(lp91
F-1.3054702917682093
aF-1.5546281973468226
aF-1.9818137327777308
aF-0.5226014296161097
aF1.5795302391052246
aF3.1415061950683594
aa(lp92
F-1.291765038167135
aF-1.5546281973468226
aF-1.981837574635641
aF-0.5225895086871546
aF1.5795183181762695
aF3.1414942741394043
aa(lp93
F-1.283062760029928
aF-1.5546281973468226
aF-1.9817536512957972
aF-0.522613827382223
aF1.5795422792434692
aF3.1414942741394043
aa(lp94
F-1.2773292700396937
aF-1.5546401182757776
aF-1.9818137327777308
aF-0.5226739088641565
aF1.5795302391052246
aF3.1415061950683594
aa(lp95
F-1.2762873808490198
aF-1.5545924345599573
aF-1.981741730366842
aF-0.5226252714740198
aF1.5794343948364258
aF3.141482353210449
aa(lp96
F-1.2772210280047815
aF-1.5546043554889124
aF-1.9816697279559534
aF-0.5225775877581995
aF1.5792665481567383
aF3.141482353210449
aa(lp97
F-1.2787178198443812
aF-1.5545924345599573
aF-1.981286350880758
aF-0.5225413481341761
aF1.5788235664367676
aF3.141470193862915
aa(lp98
F-1.2804773489581507
aF-1.5546281973468226
aF-1.9796817938434046
aF-0.5225055853473108
aF1.5785362720489502
aF3.141470193862915
aa(lp99
F-1.2838886419879358
aF-1.5546043554889124
aF-1.9739826361285608
aF-0.5225055853473108
aF1.5783565044403076
aF3.1414942741394043
aa(lp100
F-1.2946856657611292
aF-1.5546043554889124
aF-1.963757340108053
aF-0.5225299040423792
aF1.5782846212387085
aF3.14145827293396
aa(lp101
F-1.3100069204913538
aF-1.5545924345599573
aF-1.9571002165423792
aF-0.5225175062762659
aF1.5783206224441528
aF3.141446352005005
aa(lp102
F-1.328332249318258
aF-1.5546281973468226
aF-1.9557831923114222
aF-0.5225175062762659
aF1.5782966613769531
aF3.1415181159973145
aa(lp103
F-1.3445866743670862
aF-1.554652516041891
aF-1.9558308760272425
aF-0.5225413481341761
aF1.5783565044403076
aF3.141470193862915
aa(lp104
F-1.3621929327594202
aF-1.5546043554889124
aF-1.9555915037738245
aF-0.5225055853473108
aF1.578392505645752
aF3.141482353210449
aa(lp105
F-1.3746760527240198
aF-1.5545924345599573
aF-1.9555915037738245
aF-0.5224936644183558
aF1.5784285068511963
aF3.1415061950683594
aa(lp106
F-1.3831971327411097
aF-1.5546401182757776
aF-1.955651585255758
aF-0.5225055853473108
aF1.5784164667129517
aF3.141482353210449
aa(lp107
F-1.3853395620929163
aF-1.5546281973468226
aF-1.9553878943072718
aF-0.5223858992206019
aF1.578464388847351
aF3.141482353210449
aa(lp108
F-1.3855908552752894
aF-1.554711643849508
aF-1.9546335379229944
aF-0.5222299734698694
aF1.5785123109817505
aF3.1414942741394043
aa(lp109
F-1.3855193297015589
aF-1.5548794905291956
aF-1.9546454588519495
aF-0.5221942106830042
aF1.578583836555481
aF3.141482353210449
aa(lp110
F-1.3848851362811487
aF-1.5559585730182093
aF-1.9546335379229944
aF-0.5221579710589808
aF1.5788475275039673
aF3.141542673110962
aa(lp111
F-1.38237172762026
aF-1.5594938437091272
aF-1.9546454588519495
aF-0.5220502058612269
aF1.5788954496383667
aF3.1415181159973145
aa(lp112
F-1.372174088154928
aF-1.5658467451678675
aF-1.954442326222555
aF-0.5208633581744593
aF1.5788594484329224
aF3.141542673110962
aa(lp113
F-1.360241715108053
aF-1.573181454335348
aF-1.9498198668109339
aF-0.5121496359454554
aF1.5788235664367676
aF3.141578435897827
aa(lp114
F-1.3480694929706019
aF-1.5817869345294397
aF-1.9378345648394983
aF-0.4916899839984339
aF1.5788354873657227
aF3.1415905952453613
aa(lp115
F-1.3348081747638147
aF-1.5956781546222132
aF-1.9147723356830042
aF-0.4494274298297327
aF1.5788235664367676
aF3.141554594039917
aa(lp116
F-1.3229225317584437
aF-1.6172640959369105
aF-1.8858063856707972
aF-0.4016640822040003
aF1.5788235664367676
aF3.1415905952453613
aa(lp117
F-1.317404572163717
aF-1.6419304052936
aF-1.8584912459002894
aF-0.362711254750387
aF1.5787875652313232
aF3.141542673110962
aa(lp118
F-1.3141964117633265
aF-1.6669209639178675
aF-1.8298700491534632
aF-0.3239033857928675
aF1.5788235664367676
aF3.141566514968872
aa(lp119
F-1.3142560164081019
aF-1.6868413130389612
aF-1.8017380873309534
aF-0.2913277784930628
aF1.5788835287094116
aF3.1415061950683594
aa(lp120
F-1.3142202536212366
aF-1.7036221663104456
aF-1.7709830443011683
aF-0.2607539335833948
aF1.5788235664367676
aF3.1415181159973145
aa(lp121
F-1.3142684141742151
aF-1.7137625853167933
aF-1.7442262808429163
aF-0.24241763750185186
aF1.5788475275039673
aF3.141542673110962
aa(lp122
F-1.3142803351031702
aF-1.7154400984393519
aF-1.7273982206927698
aF-0.2405479590045374
aF1.578871488571167
aF3.1414942741394043
aa(lp123
F-1.3142321745501917
aF-1.7154400984393519
aF-1.7203553358661097
aF-0.24053603807558233
aF1.5788835287094116
aF3.141542673110962
aa(lp124
F-1.3142321745501917
aF-1.7154763380633753
aF-1.720271412526266
aF-0.24052411714662725
aF1.5788354873657227
aF3.1415181159973145
aa(lp125
F-1.3142202536212366
aF-1.7154400984393519
aF-1.7199118773089808
aF-0.24041587511171514
aF1.5789074897766113
aF3.141554594039917
aa(lp126
F-1.3141725699054163
aF-1.7155240217791956
aF-1.714186970387594
aF-0.2403319517718714
aF1.5788594484329224
aF3.141482353210449
aa(lp127
F-1.3142083326922815
aF-1.7159321943866175
aF-1.7010234037982386
aF-0.24035579362978154
aF1.5788354873657227
aF3.141566514968872
aa(lp128
F-1.3141964117633265
aF-1.7183292547809046
aF-1.6760967413531702
aF-0.24028379121889287
aF1.5788235664367676
aF3.141542673110962
aa(lp129
F-1.314148251210348
aF-1.7238429228412073
aF-1.6502106825457972
aF-0.24009210268129522
aF1.5788594484329224
aF3.141554594039917
aa(lp130
F-1.314160172139303
aF-1.7318738142596644
aF-1.6300137678729456
aF-0.2382586638080042
aF1.5788594484329224
aF3.141554594039917
aa(lp131
F-1.314160172139303
aF-1.743847672139303
aF-1.6127999464618128
aF-0.23031264940370733
aF1.5788594484329224
aF3.141566514968872
aa(lp132
F-1.3142083326922815
aF-1.757524315510885
aF-1.600856129323141
aF-0.22131234804262334
aF1.5788354873657227
aF3.141566514968872
aa(lp133
F-1.3142083326922815
aF-1.7791722456561487
aF-1.5831978956805628
aF-0.19612104097475225
aF1.5788354873657227
aF3.1416025161743164
aa(lp134
F-1.3142321745501917
aF-1.803265396748678
aF-1.563885513936178
aF-0.160227123891012
aF1.5788354873657227
aF3.1414942741394043
aa(lp135
F-1.3142684141742151
aF-1.8227794806109827
aF-1.5490887800799769
aF-0.14530688921083623
aF1.5788354873657227
aF3.141470193862915
aa(lp136
F-1.3142440954791468
aF-1.8307388464557093
aF-1.5477951208697718
aF-0.14596587816347295
aF1.578811526298523
aF3.141470193862915
aa(lp137
F-1.3142922560321253
aF-1.8333161512957972
aF-1.5478547255145472
aF-0.14623004594911748
aF1.5788354873657227
aF3.1415061950683594
aa(lp138
F-1.3142440954791468
aF-1.8333638350116175
aF-1.547830883656637
aF-0.14623004594911748
aF1.5788354873657227
aF3.141482353210449
aa(lp139
F-1.3142202536212366
aF-1.8333519140826624
aF-1.5478790442096155
aF-0.14626580873598272
aF1.5788594484329224
aF3.1414942741394043
aa(lp140
F-1.3142202536212366
aF-1.833411995564596
aF-1.5478790442096155
aF-0.1462176481830042
aF1.578811526298523
aF3.1414942741394043
aa(lp141
F-1.3142803351031702
aF-1.8334477583514612
aF-1.5478790442096155
aF-0.14625388780702764
aF1.5787756443023682
aF3.141554594039917
aa(lp142
F-1.3142803351031702
aF-1.8334596792804163
aF-1.5478547255145472
aF-0.1462176481830042
aF1.5787636041641235
aF3.141482353210449
aa(lp143
F-1.3142202536212366
aF-1.833400074635641
aF-1.5478070417987269
aF-0.14609796205629522
aF1.5788594484329224
aF3.1414942741394043
aa(lp144
F-1.3140767256366175
aF-1.8335917631732386
aF-1.5477951208697718
aF-0.14597779909242803
aF1.578931450843811
aF3.141470193862915
aa(lp145
F-1.314112965260641
aF-1.8346346060382288
aF-1.5477951208697718
aF-0.14563018480409795
aF1.5790033340454102
aF3.141482353210449
aa(lp146
F-1.3140528837787073
aF-1.838470760975973
aF-1.5476754347430628
aF-0.1435330549823206
aF1.5789433717727661
aF3.141482353210449
aa(lp147
F-1.314112965260641
aF-1.84617787996401
aF-1.546788517628805
aF-0.13261586824526006
aF1.5789554119110107
aF3.1414942741394043
aa(lp148
F-1.3140886465655726
aF-1.8598435560809534
aF-1.5439494291888636
aF-0.09285241762270147
aF1.5789433717727661
aF3.141482353210449
aa(lp149
F-1.3140767256366175
aF-1.8761337439166468
aF-1.538330380116598
aF-0.019319836293355763
aF1.5789912939071655
aF3.141470193862915
aa(lp150
F-1.3139928022967737
aF-1.8943541685687464
aF-1.5363176504718226
aF0.06705617904663086
aF1.579087257385254
aF3.1414942741394043
aa(lp151
F-1.3139093557940882
aF-1.9160268942462366
aF-1.5363176504718226
aF0.15733563899993896
aF1.5791587829589844
aF3.14145827293396
aa(lp152
F-1.3133347670184534
aF-1.9382393995868128
aF-1.5362933317767542
aF0.23159146308898926
aF1.579182744026184
aF3.14145827293396
aa(lp153
F-1.3124850432025355
aF-1.9579108397113245
aF-1.5361016432391565
aF0.27810633182525635
aF1.5792186260223389
aF3.14145827293396
aa(lp154
F-1.3122456709491175
aF-1.9798839727984827
aF-1.5360778013812464
aF0.3129141330718994
aF1.5791467428207397
aF3.141482353210449
aa(lp155
F-1.3121617476092737
aF-1.9982970396624964
aF-1.5358741919146937
aF0.3291972875595093
aF1.5792186260223389
aF3.141482353210449
aa(lp156
F-1.3120539824115198
aF-2.0101173559771937
aF-1.5332983175860804
aF0.32997632026672363
aF1.5792067050933838
aF3.1415061950683594
aa(lp157
F-1.3114798704730433
aF-2.0168307463275355
aF-1.5271638075457972
aF0.33000028133392334
aF1.579338550567627
aF3.141482353210449
aa(lp158
F-1.310366455708639
aF-2.022393051777975
aF-1.513984505330221
aF0.32997632026672363
aF1.579757571220398
aF3.141482353210449
aa(lp159
F-1.3071821371661585
aF-2.0281594435321253
aF-1.4936397711383265
aF0.33002424240112305
aF1.5803920030593872
aF3.14145827293396
aa(lp160
F-1.2978223005877894
aF-2.0369585196124476
aF-1.4676268736468714
aF0.33000028133392334
aF1.5806317329406738
aF3.1414942741394043
aa(lp161
F-1.2880061308490198
aF-2.0509002844439905
aF-1.4422114531146448
aF0.3299523591995239
aF1.5806317329406738
aF3.141470193862915
aa(lp162
F-1.281386677418844
aF-2.069697682057516
aF-1.4204028288470667
aF0.33006012439727783
aF1.5805597305297852
aF3.1414942741394043
aa(lp163
F-1.2759407202350062
aF-2.0881717840777796
aF-1.4015768210040491
aF0.33008408546447754
aF1.5805597305297852
aF3.141482353210449
aa(lp164
F-1.2723973433123987
aF-2.1076882521258753
aF-1.3803895155536097
aF0.3301321268081665
aF1.58054780960083
aF3.141482353210449
aa(lp165
F-1.2703383604632776
aF-2.126941982899801
aF-1.3598845640765589
aF0.3301321268081665
aF1.5805118083953857
aF3.141470193862915
aa(lp166
F-1.2669146696673792
aF-2.146566692982809
aF-1.339283291493551
aF0.3301321268081665
aF1.580415964126587
aF3.141482353210449
aa(lp167
F-1.2650473753558558
aF-2.1623199621783655
aF-1.320082966481344
aF0.33009612560272217
aF1.580415964126587
aF3.141482353210449
aa(lp168
F-1.2650592962848108
aF-2.176502052937643
aF-1.300535027180807
aF0.3301321268081665
aF1.5803920030593872
aF3.141482353210449
aa(lp169
F-1.2650592962848108
aF-2.187676254902975
aF-1.283060375844137
aF0.33010804653167725
aF1.5803560018539429
aF3.141482353210449
aa(lp170
F-1.2651189009295862
aF-2.1938980261432093
aF-1.2702353636371058
aF0.33007216453552246
aF1.5803560018539429
aF3.14145827293396
aa(lp171
F-1.2651551405536097
aF-2.1970632711993616
aF-1.2649133841144007
aF0.33009612560272217
aF1.5801889896392822
aF3.14145827293396
aa(lp172
F-1.2651789824115198
aF-2.197458569203512
aF-1.2646735350238245
aF0.33004820346832275
aF1.5801410675048828
aF3.14143443107605
aa(lp173
F-1.2652509848224085
aF-2.197458569203512
aF-1.2647212187396448
aF0.33002424240112305
aF1.580117106437683
aF3.14145827293396
aa(lp174
F-1.265466038380758
aF-2.1973984877215784
aF-1.2646854559527796
aF0.3299882411956787
aF1.5800931453704834
aF3.141482353210449
aa(lp175
F-1.26735765138735
aF-2.197350804005758
aF-1.2646735350238245
aF0.33004820346832275
aF1.5795183181762695
aF3.1414103507995605
aa(lp176
F-1.271463696156637
aF-2.197362724934713
aF-1.2646735350238245
aF0.3300361633300781
aF1.579278588294983
aF3.141446352005005
aa(lp177
F-1.280513111745016
aF-2.1973746458636683
aF-1.2647092978106897
aF0.3300361633300781
aF1.5792425870895386
aF3.141470193862915
aa(lp178
F-1.2875397841082972
aF-2.197350804005758
aF-1.2647092978106897
aF0.33002424240112305
aF1.5792306661605835
aF3.14145827293396
aa(lp179
F-1.2941473166095179
aF-2.197362724934713
aF-1.2647092978106897
aF0.3300122022628784
aF1.5792306661605835
aF3.141446352005005
aa(lp180
F-1.2986357847796839
aF-2.197422806416647
aF-1.2647574583636683
aF0.329964280128479
aF1.5792067050933838
aF3.141482353210449
aa(lp181
F-1.3029568831073206
aF-2.1974104086505335
aF-1.2648175398456019
aF0.3298684358596802
aF1.5793025493621826
aF3.14145827293396
aa(lp182
F-1.3034957090960901
aF-2.197434727345602
aF-1.2649253050433558
aF0.32990431785583496
aF1.5793265104293823
aF3.141470193862915
aa(lp183
F-1.3034117857562464
aF-2.197422806416647
aF-1.2650211493121546
aF0.3297010660171509
aF1.5793983936309814
aF3.141446352005005
aa(lp184
F-1.3029091993915003
aF-2.1975906530963343
aF-1.2655966917621058
aF0.32948529720306396
aF1.5794702768325806
aF3.141482353210449
aa(lp185
F-1.3022387663470667
aF-2.1991851965533655
aF-1.2667468229876917
aF0.3294013738632202
aF1.5794942378997803
aF3.141470193862915
aa(lp186
F-1.3022268454181116
aF-2.203381363545553
aF-1.269348446522848
aF0.32941341400146484
aF1.5794702768325806
aF3.141482353210449
aa(lp187
F-1.3023346106158655
aF-2.2080329100238245
aF-1.273459259663717
aF0.3294253349304199
aF1.5793983936309814
aF3.141470193862915
aa(lp188
F-1.3023107687579554
aF-2.208883587514059
aF-1.2750657240497034
aF0.3294973373413086
aF1.5794343948364258
aF3.141470193862915
aa(lp189
F-1.302286450062887
aF-2.2088597456561487
aF-1.2750776449786585
aF0.3294253349304199
aF1.5793983936309814
aF3.14145827293396
aa(lp190
F-1.3022988478290003
aF-2.208871666585104
aF-1.275125805531637
aF0.32946133613586426
aF1.5793864727020264
aF3.141482353210449
aa(lp191
F-1.3023107687579554
aF-2.208907429371969
aF-1.275125805531637
aF0.32938945293426514
aF1.579410433769226
aF3.14145827293396
aa(lp192
F-1.3023226896869105
aF-2.208883587514059
aF-1.2750895659076136
aF0.32944929599761963
aF1.5794223546981812
aF3.141482353210449
aa.