(lp0
(lp1
F-1.237706486378805
aF-1.0988009611712855
aF-2.025526825581686
aF-1.5565765539752405
aF1.5804998874664307
aF3.141482353210449
aa(lp2
F-1.2376464048968714
aF-1.0988009611712855
aF-2.0255149046527308
aF-1.5565527121173304
aF1.580487847328186
aF3.14145827293396
aa(lp3
F-1.2376583258258265
aF-1.0988133589373987
aF-2.025526825581686
aF-1.5565646330462855
aF1.580487847328186
aF3.141446352005005
aa(lp4
F-1.2376464048968714
aF-1.0988252798663538
aF-2.025526825581686
aF-1.5565884749041956
aF1.5805118083953857
aF3.14145827293396
aa(lp5
F-1.23771840730776
aF-1.0987895170794886
aF-2.0255025068866175
aF-1.5565527121173304
aF1.5805238485336304
aF3.141470193862915
aa(lp6
F-1.2376702467547815
aF-1.0988009611712855
aF-2.0254910627948206
aF-1.5565527121173304
aF1.5805118083953857
aF3.14145827293396
aa(lp7
F-1.2376940886126917
aF-1.0988133589373987
aF-2.0254910627948206
aF-1.5565646330462855
aF1.5805118083953857
aF3.141482353210449
aa(lp8
F-1.2376940886126917
aF-1.0987771193133753
aF-2.0255149046527308
aF-1.5565646330462855
aF1.5804998874664307
aF3.141470193862915
aa(lp9
F-1.2376821676837366
aF-1.0987895170794886
aF-2.0255149046527308
aF-1.5565646330462855
aF1.5805238485336304
aF3.1414942741394043
aa(lp10
F-1.237706486378805
aF-1.0987895170794886
aF-2.025526825581686
aF-1.556528393422262
aF1.5805357694625854
aF3.141482353210449
aa(lp11
F-1.2376821676837366
aF-1.0987895170794886
aF-2.025550667439596
aF-1.5565765539752405
aF1.580487847328186
aF3.141446352005005
aa(lp12
F-1.2376940886126917
aF-1.0988372007953089
aF-2.0255864302264612
aF-1.5565527121173304
aF1.580487847328186
aF3.14145827293396
aa(lp13
F-1.23771840730776
aF-1.098849121724264
aF-2.0255864302264612
aF-1.5565527121173304
aF1.580415964126587
aF3.1414942741394043
aa(lp14
F-1.2377656141864222
aF-1.0989564100848597
aF-2.0256107489215296
aF-1.5565527121173304
aF1.580427885055542
aF3.141482353210449
aa(lp15
F-1.2379096190081995
aF-1.0993521849261683
aF-2.0279091040240687
aF-1.5564444700824183
aF1.580236554145813
aF3.141482353210449
aa(lp16
F-1.237957779561178
aF-1.1014607588397425
aF-2.0374749342547815
aF-1.555077854787008
aF1.5791707038879395
aF3.141470193862915
aa(lp17
F-1.2387831846820276
aF-1.1052716414081019
aF-2.0529912153827112
aF-1.5419371763812464
aF1.573817491531372
aF3.1415181159973145
aa(lp18
F-1.2402680555926722
aF-1.111251179371969
aF-2.0745046774493616
aF-1.4687908331500452
aF1.5580215454101562
aF3.141542673110962
aa(lp19
F-1.2402437368976038
aF-1.1217950026141565
aF-2.097095314656393
aF-1.3541863600360315
aF1.5230998992919922
aF3.141542673110962
aa(lp20
F-1.240256134663717
aF-1.1432564894305628
aF-2.1275981108294886
aF-1.2052472273456019
aF1.4662246704101562
aF3.141542673110962
aa(lp21
F-1.2402799765216272
aF-1.1801875273333948
aF-2.1594165007220667
aF-1.022829834614889
aF1.3793202638626099
aF3.1415061950683594
aa(lp22
F-1.240351978932516
aF-1.22229510942568
aF-2.177527729664938
aF-0.8538597265826624
aF1.2903624773025513
aF3.141554594039917
aa(lp23
F-1.240363899861471
aF-1.2759564558612269
aF-2.187559429799215
aF-0.6718695799456995
aF1.2003920078277588
aF3.141482353210449
aa(lp24
F-1.240351978932516
aF-1.3353832403766077
aF-2.1881216208087366
aF-0.4990490118609827
aF1.1330088376998901
aF3.141482353210449
aa(lp25
F-1.240363899861471
aF-1.4027693907367151
aF-2.1877387205706995
aF-0.314890209828512
aF1.104701042175293
aF3.1414942741394043
aa(lp26
F-1.2404354254352015
aF-1.4652569929706019
aF-2.186110798512594
aF-0.1433776060687464
aF1.104701042175293
aF3.141470193862915
aa(lp27
F-1.2404831091510218
aF-1.5207942167865198
aF-2.1827948729144495
aF0.012424230575561523
aF1.1047489643096924
aF3.141470193862915
aa(lp28
F-1.2404592672931116
aF-1.5804083983050745
aF-2.1731346289264124
aF0.1876755952835083
aF1.1047848463058472
aF3.141482353210449
aa(lp29
F-1.2405789534198206
aF-1.6255462805377405
aF-2.1533950010882776
aF0.327831506729126
aF1.1048208475112915
aF3.1414222717285156
aa(lp30
F-1.240974251423971
aF-1.6674721876727503
aF-2.1188109556781214
aF0.45406949520111084
aF1.1048808097839355
aF3.141374349594116
aa(lp31
F-1.2419679800616663
aF-1.703203026448385
aF-2.0659330526935022
aF0.5302337408065796
aF1.1055275201797485
aF3.141326427459717
aa(lp32
F-1.2420638243304651
aF-1.7272947470294397
aF-2.0059035460101526
aF0.5313838720321655
aF1.1064859628677368
aF3.1412904262542725
aa(lp33
F-1.2420995871173304
aF-1.7464612166034144
aF-1.9424565474139612
aF0.5197862386703491
aF1.109936237335205
aF3.141230583190918
aa(lp34
F-1.2421234289752405
aF-1.7614319960223597
aF-1.8851354757892054
aF0.4968782663345337
aF1.1130026578903198
aF3.141242504119873
aa(lp35
F-1.2420156637774866
aF-1.779088322316305
aF-1.8258221785174769
aF0.44753992557525635
aF1.1193881034851074
aF3.1412546634674072
aa(lp36
F-1.2420395056353968
aF-1.8016350905047815
aF-1.7756779829608362
aF0.38000035285949707
aF1.1283851861953735
aF3.1412785053253174
aa(lp37
F-1.2420395056353968
aF-1.826075855885641
aF-1.735710922871725
aF0.324776291847229
aF1.1390706300735474
aF3.1412904262542725
aa(lp38
F-1.2420037428485315
aF-1.8583572546588343
aF-1.6854637304889124
aF0.28691279888153076
aF1.162274718284607
aF3.1413025856018066
aa(lp39
F-1.2420156637774866
aF-1.888900105153219
aF-1.636794392262594
aF0.2834261655807495
aF1.1893597841262817
aF3.1413145065307617
aa(lp40
F-1.241908375416891
aF-1.9172857443438929
aF-1.5939315001117151
aF0.2834022045135498
aF1.2221935987472534
aF3.1412785053253174
aa(lp41
F-1.2417762915240687
aF-1.9451802412616175
aF-1.5595482031451624
aF0.28343820571899414
aF1.2585724592208862
aF3.141326427459717
aa(lp42
F-1.24170428911318
aF-1.969647232686178
aF-1.5360778013812464
aF0.28336620330810547
aF1.2912968397140503
aF3.1413145065307617
aa(lp43
F-1.2416561285602015
aF-1.9916203657733362
aF-1.5193641821490687
aF0.2833782434463501
aF1.3161749839782715
aF3.141338348388672
aa(lp44
F-1.241476837788717
aF-2.0079596678363245
aF-1.5119479338275355
aF0.28346216678619385
aF1.3282966613769531
aF3.141338348388672
aa(lp45
F-1.2415006796466272
aF-2.025569740925924
aF-1.5015481154071253
aF0.28989648818969727
aF1.3290150165557861
aF3.141326427459717
aa(lp46
F-1.2415488401996058
aF-2.037377659474508
aF-1.4848931471454065
aF0.2966301441192627
aF1.3290029764175415
aF3.141350507736206
aa(lp47
F-1.2414410750018519
aF-2.047891441975729
aF-1.474828068410055
aF0.2965703010559082
aF1.3290150165557861
aF3.141350507736206
aa(lp48
F-1.2414887587176722
aF-2.0575178305255335
aF-1.4656136671649378
aF0.3042869567871094
aF1.3289554119110107
aF3.141326427459717
aa(lp49
F-1.2415006796466272
aF-2.0656097571002405
aF-1.4597066084491175
aF0.31704795360565186
aF1.3289554119110107
aF3.141350507736206
aa(lp50
F-1.2415006796466272
aF-2.0751646200763147
aF-1.4597542921649378
aF0.3496023416519165
aF1.3289074897766113
aF3.141350507736206
aa(lp51
F-1.241476837788717
aF-2.0891903082477015
aF-1.459909741078512
aF0.3980684280395508
aF1.3289434909820557
aF3.141338348388672
aa(lp52
F-1.2414410750018519
aF-2.1024497191058558
aF-1.459897820149557
aF0.4487501382827759
aF1.3289554119110107
aF3.1413145065307617
aa(lp53
F-1.241452995930807
aF-2.1088512579547327
aF-1.45988637605776
aF0.47375476360321045
aF1.3289434909820557
aF3.1413145065307617
aa(lp54
F-1.2415126005755823
aF-2.10934287706484
aF-1.4598506132708948
aF0.4751206636428833
aF1.3289434909820557
aF3.141338348388672
aa(lp55
F-1.241452995930807
aF-2.1093552748309534
aF-1.459874455128805
aF0.47509658336639404
aF1.3288835287094116
aF3.141326427459717
aa(lp56
F-1.2414172331439417
aF-2.10931903520693
aF-1.4598620573626917
aF0.4751325845718384
aF1.3288716077804565
aF3.141350507736206
aa(lp57
F-1.2414887587176722
aF-2.109330956135885
aF-1.4598620573626917
aF0.47509658336639404
aF1.328859567642212
aF3.141350507736206
aa(lp58
F-1.2415006796466272
aF-2.109330956135885
aF-1.459897820149557
aF0.4751206636428833
aF1.3289074897766113
aF3.141338348388672
aa(lp59
F-1.2415245215045374
aF-2.1093552748309534
aF-1.45988637605776
aF0.4751085042953491
aF1.3288476467132568
aF3.141326427459717
aa.