(lp0
(lp1
F-1.2376464048968714
aF-1.0988009611712855
aF-2.0255749861346644
aF-1.5565045515643519
aF1.5806676149368286
aF3.141578435897827
aa(lp2
F-1.237610165272848
aF-1.0987895170794886
aF-2.0255149046527308
aF-1.5564444700824183
aF1.5806317329406738
aF3.141554594039917
aa(lp3
F-1.2376583258258265
aF-1.0988009611712855
aF-2.0255749861346644
aF-1.5564926306353968
aF1.5806796550750732
aF3.141566514968872
aa(lp4
F-1.2376344839679163
aF-1.0987895170794886
aF-2.025550667439596
aF-1.5564444700824183
aF1.580643653869629
aF3.141566514968872
aa(lp5
F-1.2376464048968714
aF-1.0987895170794886
aF-2.025550667439596
aF-1.5564807097064417
aF1.5806676149368286
aF3.141578435897827
aa(lp6
F-1.2376464048968714
aF-1.0988252798663538
aF-2.025562588368551
aF-1.5564568678485315
aF1.5806076526641846
aF3.141578435897827
aa(lp7
F-1.2376583258258265
aF-1.0987895170794886
aF-2.025526825581686
aF-1.5564807097064417
aF1.5806796550750732
aF3.141554594039917
aa(lp8
F-1.2376344839679163
aF-1.0988009611712855
aF-2.025550667439596
aF-1.5564568678485315
aF1.5806796550750732
aF3.141566514968872
aa(lp9
F-1.2376344839679163
aF-1.0987651983844202
aF-2.025550667439596
aF-1.5564807097064417
aF1.5806317329406738
aF3.141554594039917
aa(lp10
F-1.2376702467547815
aF-1.0987895170794886
aF-2.025526825581686
aF-1.5564687887774866
aF1.5806317329406738
aF3.1415905952453613
aa(lp11
F-1.2376821676837366
aF-1.0988009611712855
aF-2.0255749861346644
aF-1.5564687887774866
aF1.580643653869629
aF3.141566514968872
aa(lp12
F-1.2376583258258265
aF-1.0987771193133753
aF-2.025562588368551
aF-1.5564687887774866
aF1.5806076526641846
aF3.141566514968872
aa(lp13
F-1.2376464048968714
aF-1.0988133589373987
aF-2.025550667439596
aF-1.5564568678485315
aF1.5806676149368286
aF3.1416025161743164
aa(lp14
F-1.2376464048968714
aF-1.0988133589373987
aF-2.0256107489215296
aF-1.5564687887774866
aF1.5806196928024292
aF3.141578435897827
aa(lp15
F-1.2376583258258265
aF-1.098849121724264
aF-2.0256345907794397
aF-1.5564926306353968
aF1.5806076526641846
aF3.141566514968872
aa(lp16
F-1.2376464048968714
aF-1.0989092032061976
aF-2.02600604692568
aF-1.5564687887774866
aF1.5806196928024292
aF3.141578435897827
aa(lp17
F-1.2376464048968714
aF-1.099208180104391
aF-2.027693573628561
aF-1.5564325491534632
aF1.5806196928024292
aF3.141578435897827
aa(lp18
F-1.2376464048968714
aF-1.09967548051943
aF-2.035990540181295
aF-1.5564687887774866
aF1.5806076526641846
aF3.141542673110962
aa(lp19
F-1.2376583258258265
aF-1.1005986372577112
aF-2.0475438276873987
aF-1.5563605467425745
aF1.5805836915969849
aF3.141566514968872
aa(lp20
F-1.237610165272848
aF-1.1008980909930628
aF-2.0678003470050257
aF-1.5562289396869105
aF1.5806196928024292
aF3.141566514968872
aa(lp21
F-1.2376464048968714
aF-1.1010540167437952
aF-2.0924857298480433
aF-1.5558808485614222
aF1.5806076526641846
aF3.141566514968872
aa(lp22
F-1.2376464048968714
aF-1.101389233266012
aF-2.1199963728534144
aF-1.5552218596087855
aF1.5806317329406738
aF3.1415905952453613
aa(lp23
F-1.2376225630389612
aF-1.1018083731280726
aF-2.1481640974627894
aF-1.5544188658343714
aF1.5805957317352295
aF3.141566514968872
aa(lp24
F-1.2376225630389612
aF-1.1025756041156214
aF-2.182363812123434
aF-1.5524643103228968
aF1.5805957317352295
aF3.141566514968872
aa(lp25
F-1.237610165272848
aF-1.1031149069415491
aF-2.2127440611468714
aF-1.5487473646747034
aF1.5805957317352295
aF3.1416144371032715
aa(lp26
F-1.2376225630389612
aF-1.103462044392721
aF-2.2426684538470667
aF-1.5383647123919886
aF1.5805357694625854
aF3.1416144371032715
aa(lp27
F-1.2376583258258265
aF-1.103809658681051
aF-2.2693241278277796
aF-1.5177190939532679
aF1.5805836915969849
aF3.1416144371032715
aa(lp28
F-1.2376702467547815
aF-1.1043008009540003
aF-2.296206537877218
aF-1.4833100477801722
aF1.5805238485336304
aF3.1416144371032715
aa(lp29
F-1.2376464048968714
aF-1.1054394880877894
aF-2.3255541960345667
aF-1.4340341726886194
aF1.5805238485336304
aF3.1416263580322266
aa(lp30
F-1.2376583258258265
aF-1.1077640692340296
aF-2.353201214467184
aF-1.3855374495135706
aF1.5804638862609863
aF3.1416025161743164
aa(lp31
F-1.237741772328512
aF-1.1136468092547815
aF-2.3809192816363733
aF-1.3389361540423792
aF1.580487847328186
aF3.141578435897827
aa(lp32
F-1.2377899328814905
aF-1.1213763395892542
aF-2.4082897345172327
aF-1.289469067250387
aF1.5804519653320312
aF3.1416263580322266
aa(lp33
F-1.2381251494037073
aF-1.129176441823141
aF-2.4257388750659388
aF-1.2471602598773401
aF1.5804399251937866
aF3.1416025161743164
aa(lp34
F-1.2384961287127894
aF-1.1341493765460413
aF-2.4337809721576136
aF-1.2163613478290003
aF1.5803680419921875
aF3.1416144371032715
aa(lp35
F-1.2396333853351038
aF-1.1374805609332483
aF-2.4342716375934046
aF-1.2060025374041956
aF1.5803920030593872
aF3.141662359237671
aa(lp36
F-1.2398489157306116
aF-1.1377199331866663
aF-2.4342716375934046
aF-1.2060626188861292
aF1.5803920030593872
aF3.141650438308716
aa(lp37
F-1.2399328390704554
aF-1.1377556959735315
aF-2.4342716375934046
aF-1.206038777028219
aF1.579757571220398
aF3.1416263580322266
aa(lp38
F-1.2399805227862757
aF-1.1377080122577112
aF-2.4341278711902063
aF-1.2060745398150843
aF1.579182744026184
aF3.1416263580322266
aa(lp39
F-1.2407706419574183
aF-1.137684170399801
aF-2.433338228856222
aF-1.2060149351703089
aF1.5788835287094116
aF3.1416144371032715
aa(lp40
F-1.242889706288473
aF-1.137660328541891
aF-2.430573288594381
aF-1.2060149351703089
aF1.5788475275039673
aF3.1416144371032715
aa(lp41
F-1.2432125250445765
aF-1.1376364866839808
aF-2.4281683603869837
aF-1.2060149351703089
aF1.578176736831665
aF3.1416263580322266
aa(lp42
F-1.244349781666891
aF-1.1376126448260706
aF-2.4281204382525843
aF-1.2060025374041956
aF1.5755301713943481
aF3.1416385173797607
aa(lp43
F-1.2510417143451136
aF-1.1376002470599573
aF-2.4280722776996058
aF-1.2059906164752405
aF1.5718655586242676
aF3.141650438308716
aa(lp44
F-1.2640779654132288
aF-1.1375888029681605
aF-2.427988592778341
aF-1.2060506979571741
aF1.5702967643737793
aF3.1416025161743164
aa(lp45
F-1.2806451956378382
aF-1.137552563344137
aF-2.428000513707296
aF-1.2059548536883753
aF1.570308804512024
aF3.141578435897827
aa(lp46
F-1.2984440962420862
aF-1.1375764052020472
aF-2.4274380842791956
aF-1.2060149351703089
aF1.5701290369033813
aF3.1415905952453613
aa(lp47
F-1.3176434675799769
aF-1.1375888029681605
aF-2.4233692328082483
aF-1.2059548536883753
aF1.5697938203811646
aF3.1416144371032715
aa(lp48
F-1.339499298726217
aF-1.1376364866839808
aF-2.4109345118152063
aF-1.2060506979571741
aF1.56926691532135
aF3.141566514968872
aa(lp49
F-1.3591883818255823
aF-1.1376002470599573
aF-2.3992062250720423
aF-1.2060506979571741
aF1.5659254789352417
aF3.1416025161743164
aa(lp50
F-1.38237172762026
aF-1.137684170399801
aF-2.39636999765505
aF-1.2060626188861292
aF1.5564172267913818
aF3.1416144371032715
aa(lp51
F-1.405039135609762
aF-1.1377199331866663
aF-2.3961907068835657
aF-1.206026856099264
aF1.5262374877929688
aF3.1416025161743164
aa(lp52
F-1.423755947743551
aF-1.1377080122577112
aF-2.3960347811328333
aF-1.2060506979571741
aF1.4825721979141235
aF3.1416025161743164
aa(lp53
F-1.4391339460956019
aF-1.137660328541891
aF-2.396130625401632
aF-1.2060745398150843
aF1.4432295560836792
aF3.1416144371032715
aa(lp54
F-1.446733299885885
aF-1.1376364866839808
aF-2.3961427847491663
aF-1.206026856099264
aF1.428510308265686
aF3.1416144371032715
aa(lp55
F-1.447571102772848
aF-1.1376364866839808
aF-2.3962741533862513
aF-1.2060864607440394
aF1.42868971824646
aF3.1416263580322266
aa(lp56
F-1.447571102772848
aF-1.1376479307757776
aF-2.3962741533862513
aF-1.2060626188861292
aF1.4286537170410156
aF3.1415905952453613
aa(lp57
F-1.447594944630758
aF-1.1376960913287562
aF-2.396250073109762
aF-1.2061103026019495
aF1.4286537170410156
aF3.1415905952453613
aa(lp58
F-1.4475591818438929
aF-1.1376717726336878
aF-2.396214310322897
aF-1.2060745398150843
aF1.4286417961120605
aF3.1416144371032715
aa(lp59
F-1.4475472609149378
aF-1.1376717726336878
aF-2.396226231251852
aF-1.2061346212970179
aF1.4286537170410156
aF3.1416144371032715
aa(lp60
F-1.4475348631488245
aF-1.1377680937396448
aF-2.3961547056781214
aF-1.2060506979571741
aF1.4286657571792603
aF3.1416025161743164
aa(lp61
F-1.4475114981280726
aF-1.138031307850973
aF-2.3960827032672327
aF-1.2060864607440394
aF1.428701639175415
aF3.141578435897827
aa(lp62
F-1.4475348631488245
aF-1.1389058271991175
aF-2.39510161081423
aF-1.2060506979571741
aF1.4286657571792603
aF3.1416144371032715
aa(lp63
F-1.4475591818438929
aF-1.14008075395693
aF-2.3914511839496058
aF-1.2059906164752405
aF1.4286776781082153
aF3.1416025161743164
aa(lp64
F-1.4474757353412073
aF-1.141590420399801
aF-2.388184134160177
aF-1.206038777028219
aF1.4286657571792603
aF3.1416144371032715
aa(lp65
F-1.4475229422198694
aF-1.1448138395892542
aF-2.381326500569479
aF-1.2060025374041956
aF1.4287136793136597
aF3.1416025161743164
aa(lp66
F-1.4474757353412073
aF-1.152926270161764
aF-2.372589651738302
aF-1.2060025374041956
aF1.428701639175415
aF3.1416025161743164
aa(lp67
F-1.4474876562701624
aF-1.1676767508136194
aF-2.3637331167804163
aF-1.2059186140643519
aF1.428701639175415
aF3.141650438308716
aa(lp68
F-1.4474876562701624
aF-1.1877840201007288
aF-2.355786148701803
aF-1.2058828512774866
aF1.4287376403808594
aF3.1416144371032715
aa(lp69
F-1.4474876562701624
aF-1.2126367727862757
aF-2.3472171465503138
aF-1.2056306044207972
aF1.428701639175415
aF3.1416144371032715
aa(lp70
F-1.447463337575094
aF-1.239802662526266
aF-2.334590260182516
aF-1.2054632345782679
aF1.428701639175415
aF3.1416025161743164
aa(lp71
F-1.447463337575094
aF-1.270252529774801
aF-2.315141264592306
aF-1.205367390309469
aF1.428701639175415
aF3.1416385173797607
aa(lp72
F-1.447451416646139
aF-1.3015416304217737
aF-2.292544190083639
aF-1.205271069203512
aF1.4287256002426147
aF3.1416144371032715
aa(lp73
F-1.4474876562701624
aF-1.3309734503375452
aF-2.272926632558004
aF-1.2053192297564905
aF1.4286776781082153
aF3.1416144371032715
aa(lp74
F-1.4474995771991175
aF-1.3599265257464808
aF-2.255547825490133
aF-1.2052114645587366
aF1.428701639175415
aF3.141578435897827
aa(lp75
F-1.447451416646139
aF-1.388028923665182
aF-2.2380364576922815
aF-1.2049596945392054
aF1.428701639175415
aF3.1416144371032715
aa(lp76
F-1.447463337575094
aF-1.4133041540728968
aF-2.2208836714373987
aF-1.2047560850726526
aF1.4287136793136597
aF3.1416144371032715
aa(lp77
F-1.4474757353412073
aF-1.4426777998553675
aF-2.1975062529193323
aF-1.204684082661764
aF1.42868971824646
aF3.1416144371032715
aa(lp78
F-1.4474757353412073
aF-1.468048397694723
aF-2.1751096884356897
aF-1.2045043150531214
aF1.4286776781082153
aF3.141578435897827
aa(lp79
F-1.4474876562701624
aF-1.498406235371725
aF-2.1479724089251917
aF-1.2045405546771448
aF1.4287256002426147
aF3.1416025161743164
aa(lp80
F-1.447463337575094
aF-1.529003922139303
aF-2.120463196431295
aF-1.2045043150531214
aF1.4286776781082153
aF3.1416025161743164
aa(lp81
F-1.4474876562701624
aF-1.5568578878985804
aF-2.0948689619647425
aF-1.2045162359820765
aF1.4286776781082153
aF3.1416025161743164
aa(lp82
F-1.447463337575094
aF-1.5835250059710901
aF-2.0688417593585413
aF-1.2044685522662562
aF1.4287136793136597
aF3.141578435897827
aa(lp83
F-1.4475472609149378
aF-1.6089580694781702
aF-2.042539421712057
aF-1.2045043150531214
aF1.4286537170410156
aF3.141578435897827
aa(lp84
F-1.4474876562701624
aF-1.6350629965411585
aF-2.0142601172076624
aF-1.2044685522662562
aF1.4286657571792603
aF3.141578435897827
aa(lp85
F-1.4475348631488245
aF-1.6586745421039026
aF-1.988542381917135
aF-1.2044685522662562
aF1.4286776781082153
aF3.1415905952453613
aa(lp86
F-1.4475591818438929
aF-1.6828983465777796
aF-1.9636734167682093
aF-1.2045043150531214
aF1.4286657571792603
aF3.1415905952453613
aa(lp87
F-1.4476187864886683
aF-1.7101429144488733
aF-1.936122242604391
aF-1.204456631337301
aF1.4286657571792603
aF3.1416025161743164
aa(lp88
F-1.4475114981280726
aF-1.7362244764911097
aF-1.9073966185199183
aF-1.2044685522662562
aF1.428701639175415
aF3.141578435897827
aa(lp89
F-1.4475472609149378
aF-1.7618034521686
aF-1.8761780897723597
aF-1.2044442335711878
aF1.4286776781082153
aF3.141578435897827
aa(lp90
F-1.4475114981280726
aF-1.7878745237933558
aF-1.8404443899737757
aF-1.2044685522662562
aF1.42868971824646
aF3.1416144371032715
aa(lp91
F-1.4475472609149378
aF-1.8105533758746546
aF-1.805798355733053
aF-1.2044685522662562
aF1.4286776781082153
aF3.1416025161743164
aa(lp92
F-1.4474995771991175
aF-1.8321893850909632
aF-1.7709830443011683
aF-1.2044804731952112
aF1.4287136793136597
aF3.1415905952453613
aa(lp93
F-1.4474876562701624
aF-1.8558037916766565
aF-1.7341411749469202
aF-1.2045405546771448
aF1.4287136793136597
aF3.141578435897827
aa(lp94
F-1.4474757353412073
aF-1.8783753553973597
aF-1.7010591665851038
aF-1.2045519987689417
aF1.428701639175415
aF3.141566514968872
aa(lp95
F-1.4474757353412073
aF-1.9030688444720667
aF-1.6657593886004847
aF-1.2045043150531214
aF1.4287376403808594
aF3.1416144371032715
aa(lp96
F-1.4474757353412073
aF-1.9253891150103968
aF-1.6319544951068323
aF-1.20457631746401
aF1.4287136793136597
aF3.141578435897827
aa(lp97
F-1.4474876562701624
aF-1.9463070074664515
aF-1.5977771917926233
aF-1.2045281569110315
aF1.4287376403808594
aF3.1415905952453613
aa(lp98
F-1.4474995771991175
aF-1.9679449240313929
aF-1.5628908316241663
aF-1.2044685522662562
aF1.4287376403808594
aF3.141566514968872
aa(lp99
F-1.4474876562701624
aF-1.9877365271197718
aF-1.5320761839496058
aF-1.2044804731952112
aF1.4287256002426147
aF3.141566514968872
aa(lp100
F-1.4475229422198694
aF-2.0067246595965784
aF-1.5027459303485315
aF-1.2045162359820765
aF1.4287376403808594
aF3.1415905952453613
aa(lp101
F-1.4474995771991175
aF-2.025773827229635
aF-1.4728148619281214
aF-1.2045405546771448
aF1.4287256002426147
aF3.141578435897827
aa(lp102
F-1.4475114981280726
aF-2.0435999075519007
aF-1.4403422514544886
aF-1.2045519987689417
aF1.428761601448059
aF3.141578435897827
aa(lp103
F-1.4475114981280726
aF-2.057122532521383
aF-1.4079998175250452
aF-1.204564396535055
aF1.4287256002426147
aF3.141554594039917
aa(lp104
F-1.4475472609149378
aF-2.0634282271014612
aF-1.3757393995868128
aF-1.20457631746401
aF1.428701639175415
aF3.141566514968872
aa(lp105
F-1.4476187864886683
aF-2.0634282271014612
aF-1.3397505919085901
aF-1.2046483198748987
aF1.428701639175415
aF3.141566514968872
aa(lp106
F-1.4477508703814905
aF-2.0633800665484827
aF-1.3026564756976526
aF-1.2046001593219202
aF1.4286417961120605
aF3.1415181159973145
aa(lp107
F-1.448911492024557
aF-2.0632484594928187
aF-1.262012783681051
aF-1.2048161665545862
aF1.4287256002426147
aF3.1415905952453613
aa(lp108
F-1.4514125029193323
aF-2.06315261522402
aF-1.2253096739398401
aF-1.2048519293414515
aF1.4286657571792603
aF3.141566514968872
aa(lp109
F-1.4534943739520472
aF-2.0631282965289515
aF-1.1917455832110804
aF-1.2050078550921839
aF1.4286537170410156
aF3.141566514968872
aa(lp110
F-1.4535067717181605
aF-2.062960926686422
aF-1.1613324324237269
aF-1.2049840132342737
aF1.4286776781082153
aF3.1415905952453613
aa(lp111
F-1.453578297291891
aF-2.0625646750079554
aF-1.1271651426898401
aF-1.2051757017718714
aF1.4287376403808594
aF3.141578435897827
aa(lp112
F-1.4535067717181605
aF-2.061989132558004
aF-1.090874497090475
aF-1.2052353064166468
aF1.4287256002426147
aF3.141554594039917
aa(lp113
F-1.4535544554339808
aF-2.061065975819723
aF-1.0520032087909144
aF-1.2055590788470667
aF1.4287136793136597
aF3.141566514968872
aa(lp114
F-1.4535067717181605
aF-2.0606945196734827
aF-1.0114753882037562
aF-1.2056191603290003
aF1.428761601448059
aF3.1416144371032715
aa(lp115
F-1.4535067717181605
aF-2.0606706778155726
aF-0.9763529936419886
aF-1.2057269255267542
aF1.4287495613098145
aF3.141554594039917
aa(lp116
F-1.4533985296832483
aF-2.060706440602438
aF-0.9402220884906214
aF-1.205810848866598
aF1.4287256002426147
aF3.141578435897827
aa(lp117
F-1.4529684225665491
aF-2.0607784430133265
aF-0.9099653402911585
aF-1.2057865301715296
aF1.4288095235824585
aF3.1415905952453613
aa(lp118
F-1.4512928167926233
aF-2.0608142058001917
aF-0.8877785841571253
aF-1.2056668440448206
aF1.4288214445114136
aF3.141566514968872
aa(lp119
F-1.4484203497516077
aF-2.060850445424215
aF-0.8723433653460901
aF-1.205367390309469
aF1.4293484687805176
aF3.1415905952453613
aa(lp120
F-1.4412768522845667
aF-2.060934368764059
aF-0.8611052672015589
aF-1.2048638502704065
aF1.4301989078521729
aF3.1416144371032715
aa(lp121
F-1.4287226835833948
aF-2.060934368764059
aF-0.858802620564596
aF-1.2036050001727503
aF1.4301390647888184
aF3.141542673110962
aa(lp122
F-1.410520378743307
aF-2.060922447835104
aF-0.8562238852130335
aF-1.1978028456317347
aF1.4300910234451294
aF3.141566514968872
aa(lp123
F-1.3929389158831995
aF-2.0608981291400355
aF-0.8462331930743616
aF-1.1891587416278284
aF1.4300910234451294
aF3.1416263580322266
aa(lp124
F-1.3738139311419886
aF-2.060934368764059
aF-0.8339875380145472
aF-1.183751408253805
aF1.4301270246505737
aF3.1415905952453613
aa(lp125
F-1.3538864294635218
aF-2.0609939734088343
aF-0.8260954062091272
aF-1.1738007704364222
aF1.4300791025161743
aF3.141566514968872
aa(lp126
F-1.3328450361834925
aF-2.061161820088522
aF-0.8247283140765589
aF-1.1418631712542933
aF1.4300791025161743
aF3.1415905952453613
aa(lp127
F-1.3124492804156702
aF-2.0617974440204065
aF-0.8249080816852015
aF-1.1006105581866663
aF1.4301151037216187
aF3.1415905952453613
aa(lp128
F-1.291645352040426
aF-2.0631406942950647
aF-0.825207535420553
aF-1.0619595686541956
aF1.4300791025161743
aF3.1415905952453613
aa(lp129
F-1.2736061255084437
aF-2.0662453810321253
aF-0.8254359404193323
aF-1.035046402608053
aF1.4300551414489746
aF3.141566514968872
aa(lp130
F-1.257110897694723
aF-2.074301067982809
aF-0.8255317846881312
aF-1.0134909788714808
aF1.4300551414489746
aF3.141578435897827
aa(lp131
F-1.2443855444537562
aF-2.0880759398089808
aF-0.8256400267230433
aF-0.9972589651690882
aF1.4299832582473755
aF3.141554594039917
aa(lp132
F-1.237957779561178
aF-2.101023022328512
aF-0.8256161848651331
aF-0.9878724257098597
aF1.4299832582473755
aF3.1415905952453613
aa(lp133
F-1.2364614645587366
aF-2.1141861120807093
aF-0.8255918661700647
aF-0.979804817830221
aF1.4299592971801758
aF3.141554594039917
aa(lp134
F-1.2364614645587366
aF-2.1269896666156214
aF-0.8255556265460413
aF-0.971628491078512
aF1.429791808128357
aF3.141542673110962
aa(lp135
F-1.236509148274557
aF-2.1361849943744105
aF-0.8255317846881312
aF-0.9631770292865198
aF1.4297438859939575
aF3.1415905952453613
aa(lp136
F-1.2364848295794886
aF-2.1425026098834437
aF-0.8256037870990198
aF-0.9447277227984827
aF1.429791808128357
aF3.141554594039917
aa(lp137
F-1.2364614645587366
aF-2.1481736342059534
aF-0.8256161848651331
aF-0.9157884756671351
aF1.4297199249267578
aF3.141542673110962
aa(lp138
F-1.2364848295794886
aF-2.15218955675234
aF-0.8256519476519983
aF-0.8836253325091761
aF1.429791808128357
aF3.141554594039917
aa(lp139
F-1.2364495436297815
aF-2.1561577955829065
aF-0.8256400267230433
aF-0.862802807484762
aF1.4297798871994019
aF3.141566514968872
aa(lp140
F-1.236521069203512
aF-2.163063351308004
aF-0.8256757895099085
aF-0.8469670454608362
aF1.429695963859558
aF3.141554594039917
aa(lp141
F-1.2365568319903772
aF-2.1715267340289515
aF-0.8256638685809534
aF-0.8344162146197718
aF1.4297678470611572
aF3.1415905952453613
aa(lp142
F-1.236509148274557
aF-2.1788042227374476
aF-0.8256519476519983
aF-0.8270562330829065
aF1.4297559261322021
aF3.141566514968872
aa(lp143
F-1.236532990132467
aF-2.18199330965151
aF-0.8256281057940882
aF-0.8265045324908655
aF1.4297798871994019
aF3.141554594039917
aa(lp144
F-1.2364848295794886
aF-2.1833956877337855
aF-0.8256519476519983
aF-0.8264806906329554
aF1.429791808128357
aF3.141566514968872
aa(lp145
F-1.2364733854876917
aF-2.1839235464679163
aF-0.8256996313678187
aF-0.8265884558307093
aF1.4298157691955566
aF3.141566514968872
aa(lp146
F-1.236521069203512
aF-2.184139076863424
aF-0.8257716337787073
aF-0.8266003767596644
aF1.4297798871994019
aF3.141578435897827
aa(lp147
F-1.2365449110614222
aF-2.1841872374164026
aF-0.8258560339557093
aF-0.8267205397235315
aF1.4298157691955566
aF3.141578435897827
aa(lp148
F-1.2365687529193323
aF-2.184211079274313
aF-0.8258917967425745
aF-0.8268283049212855
aF1.429875373840332
aF3.141578435897827
aa(lp149
F-1.2365930716144007
aF-2.1841872374164026
aF-0.8260591665851038
aF-0.8268640677081507
aF1.4298638105392456
aF3.141566514968872
aa(lp150
F-1.2365806738482874
aF-2.1841872374164026
aF-0.8260834852801722
aF-0.8269718329059046
aF1.429875373840332
aF3.1415905952453613
aa(lp151
F-1.2366049925433558
aF-2.1841872374164026
aF-0.8260710875140589
aF-0.8270443121539515
aF1.4298278093338013
aF3.141578435897827
aa(lp152
F-1.2365930716144007
aF-2.1841753164874476
aF-0.8260472456561487
aF-0.8270443121539515
aF1.429851770401001
aF3.1415905952453613
aa(lp153
F-1.2365930716144007
aF-2.1841991583453577
aF-0.8260234037982386
aF-0.826996151600973
aF1.4298278093338013
aF3.141578435897827
aa(lp154
F-1.2366169134723108
aF-2.1841872374164026
aF-0.8260472456561487
aF-0.8270443121539515
aF1.4298638105392456
aF3.1415905952453613
aa(lp155
F-1.236640755330221
aF-2.1841633955584925
aF-0.8260353247271937
aF-0.82709247270693
aF1.4298638105392456
aF3.141578435897827
aa(lp156
F-1.2365930716144007
aF-2.1841753164874476
aF-0.8260472456561487
aF-0.8270562330829065
aF1.429875373840332
aF3.141566514968872
aa(lp157
F-1.2366169134723108
aF-2.1841633955584925
aF-0.8260591665851038
aF-0.8270681540118616
aF1.429887294769287
aF3.141542673110962
aa(lp158
F-1.236628834401266
aF-2.1841991583453577
aF-0.8260472456561487
aF-0.8270800749408167
aF1.429851770401001
aF3.141578435897827
aa(lp159
F-1.2366169134723108
aF-2.1841991583453577
aF-0.8260710875140589
aF-0.8270800749408167
aF1.429887294769287
aF3.141554594039917
aa(lp160
F-1.236640755330221
aF-2.1841872374164026
aF-0.8260353247271937
aF-0.8271163145648401
aF1.429851770401001
aF3.141554594039917
aa(lp161
F-1.2366169134723108
aF-2.1841872374164026
aF-0.8260591665851038
aF-0.8270443121539515
aF1.429887294769287
aF3.141566514968872
aa(lp162
F-1.2366049925433558
aF-2.1841753164874476
aF-0.8260472456561487
aF-0.8271282354937952
aF1.429875373840332
aF3.1415181159973145
aa(lp163
F-1.2365930716144007
aF-2.1841872374164026
aF-0.8260472456561487
aF-0.82709247270693
aF1.4298278093338013
aF3.141542673110962
aa(lp164
F-1.2366049925433558
aF-2.1841872374164026
aF-0.8260591665851038
aF-0.8270800749408167
aF1.4298397302627563
aF3.1415905952453613
aa(lp165
F-1.2365930716144007
aF-2.1841991583453577
aF-0.8260472456561487
aF-0.8271520773517054
aF1.4298397302627563
aF3.1415905952453613
aa(lp166
F-1.236628834401266
aF-2.1841633955584925
aF-0.8260834852801722
aF-0.8270800749408167
aF1.429875373840332
aF3.1415905952453613
aa(lp167
F-1.2366049925433558
aF-2.184150997792379
aF-0.8260353247271937
aF-0.8271282354937952
aF1.429851770401001
aF3.141578435897827
aa.