(lp0
(lp1
F-1.4499166647540491
aF-1.8801496664630335
aF-1.8000019232379358
aF-0.9699624220477503
aF1.5399616956710815
aF-0.01996499696840459
aI0
aa(lp2
F-1.4499886671649378
aF-1.8801377455340784
aF-1.800025765095846
aF-0.9699385801898401
aF1.5399501323699951
aF-0.01997691789735967
aI0
aa(lp3
F-1.4499762693988245
aF-1.8801377455340784
aF-1.800013844166891
aF-0.9699505011187952
aF1.5399616956710815
aF-0.01995259920229131
aI0
aa(lp4
F-1.4499886671649378
aF-1.8801377455340784
aF-1.800037686024801
aF-0.9699867407428187
aF1.5399501323699951
aF-0.019988838826314748
aI0
aa(lp5
F-1.4500005880938929
aF-1.8801854292498987
aF-1.800025765095846
aF-0.9699748198138636
aF1.5399380922317505
aF-0.019940678273336232
aI0
aa(lp6
F-1.4499886671649378
aF-1.8801615873919886
aF-1.800037686024801
aF-0.9699624220477503
aF1.5399501323699951
aF-0.01995259920229131
aI0
aa(lp7
F-1.4499643484698694
aF-1.88011342683901
aF-1.800025765095846
aF-0.9699986616717737
aF1.5399501323699951
aF-0.01995259920229131
aI0
aa(lp8
F-1.4499405066119593
aF-1.8801854292498987
aF-1.800037686024801
aF-0.9699748198138636
aF1.5399501323699951
aF-0.020000759755269826
aI0
aa(lp9
F-1.4499762693988245
aF-1.8801615873919886
aF-1.800025765095846
aF-0.9699624220477503
aF1.5399616956710815
aF-0.01995259920229131
aI0
aa(lp10
F-1.4499762693988245
aF-1.8801496664630335
aF-1.800037686024801
aF-0.9699624220477503
aF1.5399380922317505
aF-0.01996499696840459
aI0
aa(lp11
F-1.4499762693988245
aF-1.8801496664630335
aF-1.800037686024801
aF-0.9699748198138636
aF1.5399737358093262
aF-0.01996499696840459
aI0
aa(lp12
F-1.4499762693988245
aF-1.8801615873919886
aF-1.800025765095846
aF-0.9699748198138636
aF1.5399380922317505
aF-0.01996499696840459
aI0
aa(lp13
F-1.4499886671649378
aF-1.8801615873919886
aF-1.8000496069537562
aF-0.9699624220477503
aF1.5399380922317505
aF-0.019988838826314748
aI0
aa(lp14
F-1.4499524275409144
aF-1.8801615873919886
aF-1.8000496069537562
aF-0.9699624220477503
aF1.5399737358093262
aF-0.01997691789735967
aI0
aa(lp15
F-1.450012509022848
aF-1.8801496664630335
aF-1.800013844166891
aF-0.9699986616717737
aF1.5399616956710815
aF-0.01997691789735967
aI0
aa(lp16
F-1.4499762693988245
aF-1.8801615873919886
aF-1.800013844166891
aF-0.9699748198138636
aF1.5399380922317505
aF-0.020024601613179982
aI0
aa(lp17
F-1.4499524275409144
aF-1.8801496664630335
aF-1.800013844166891
aF-0.9699748198138636
aF1.5399616956710815
aF-0.01995259920229131
aI0
aa(lp18
F-1.4499886671649378
aF-1.8801496664630335
aF-1.8000496069537562
aF-0.9699867407428187
aF1.5399380922317505
aF-0.019988838826314748
aI0
aa(lp19
F-1.4499524275409144
aF-1.8801496664630335
aF-1.8000496069537562
aF-0.9699867407428187
aF1.5399141311645508
aF-0.01995259920229131
aI0
aa(lp20
F-1.4499524275409144
aF-1.8801854292498987
aF-1.800025765095846
aF-0.9699505011187952
aF1.5399616956710815
aF-0.01997691789735967
aI0
aa(lp21
F-1.4499762693988245
aF-1.8801496664630335
aF-1.800037686024801
aF-0.9700105826007288
aF1.5399616956710815
aF-0.01995259920229131
aI0
aa(lp22
F-1.4499643484698694
aF-1.8801735083209437
aF-1.800037686024801
aF-0.9699748198138636
aF1.5399141311645508
aF-0.019988838826314748
aI0
aa(lp23
F-1.4499524275409144
aF-1.8801496664630335
aF-1.8000496069537562
aF-0.9699867407428187
aF1.5399141311645508
aF-0.01996499696840459
aI0
aa(lp24
F-1.4499524275409144
aF-1.8801854292498987
aF-1.8000615278827112
aF-0.9699505011187952
aF1.5399501323699951
aF-0.01995259920229131
aI0
aa(lp25
F-1.4499762693988245
aF-1.8801496664630335
aF-1.800025765095846
aF-0.9699986616717737
aF1.5399737358093262
aF-0.019988838826314748
aI0
aa(lp26
F-1.4500005880938929
aF-1.8801615873919886
aF-1.8000615278827112
aF-0.9699867407428187
aF1.5399856567382812
aF-0.01997691789735967
aI0
aa(lp27
F-1.4499886671649378
aF-1.8801615873919886
aF-1.800037686024801
aF-0.9699986616717737
aF1.5399616956710815
aF-0.019940678273336232
aI0
aa(lp28
F-1.4499762693988245
aF-1.8801735083209437
aF-1.800013844166891
aF-0.9699867407428187
aF1.5399501323699951
aF-0.019988838826314748
aI0
aa(lp29
F-1.4499524275409144
aF-1.8801615873919886
aF-1.8000615278827112
aF-0.9699385801898401
aF1.5399616956710815
aF-0.01996499696840459
aI0
aa(lp30
F-1.4499762693988245
aF-1.8801615873919886
aF-1.800037686024801
aF-0.9699624220477503
aF1.5399141311645508
aF-0.01997691789735967
aI0
aa(lp31
F-1.4499643484698694
aF-1.8801735083209437
aF-1.8000019232379358
aF-0.9699505011187952
aF1.5399261713027954
aF-0.01996499696840459
aI0
aa(lp32
F-1.4500005880938929
aF-1.8801615873919886
aF-1.8000496069537562
aF-0.9699867407428187
aF1.5399616956710815
aF-0.01997691789735967
aI0
aa(lp33
F-1.4500005880938929
aF-1.8801854292498987
aF-1.8000615278827112
aF-0.9700105826007288
aF1.5399737358093262
aF-0.019988838826314748
aI0
aa(lp34
F-1.4499886671649378
aF-1.8801854292498987
aF-1.800037686024801
aF-0.9699986616717737
aF1.5399616956710815
aF-0.019988838826314748
aI0
aa(lp35
F-1.450012509022848
aF-1.8801377455340784
aF-1.8000496069537562
aF-0.9700225035296839
aF1.5399616956710815
aF-0.01997691789735967
aI0
aa(lp36
F-1.450024429951803
aF-1.8801615873919886
aF-1.800037686024801
aF-0.9699986616717737
aF1.5399022102355957
aF-0.01997691789735967
aI0
aa(lp37
F-1.450024429951803
aF-1.8801496664630335
aF-1.8000496069537562
aF-0.9700105826007288
aF1.5399141311645508
aF-0.01996499696840459
aI0
aa(lp38
F-1.4500005880938929
aF-1.8801496664630335
aF-1.8001092115985315
aF-0.9699748198138636
aF1.539890170097351
aF-0.01995259920229131
aI0
aa(lp39
F-1.450012509022848
aF-1.8801377455340784
aF-1.8001092115985315
aF-0.9699986616717737
aF1.5399261713027954
aF-0.01995259920229131
aI0
aa(lp40
F-1.450012509022848
aF-1.8801615873919886
aF-1.8000977675067347
aF-0.9700105826007288
aF1.539890170097351
aF-0.01996499696840459
aI0
aa(lp41
F-1.450012509022848
aF-1.8801854292498987
aF-1.8001092115985315
aF-0.970034424458639
aF1.5399380922317505
aF-0.01997691789735967
aI0
aa(lp42
F-1.450012509022848
aF-1.8801735083209437
aF-1.8001216093646448
aF-0.9699986616717737
aF1.5399261713027954
aF-0.019940678273336232
aI0
aa(lp43
F-1.4500005880938929
aF-1.8801735083209437
aF-1.8000853697406214
aF-0.9700225035296839
aF1.5399022102355957
aF-0.01995259920229131
aI0
aa(lp44
F-1.4499886671649378
aF-1.8801615873919886
aF-1.8001092115985315
aF-0.9700105826007288
aF1.5399261713027954
aF-0.01996499696840459
aI0
aa(lp45
F-1.4499886671649378
aF-1.8801735083209437
aF-1.8001092115985315
aF-0.9699986616717737
aF1.5399501323699951
aF-0.01997691789735967
aI0
aa(lp46
F-1.4499524275409144
aF-1.8801854292498987
aF-1.8001092115985315
aF-0.9699748198138636
aF1.5399616956710815
aF-0.01997691789735967
aI0
aa(lp47
F-1.4499886671649378
aF-1.8801854292498987
aF-1.8000496069537562
aF-0.9699748198138636
aF1.5399737358093262
aF-0.01995259920229131
aI0
aa(lp48
F-1.4499524275409144
aF-1.880209747944967
aF-1.8000977675067347
aF-0.9699385801898401
aF1.5399976968765259
aF-0.01996499696840459
aI0
aa(lp49
F-1.4499762693988245
aF-1.8801854292498987
aF-1.8000853697406214
aF-0.9699505011187952
aF1.5399501323699951
aF-0.01997691789735967
aI0
aa(lp50
F-1.4499524275409144
aF-1.8801973501788538
aF-1.8000734488116663
aF-0.9699505011187952
aF1.5399856567382812
aF-0.019940678273336232
aI0
aa(lp51
F-1.4499762693988245
aF-1.8801854292498987
aF-1.8001216093646448
aF-0.9699867407428187
aF1.5399616956710815
aF-0.01996499696840459
aI0
aa(lp52
F-1.4499524275409144
aF-1.8801854292498987
aF-1.8001216093646448
aF-0.9699748198138636
aF1.5399856567382812
aF-0.01997691789735967
aI0
aa(lp53
F-1.4500005880938929
aF-1.8802216688739222
aF-1.8000853697406214
aF-0.9699748198138636
aF1.540009617805481
aF-0.019940678273336232
aI0
aa(lp54
F-1.4499643484698694
aF-1.880209747944967
aF-1.8001216093646448
aF-0.9699867407428187
aF1.5399856567382812
aF-0.019928757344381154
aI0
aa(lp55
F-1.4499405066119593
aF-1.880209747944967
aF-1.8001092115985315
aF-0.9700225035296839
aF1.5399976968765259
aF-0.01997691789735967
aI0
aa(lp56
F-1.4499524275409144
aF-1.8802216688739222
aF-1.8001216093646448
aF-0.9699748198138636
aF1.5399856567382812
aF-0.01995259920229131
aI0
aa(lp57
F-1.4499285856830042
aF-1.8802216688739222
aF-1.8000977675067347
aF-0.9700225035296839
aF1.540009617805481
aF-0.019904915486470998
aI0
aa(lp58
F-1.4499405066119593
aF-1.8802216688739222
aF-1.8001335302936
aF-0.9699505011187952
aF1.5400456190109253
aF-0.01996499696840459
aI0
aa(lp59
F-1.4498809019671839
aF-1.8802216688739222
aF-1.8001092115985315
aF-0.9699505011187952
aF1.54008150100708
aF-0.019928757344381154
aI0
aa(lp60
F-1.4497130552874964
aF-1.8802216688739222
aF-1.8000853697406214
aF-0.9699748198138636
aF1.5401054620742798
aF-0.019904915486470998
aI0
aa(lp61
F-1.4496052900897425
aF-1.8802574316607874
aF-1.8001216093646448
aF-0.9699385801898401
aF1.5401893854141235
aF-0.01989299455751592
aI0
aa(lp62
F-1.4494617621051233
aF-1.8802455107318323
aF-1.8000977675067347
aF-0.9699867407428187
aF1.5403212308883667
aF-0.019904915486470998
aI0
aa(lp63
F-1.4491027037249964
aF-1.880209747944967
aF-1.8001092115985315
aF-0.9699505011187952
aF1.5403811931610107
aF-0.01986867586244756
aI0
aa(lp64
F-1.448923412953512
aF-1.8802574316607874
aF-1.8001216093646448
aF-0.9699505011187952
aF1.540513038635254
aF-0.01986867586244756
aI0
aa(lp65
F-1.4487798849688929
aF-1.8802335898028772
aF-1.80015737215151
aF-0.9700105826007288
aF1.540704369544983
aF-0.019832436238424123
aI0
aa(lp66
F-1.4487322012530726
aF-1.8802216688739222
aF-1.800145451222555
aF-0.9699986616717737
aF1.540992021560669
aF-0.0198443571673792
aI0
aa(lp67
F-1.4486125151263636
aF-1.880317513142721
aF-1.800145451222555
aF-0.9699748198138636
aF1.5414350032806396
aF-0.019832436238424123
aI0
aa(lp68
F-1.4483845869647425
aF-1.8802812735186976
aF-1.80015737215151
aF-0.9699867407428187
aF1.5422371625900269
aF-0.01961690584291631
aI0
aa(lp69
F-1.4480856100665491
aF-1.8802574316607874
aF-1.8001692930804651
aF-0.9699505011187952
aF1.5436385869979858
aF-0.019377056752340138
aI0
aa(lp70
F-1.4477747122394007
aF-1.8802931944476526
aF-1.800145451222555
aF-0.9699867407428187
aF1.5455665588378906
aF-0.019401375447408498
aI0
aa(lp71
F-1.4470565954791468
aF-1.8804133574115198
aF-1.800145451222555
aF-0.9699748198138636
aF1.54824960231781
aF-0.01944905916322881
aI0
aa(lp72
F-1.4455245176898401
aF-1.8806408087359827
aF-1.800265137349264
aF-0.9699748198138636
aF1.552548885345459
aF-0.01944905916322881
aI0
aa(lp73
F-1.4428442160235804
aF-1.88078481355776
aF-1.8004205862628382
aF-0.9699986616717737
aF1.5568602085113525
aF-0.019388977681295216
aI0
aa(lp74
F-1.4388230482684534
aF-1.880904499684469
aF-1.8005526701556605
aF-0.970034424458639
aF1.5611951351165771
aF-0.019329373036519826
aI0
aa(lp75
F-1.4337013403521937
aF-1.8812521139727991
aF-1.8006847540484827
aF-0.9699624220477503
aF1.5647637844085693
aF-0.01926881471742803
aI0
aa(lp76
F-1.4288542906390589
aF-1.8817079702960413
aF-1.8007567564593714
aF-0.9700105826007288
aF1.566440463066101
aF-0.019149128590719044
aI0
aa(lp77
F-1.4233253637896937
aF-1.8823073546039026
aF-1.8010318914996546
aF-0.970034424458639
aF1.5666322708129883
aF-0.018993202839986623
aI0
aa(lp78
F-1.4180238882647913
aF-1.8831585089312952
aF-1.8012593428241175
aF-0.970034424458639
aF1.5666202306747437
aF-0.018801514302388966
aI0
aa(lp79
F-1.4115975538836878
aF-1.8844049612628382
aF-1.8015349547015589
aF-0.970046345387594
aF1.566596269607544
aF-0.018489662800924123
aI0
aa(lp80
F-1.4070852438556116
aF-1.885639492665426
aF-1.801690403615133
aF-0.970046345387594
aF1.566656231880188
aF-0.01775819460024053
aI0
aa(lp81
F-1.4025018850909632
aF-1.8868258635150355
aF-1.8018458525287073
aF-0.970034424458639
aF1.5666322708129883
aF-0.01742250124086553
aI0
aa(lp82
F-1.3977621237384241
aF-1.8878691832171839
aF-1.802026096974508
aF-0.9699986616717737
aF1.5666083097457886
aF-0.0171588102923792
aI0
aa(lp83
F-1.3941357771502894
aF-1.8884080092059534
aF-1.8020976225482386
aF-0.970034424458639
aF1.5666921138763428
aF-0.017038647328512013
aI0
aa(lp84
F-1.3900311628924769
aF-1.8885882536517542
aF-1.8022053877459925
aF-0.970034424458639
aF1.566656231880188
aF-0.016954723988668263
aI0
aa(lp85
F-1.385531250630514
aF-1.8886364142047327
aF-1.8022177855121058
aF-0.9699867407428187
aF1.5666921138763428
aF-0.016774956380025685
aI0
aa(lp86
F-1.3820598761187952
aF-1.8886602560626429
aF-1.8022893110858362
aF-0.9699986616717737
aF1.5667160749435425
aF-0.016738716756002248
aI0
aa(lp87
F-1.3785293737994593
aF-1.888672176991598
aF-1.8024328390704554
aF-0.9700582663165491
aF1.566668152809143
aF-0.016738716756002248
aI0
aa(lp88
F-1.3746760527240198
aF-1.888672176991598
aF-1.8026607672320765
aF-0.970046345387594
aF1.566787600517273
aF-0.01672679582704717
aI0
aa(lp89
F-1.3708937803851526
aF-1.8887084166156214
aF-1.8028162161456507
aF-0.970046345387594
aF1.5668715238571167
aF-0.016762558613912404
aI0
aa(lp90
F-1.3674467245685022
aF-1.8887084166156214
aF-1.802971665059225
aF-0.970046345387594
aF1.5668596029281616
aF-0.016702953969137013
aI0
aa(lp91
F-1.3633535544024866
aF-1.8887680212603968
aF-1.8032711187945765
aF-0.9700582663165491
aF1.5668954849243164
aF-0.016691033040181935
aI0
aa(lp92
F-1.3596676031695765
aF-1.8887441794024866
aF-1.803690258656637
aF-0.9700582663165491
aF1.5671112537384033
aF-0.016666714345113576
aI0
aa(lp93
F-1.355011288319723
aF-1.8887322584735315
aF-1.8044207731830042
aF-0.9700582663165491
aF1.567482352256775
aF-0.01663095155824834
aI0
aa(lp94
F-1.3505352179156702
aF-1.8887441794024866
aF-1.8053553740130823
aF-0.9700825850116175
aF1.567554235458374
aF-0.01655894914735967
aI0
aa(lp95
F-1.3457592169391077
aF-1.8887322584735315
aF-1.8070438543902796
aF-0.9700582663165491
aF1.5682250261306763
aF-0.016343418751851857
aI0
aa(lp96
F-1.3414266745196741
aF-1.8887322584735315
aF-1.80837327638735
aF-0.970034424458639
aF1.5687998533248901
aF-0.01612741151918584
aI0
aa(lp97
F-1.336806599293844
aF-1.8887923399554651
aF-1.8093550840960901
aF-0.9700825850116175
aF1.5691590309143066
aF-0.016007248555318654
aI0
aa(lp98
F-1.3315523306476038
aF-1.8887799421893519
aF-1.8096664587603968
aF-0.970034424458639
aF1.5698896646499634
aF-0.01588756242860967
aI0
aa(lp99
F-1.3264897505389612
aF-1.8888042608844202
aF-1.8097623030291956
aF-0.9700945059405726
aF1.5704165697097778
aF-0.015395943318502248
aI0
aa(lp100
F-1.32164174715151
aF-1.8888281027423304
aF-1.8098104635821741
aF-0.9700701872455042
aF1.5707159042358398
aF-0.015192333851949513
aI0
aa(lp101
F-1.3162315527545374
aF-1.8888161818133753
aF-1.8098581472979944
aF-0.970046345387594
aF1.57108736038208
aF-0.015108410512105763
aI0
aa(lp102
F-1.3118985334979456
aF-1.8888281027423304
aF-1.809906307850973
aF-0.9700701872455042
aF1.5714225769042969
aF-0.014928642903463185
aI0
aa(lp103
F-1.3080442587481897
aF-1.8888400236712855
aF-1.8099420706378382
aF-0.9700701872455042
aF1.5719494819641113
aF-0.014904324208394826
aI0
aa(lp104
F-1.3038905302630823
aF-1.8888161818133753
aF-1.8100021521197718
aF-0.9701183477984827
aF1.5719854831695557
aF-0.014868561421529591
aI0
aa(lp105
F-1.2989352385150355
aF-1.8888400236712855
aF-1.8100975195514124
aF-0.9700825850116175
aF1.5720692873001099
aF-0.014652554188863576
aI0
aa(lp106
F-1.294901196156637
aF-1.8888638655291956
aF-1.8102534453021448
aF-0.9700582663165491
aF1.5722726583480835
aF-0.014592949544088185
aI0
aa(lp107
F-1.2906878630267542
aF-1.8888757864581507
aF-1.810516659413473
aF-0.9700701872455042
aF1.5723086595535278
aF-0.014437023793355763
aI0
aa(lp108
F-1.2858160177813929
aF-1.8889120260821741
aF-1.8110078016864222
aF-0.9700825850116175
aF1.5730153322219849
aF-0.014137093220845998
aI0
aa(lp109
F-1.2821410338031214
aF-1.888888184224264
aF-1.8112476507769983
aF-0.9700701872455042
aF1.5741530656814575
aF-0.013801399861470998
aI0
aa(lp110
F-1.277987305318014
aF-1.8889239470111292
aF-1.811343018208639
aF-0.9700825850116175
aF1.5754462480545044
aF-0.013297859822408498
aI0
aa(lp111
F-1.2728756109820765
aF-1.8889358679400843
aF-1.8114751021014612
aF-0.9700582663165491
aF1.5773146152496338
aF-0.011990849171773732
aI0
aa(lp112
F-1.2684710661517542
aF-1.8888757864581507
aF-1.811559025441305
aF-0.9700825850116175
aF1.5794823169708252
aF-0.01097137132753545
aI0
aa(lp113
F-1.2634556929217737
aF-1.888888184224264
aF-1.8117502371417444
aF-0.9700825850116175
aF1.5809189081192017
aF-0.009939972554342091
aI0
aa(lp114
F-1.2579248587237757
aF-1.888900105153219
aF-1.8119776884662073
aF-0.9701183477984827
aF1.582775354385376
aF-0.008033577595845998
aI0
aa(lp115
F-1.2530048529254358
aF-1.888900105153219
aF-1.8121216932879847
aF-0.9701183477984827
aF1.5840206146240234
aF-0.006367031727926076
aI0
aa(lp116
F-1.2479293982135218
aF-1.8889120260821741
aF-1.8123491446124476
aF-0.9701421896563929
aF1.5851702690124512
aF-0.004783932362691701
aI0
aa(lp117
F-1.2418482939349573
aF-1.8889120260821741
aF-1.8128164450274866
aF-0.9701064268695276
aF1.587218165397644
aF-0.0026734511004846695
aI0
aa(lp118
F-1.2359822432147425
aF-1.8889239470111292
aF-1.8131879011737269
aF-0.9701665083514612
aF1.588212013244629
aF-0.00019151369203740387
aI0
aa(lp119
F-1.2298529783831995
aF-1.8889120260821741
aF-1.8132832686053675
aF-0.9701421896563929
aF1.5890506505966187
aF0.0020863786339759827
aI0
aa(lp120
F-1.2229216734515589
aF-1.8889239470111292
aF-1.8133075873004358
aF-0.9701064268695276
aF1.5906434059143066
aF0.0047127967700362206
aI0
aa(lp121
F-1.2147091070758265
aF-1.8889120260821741
aF-1.8133075873004358
aF-0.9701302687274378
aF1.5935412645339966
aF0.008105830289423466
aI0
aa(lp122
F-1.2068913618670862
aF-1.888900105153219
aF-1.8133309523211878
aF-0.9701302687274378
aF1.5956370830535889
aF0.011019869707524776
aI0
aa(lp123
F-1.1986907164203089
aF-1.888888184224264
aF-1.813354794179098
aF-0.9701421896563929
aF1.5965830087661743
aF0.014940958470106125
aI0
aa(lp124
F-1.1891253630267542
aF-1.888900105153219
aF-1.813354794179098
aF-0.9701421896563929
aF1.5968347787857056
aF0.022675277665257454
aI0
aa(lp125
F-1.1813071409808558
aF-1.8889477888690394
aF-1.8134029547320765
aF-0.970154110585348
aF1.5968587398529053
aF0.032735660672187805
aI0
aa(lp126
F-1.1733811537372034
aF-1.8889120260821741
aF-1.8134267965899866
aF-0.9701183477984827
aF1.5969306230545044
aF0.04531460255384445
aI0
aa(lp127
F-1.1642101446734827
aF-1.888900105153219
aF-1.8134387175189417
aF-0.970154110585348
aF1.5969306230545044
aF0.06268985569477081
aI0
aa(lp128
F-1.15717059770693
aF-1.8889477888690394
aF-1.8134868780719202
aF-0.9701665083514612
aF1.5969665050506592
aF0.07777537405490875
aI0
aa(lp129
F-1.1503575483905237
aF-1.888900105153219
aF-1.8135107199298304
aF-0.9701665083514612
aF1.5969665050506592
aF0.09298036247491837
aI0
aa(lp130
F-1.1445272604571741
aF-1.888900105153219
aF-1.8136428038226526
aF-0.970717732106344
aF1.596954584121704
aF0.10705845803022385
aI0
aa(lp131
F-1.1379058996783655
aF-1.8889120260821741
aF-1.814061466847555
aF-0.9715808073626917
aF1.5969665050506592
aF0.12197581678628922
aI0
aa(lp132
F-1.133416000996725
aF-1.8889120260821741
aF-1.8147323767291468
aF-0.9719880262957972
aF1.596954584121704
aF0.13387203216552734
aI0
aa(lp133
F-1.1294525305377405
aF-1.888900105153219
aF-1.8155468145953577
aF-0.972180191670553
aF1.5969425439834595
aF0.1452881395816803
aI0
aa(lp134
F-1.1259921232806605
aF-1.888888184224264
aF-1.8165047804461878
aF-0.9722397963153284
aF1.5969665050506592
aF0.15864717960357666
aI0
aa(lp135
F-1.1243999640094202
aF-1.8889358679400843
aF-1.8175466696368616
aF-0.9723718802081507
aF1.5969785451889038
aF0.170231431722641
aI0
aa(lp136
F-1.1240046660052698
aF-1.888900105153219
aF-1.8191517035113733
aF-0.9728034178363245
aF1.5969425439834595
aF0.1813003569841385
aI0
aa(lp137
F-1.124016586934225
aF-1.8889358679400843
aF-1.8215706984149378
aF-0.9735706488238733
aF1.596954584121704
aF0.19300444424152374
aI0
aa(lp138
F-1.1239922682391565
aF-1.888900105153219
aF-1.8235467115985315
aF-0.975321118031637
aF1.596954584121704
aF0.20238247513771057
aI0
aa(lp139
F-1.1240528265582483
aF-1.888900105153219
aF-1.8254268805133265
aF-0.9775031248675745
aF1.5969185829162598
aF0.21277955174446106
aI0
aa(lp140
F-1.1239803473102015
aF-1.8889239470111292
aF-1.827630345021383
aF-0.9803560415851038
aF1.5969306230545044
aF0.22623483836650848
aI0
aa(lp141
F-1.1240885893451136
aF-1.8889120260821741
aF-1.8303487936602991
aF-0.9825976530658167
aF1.5969185829162598
aF0.23789136111736298
aI0
aa(lp142
F-1.1240766684161585
aF-1.8889239470111292
aF-1.8352349440204065
aF-0.9831727186786097
aF1.5969066619873047
aF0.2503156363964081
aI0
aa(lp143
F-1.1241124312030237
aF-1.888900105153219
aF-1.8433902899371546
aF-0.9831607977496546
aF1.5969306230545044
aF0.2642626464366913
aI0
aa(lp144
F-1.1241124312030237
aF-1.8889239470111292
aF-1.8513777891742151
aF-0.9831488768206995
aF1.59689462184906
aF0.2764831781387329
aI0
aa(lp145
F-1.1240766684161585
aF-1.8889358679400843
aF-1.8587306181537073
aF-0.9831369558917444
aF1.5969185829162598
aF0.288607120513916
aI0
aa(lp146
F-1.1241005102740687
aF-1.8888638655291956
aF-1.8663228193866175
aF-0.9830530325519007
aF1.5969306230545044
aF0.3014635741710663
aI0
aa(lp147
F-1.1240647474872034
aF-1.888900105153219
aF-1.8729451338397425
aF-0.9830172697650355
aF1.5969425439834595
aF0.3110576868057251
aI0
aa(lp148
F-1.1240528265582483
aF-1.8888757864581507
aF-1.8789923826800745
aF-0.9830411116229456
aF1.5969425439834595
aF0.3205080032348633
aI0
aa(lp149
F-1.1240766684161585
aF-1.888888184224264
aF-1.8840578238116663
aF-0.9830530325519007
aF1.5969425439834595
aF0.3296583294868469
aI0
aa(lp150
F-1.1240647474872034
aF-1.8889120260821741
aF-1.8869918028460901
aF-0.9830887953387659
aF1.5969306230545044
aF0.33973219990730286
aI0
aa(lp151
F-1.1240885893451136
aF-1.8888757864581507
aF-1.8870752493487757
aF-0.9829691092120569
aF1.5969665050506592
aF0.3464961647987366
aI0
aa(lp152
F-1.1241005102740687
aF-1.8889358679400843
aF-1.8870871702777308
aF-0.9829934279071253
aF1.5969066619873047
aF0.35197708010673523
aI0
aa(lp153
F-1.1241005102740687
aF-1.8888757864581507
aF-1.8870752493487757
aF-0.9829571882831019
aF1.5969425439834595
aF0.3543274700641632
aI0
aa(lp154
F-1.1240647474872034
aF-1.8889120260821741
aF-1.8870752493487757
aF-0.9829452673541468
aF1.5969306230545044
aF0.3543993830680847
aI0
aa(lp155
F-1.1240766684161585
aF-1.888900105153219
aF-1.8870990912066858
aF-0.9829571882831019
aF1.5969425439834595
aF0.3543993830680847
aI0
aa(lp156
F-1.1240885893451136
aF-1.888900105153219
aF-1.8871234099017542
aF-0.982981030141012
aF1.5969425439834595
aF0.35455554723739624
aI0
aa(lp157
F-1.1240647474872034
aF-1.8889239470111292
aF-1.8871472517596644
aF-0.9829934279071253
aF1.5969306230545044
aF0.35478323698043823
aI0
aa(lp158
F-1.1241362730609339
aF-1.8889358679400843
aF-1.8871472517596644
aF-0.9830172697650355
aF1.596954584121704
aF0.35567083954811096
aI0
aa(lp159
F-1.1240409056292933
aF-1.8889239470111292
aF-1.8872669378863733
aF-0.9830768744098108
aF1.596954584121704
aF0.35686999559402466
aI0
aa(lp160
F-1.1240528265582483
aF-1.8889358679400843
aF-1.8873150984393519
aF-0.9830530325519007
aF1.5969306230545044
aF0.3579253554344177
aI0
aa(lp161
F-1.12402850786318
aF-1.8889239470111292
aF-1.887350861226217
aF-0.9830291906939905
aF1.5969425439834595
aF0.35960426926612854
aI0
aa(lp162
F-1.1240766684161585
aF-1.8889477888690394
aF-1.8874104658709925
aF-0.9830649534808558
aF1.596954584121704
aF0.36249473690986633
aI0
aa(lp163
F-1.1240885893451136
aF-1.8889239470111292
aF-1.887470547352926
aF-0.9830530325519007
aF1.5969785451889038
aF0.3659008741378784
aI0
aa(lp164
F-1.1241124312030237
aF-1.8889840284930628
aF-1.8875420729266565
aF-0.9830887953387659
aF1.5969425439834595
aF0.36869505047798157
aI0
aa(lp165
F-1.1240885893451136
aF-1.8889840284930628
aF-1.8876622358905237
aF-0.9831011931048792
aF1.5969665050506592
aF0.3716694116592407
aI0
aa(lp166
F-1.1240766684161585
aF-1.889019791279928
aF-1.8877819220172327
aF-0.9831131140338343
aF1.596954584121704
aF0.3744276463985443
aI0
aa(lp167
F-1.1240647474872034
aF-1.8890555540667933
aF-1.8879135290728968
aF-0.9831011931048792
aF1.5969306230545044
aF0.37798959016799927
aI0
aa(lp168
F-1.1240766684161585
aF-1.8891037146197718
aF-1.8882487455951136
aF-0.9831488768206995
aF1.5969785451889038
aF0.3827746510505676
aI0
aa(lp169
F-1.1240528265582483
aF-1.8891757170306605
aF-1.8886922041522425
aF-0.983185116444723
aF1.5969425439834595
aF0.38590478897094727
aI0
aa(lp170
F-1.1240647474872034
aF-1.8891637961017054
aF-1.889362637196676
aF-0.9831727186786097
aF1.5969425439834595
aF0.38955098390579224
aI0
aa(lp171
F-1.1240766684161585
aF-1.8891876379596155
aF-1.8904760519610804
aF-0.983197037373678
aF1.5969785451889038
aF0.39409637451171875
aI0
aa(lp172
F-1.1240409056292933
aF-1.8891876379596155
aF-1.892787281666891
aF-0.9831727186786097
aF1.5970264673233032
aF0.3995889127254486
aI0
aa(lp173
F-1.1240409056292933
aF-1.8891518751727503
aF-1.8963196913348597
aF-0.9831250349627894
aF1.5970743894577026
aF0.4035227298736572
aI0
aa(lp174
F-1.1240766684161585
aF-1.889139477406637
aF-1.9006426970111292
aF-0.9831011931048792
aF1.5971462726593018
aF0.4068809151649475
aI0
aa(lp175
F-1.124016586934225
aF-1.889139477406637
aF-1.9054320494281214
aF-0.9829333464251917
aF1.5974695682525635
aF0.4092552959918976
aI0
aa(lp176
F-1.1240409056292933
aF-1.8891518751727503
aF-1.9082701841937464
aF-0.9827654997455042
aF1.5976133346557617
aF0.40974703431129456
aI0
aa(lp177
F-1.1240046660052698
aF-1.889127556477682
aF-1.9086297194110315
aF-0.9824898878680628
aF1.5977448225021362
aF0.4098193049430847
aI0
aa(lp178
F-1.1239922682391565
aF-1.8891156355487269
aF-1.9086058775531214
aF-0.981722656880514
aF1.5978525876998901
aF0.41023874282836914
aI0
aa(lp179
F-1.124016586934225
aF-1.8890917936908167
aF-1.9086058775531214
aF-0.9816625753985804
aF1.5979245901107788
aF0.41112634539604187
aI0
aa(lp180
F-1.124016586934225
aF-1.8891156355487269
aF-1.9086530844317835
aF-0.981722656880514
aF1.598008394241333
aF0.4130333364009857
aI0
aa(lp181
F-1.1240647474872034
aF-1.889127556477682
aF-1.9086650053607386
aF-0.9817107359515589
aF1.5982238054275513
aF0.4148201048374176
aI0
aa(lp182
F-1.1240647474872034
aF-1.8891156355487269
aF-1.9086177984820765
aF-0.9816387335406702
aF1.5991461277008057
aF0.4177824556827545
aI0
aa(lp183
F-1.1239922682391565
aF-1.889127556477682
aF-1.9086650053607386
aF-0.9816024939166468
aF1.6004513502120972
aF0.4205406904220581
aI0
aa(lp184
F-1.1239922682391565
aF-1.8891037146197718
aF-1.9086177984820765
aF-0.9813512007342737
aF1.602379322052002
aF0.4232513904571533
aI0
aa(lp185
F-1.1240046660052698
aF-1.889127556477682
aF-1.9086416403399866
aF-0.9806554953204554
aF1.6052532196044922
aF0.42664554715156555
aI0
aa(lp186
F-1.1240046660052698
aF-1.8891156355487269
aF-1.9086177984820765
aF-0.9800685087787073
aF1.6084507703781128
aF0.429643839597702
aI0
aa(lp187
F-1.1239565054522913
aF-1.889127556477682
aF-1.9086058775531214
aF-0.9795530478106897
aF1.61296546459198
aF0.43141862750053406
aI0
aa(lp188
F-1.1239684263812464
aF-1.889127556477682
aF-1.9086058775531214
aF-0.9793127218829554
aF1.6224502325057983
aF0.4325099289417267
aI0
aa(lp189
F-1.1240046660052698
aF-1.8891518751727503
aF-1.9086416403399866
aF-0.9793370405780237
aF1.6373714208602905
aF0.4326777160167694
aI0
aa(lp190
F-1.1239803473102015
aF-1.8891518751727503
aF-1.9086177984820765
aF-0.9793127218829554
aF1.6574056148529053
aF0.4332892894744873
aI0
aa(lp191
F-1.12402850786318
aF-1.8891637961017054
aF-1.9086416403399866
aF-0.979372803364889
aF1.6835229396820068
aF0.43394917249679565
aI0
aa(lp192
F-1.124016586934225
aF-1.8891876379596155
aF-1.9086774031268519
aF-0.9793966452227991
aF1.7046107053756714
aF0.4340690076351166
aI0
aa(lp193
F-1.1240766684161585
aF-1.8892114798175257
aF-1.908713165913717
aF-0.9795048872577112
aF1.7209324836730957
aF0.4340570271015167
aI0
aa(lp194
F-1.1240528265582483
aF-1.8892477194415491
aF-1.9087489287005823
aF-0.9795048872577112
aF1.7282133102416992
aF0.4340091049671173
aI0
aa(lp195
F-1.1240647474872034
aF-1.8892596403705042
aF-1.9087613264666956
aF-0.9795287291156214
aF1.7268961668014526
aF0.4340091049671173
aI0
aa(lp196
F-1.1240647474872034
aF-1.8892596403705042
aF-1.9087732473956507
aF-0.9794929663287562
aF1.7263572216033936
aF0.43402108550071716
aI0
aa(lp197
F-1.1240766684161585
aF-1.8892596403705042
aF-1.908713165913717
aF-0.979469124470846
aF1.726393222808838
aF0.43399709463119507
aI0
aa(lp198
F-1.1241124312030237
aF-1.8892353216754358
aF-1.908689324055807
aF-0.9794810453998011
aF1.7263453006744385
aF0.43397313356399536
aI0
aa(lp199
F-1.1241005102740687
aF-1.8892353216754358
aF-1.9086774031268519
aF-0.9794572035418909
aF1.726393222808838
aF0.43392521142959595
aI0
aa(lp200
F-1.124124828969137
aF-1.8892477194415491
aF-1.908713165913717
aF-0.9795287291156214
aF1.726393222808838
aF0.43392521142959595
aI0
aa(lp201
F-1.1240885893451136
aF-1.8892114798175257
aF-1.9087489287005823
aF-0.9796369711505335
aF1.726405143737793
aF0.43386489152908325
aI0
aa(lp202
F-1.1240766684161585
aF-1.8892353216754358
aF-1.9087370077716272
aF-0.9796727339373987
aF1.726477026939392
aF0.4338529109954834
aI0
aa(lp203
F-1.1241005102740687
aF-1.8891757170306605
aF-1.9086650053607386
aF-0.9796727339373987
aF1.726488709449768
aF0.4338289499282837
aI0
aa(lp204
F-1.1241839567767542
aF-1.8891876379596155
aF-1.9086650053607386
aF-0.9796965757953089
aF1.726477026939392
aF0.433804988861084
aI0
aa(lp205
F-1.124124828969137
aF-1.8891995588885706
aF-1.9086530844317835
aF-0.9797089735614222
aF1.726477026939392
aF0.43384093046188354
aI0
aa(lp206
F-1.124160114918844
aF-1.8891518751727503
aF-1.9086297194110315
aF-0.9797328154193323
aF1.726477026939392
aF0.4338529109954834
aI0
aa(lp207
F-1.1241124312030237
aF-1.8891876379596155
aF-1.9086416403399866
aF-0.9796488920794886
aF1.7265485525131226
aF0.43384093046188354
aI0
aa(lp208
F-1.124160114918844
aF-1.8891757170306605
aF-1.9086416403399866
aF-0.9796965757953089
aF1.7265726327896118
aF0.433804988861084
aI0
aa(lp209
F-1.124148193989889
aF-1.889139477406637
aF-1.9086530844317835
aF-0.9796846548663538
aF1.7265245914459229
aF0.433804988861084
aI0
aa(lp210
F-1.124148193989889
aF-1.8891637961017054
aF-1.9086297194110315
aF-0.9796965757953089
aF1.7265126705169678
aF0.43381696939468384
aI0
aa(lp211
F-1.1241963545428675
aF-1.889127556477682
aF-1.9086530844317835
aF-0.9797328154193323
aF1.7265485525131226
aF0.43384093046188354
aI0
aa(lp212
F-1.1241839567767542
aF-1.8891995588885706
aF-1.9086530844317835
aF-0.9797089735614222
aF1.7265126705169678
aF0.433804988861084
aI0
aa(lp213
F-1.1241720358477991
aF-1.8891757170306605
aF-1.908689324055807
aF-0.9797566572772425
aF1.7265605926513672
aF0.43381696939468384
aI0
aa(lp214
F-1.1242201964007776
aF-1.8891518751727503
aF-1.908713165913717
aF-0.9797928969012659
aF1.7265245914459229
aF0.4338289499282837
aI0
aa(lp215
F-1.1241720358477991
aF-1.8891757170306605
aF-1.9086530844317835
aF-0.9797685782061976
aF1.7265485525131226
aF0.43379300832748413
aI0
aa(lp216
F-1.1241839567767542
aF-1.8891637961017054
aF-1.9086774031268519
aF-0.9797566572772425
aF1.7265245914459229
aF0.4338529109954834
aI0
aa(lp217
F-1.124160114918844
aF-1.889139477406637
aF-1.908689324055807
aF-0.9797328154193323
aF1.7265605926513672
aF0.4338529109954834
aI0
aa(lp218
F-1.1241839567767542
aF-1.8891637961017054
aF-1.9086650053607386
aF-0.9795649687396448
aF1.726477026939392
aF0.4338529109954834
aI0
aa(lp219
F-1.124148193989889
aF-1.889139477406637
aF-1.9084976355182093
aF-0.9787858168231409
aF1.726488709449768
aF0.43386489152908325
aI0
aa(lp220
F-1.124160114918844
aF-1.8891037146197718
aF-1.9084380308734339
aF-0.9762437979327601
aF1.726477026939392
aF0.43386489152908325
aI0
aa(lp221
F-1.1241963545428675
aF-1.8890917936908167
aF-1.9084380308734339
aF-0.9737141768084925
aF1.7264411449432373
aF0.43384093046188354
aI0
aa(lp222
F-1.1241839567767542
aF-1.8891156355487269
aF-1.9084737936602991
aF-0.9712932745562952
aF1.7264171838760376
aF0.4338769018650055
aI0
aa(lp223
F-1.1241720358477991
aF-1.889139477406637
aF-1.9086297194110315
aF-0.9712093512164515
aF1.7264530658721924
aF0.4338769018650055
aI0
aa(lp224
F-1.1242082754718226
aF-1.8891637961017054
aF-1.9087370077716272
aF-0.9713051954852503
aF1.7264530658721924
aF0.43390122056007385
aI0
aa(lp225
F-1.124267880116598
aF-1.889127556477682
aF-1.9087370077716272
aF-0.9712694326983851
aF1.726393222808838
aF0.43390122056007385
aI0
aa(lp226
F-1.1243279615985315
aF-1.8891156355487269
aF-1.9088690916644495
aF-0.9713409582721155
aF1.7263453006744385
aF0.43390122056007385
aI0
aa(lp227
F-1.1246631781207483
aF-1.889139477406637
aF-1.909036938344137
aF-0.9714010397540491
aF1.7263453006744385
aF0.43390122056007385
aI0
aa(lp228
F-1.1247466246234339
aF-1.8891156355487269
aF-1.9093840757953089
aF-0.9716408888446253
aF1.7263572216033936
aF0.4338769018650055
aI0
aa(lp229
F-1.1248071829425257
aF-1.8891637961017054
aF-1.9102218786822718
aF-0.9717004934894007
aF1.7263453006744385
aF0.43386489152908325
aI0
aa(lp230
F-1.1247947851764124
aF-1.8891518751727503
aF-1.9111321608172815
aF-0.971832577382223
aF1.7264171838760376
aF0.43386489152908325
aI0
aa(lp231
F-1.1248191038714808
aF-1.889127556477682
aF-1.9112160841571253
aF-0.971844498311178
aF1.7263692617416382
aF0.4338529109954834
aI0
aa(lp232
F-1.1247947851764124
aF-1.889127556477682
aF-1.9111798445331019
aF-0.9718802610980433
aF1.7264291048049927
aF0.4338289499282837
aI0
aa(lp233
F-1.1247828642474573
aF-1.889127556477682
aF-1.9111798445331019
aF-0.9718683401690882
aF1.726465106010437
aF0.4338289499282837
aI0
aa(lp234
F-1.1247947851764124
aF-1.889127556477682
aF-1.9111560026751917
aF-0.9718564192401331
aF1.7264530658721924
aF0.433804988861084
aI0
aa(lp235
F-1.1247828642474573
aF-1.889127556477682
aF-1.9111560026751917
aF-0.971844498311178
aF1.7264411449432373
aF0.4338529109954834
aI0
aa(lp236
F-1.1247828642474573
aF-1.889127556477682
aF-1.9111922422992151
aF-0.9719284216510218
aF1.726465106010437
aF0.43384093046188354
aI0
aa(lp237
F-1.1247947851764124
aF-1.8891518751727503
aF-1.9111560026751917
aF-0.971844498311178
aF1.7265006303787231
aF0.4338289499282837
aI0
aa(lp238
F-1.124770466481344
aF-1.889127556477682
aF-1.911036793385641
aF-0.9718683401690882
aF1.7264530658721924
aF0.43381696939468384
aI0
aa(lp239
F-1.124758545552389
aF-1.8891156355487269
aF-1.9110601584063929
aF-0.971844498311178
aF1.7265006303787231
aF0.4338289499282837
aI0
aa(lp240
F-1.124758545552389
aF-1.8891637961017054
aF-1.911036793385641
aF-0.971844498311178
aF1.7265126705169678
aF0.43381696939468384
aI0
aa(lp241
F-1.124770466481344
aF-1.889127556477682
aF-1.911084000264303
aF-0.971832577382223
aF1.7265006303787231
aF0.43381696939468384
aI0
aa(lp242
F-1.124770466481344
aF-1.889127556477682
aF-1.9110482374774378
aF-0.9718564192401331
aF1.726477026939392
aF0.433804988861084
aI0
aa(lp243
F-1.124758545552389
aF-1.8891156355487269
aF-1.9110482374774378
aF-0.9718564192401331
aF1.726465106010437
aF0.4338529109954834
aI0
aa(lp244
F-1.1247828642474573
aF-1.889127556477682
aF-1.9110601584063929
aF-0.9718802610980433
aF1.726488709449768
aF0.43381696939468384
aI0
aa(lp245
F-1.1247466246234339
aF-1.8891637961017054
aF-1.911072079335348
aF-0.9718683401690882
aF1.726465106010437
aF0.43381696939468384
aI0
aa(lp246
F-1.1247828642474573
aF-1.889139477406637
aF-1.9110482374774378
aF-0.9719045797931116
aF1.726477026939392
aF0.43384093046188354
aI0
aa(lp247
F-1.1248191038714808
aF-1.8891518751727503
aF-1.911036793385641
aF-0.971832577382223
aF1.7264530658721924
aF0.4338289499282837
aI0
aa(lp248
F-1.124770466481344
aF-1.8891518751727503
aF-1.9110601584063929
aF-0.9718802610980433
aF1.7264530658721924
aF0.4338289499282837
aI0
aa(lp249
F-1.1248071829425257
aF-1.8891518751727503
aF-1.911072079335348
aF-0.971832577382223
aF1.7265126705169678
aF0.4338289499282837
aI0
aa(lp250
F-1.1247828642474573
aF-1.8891156355487269
aF-1.911072079335348
aF-0.9718683401690882
aF1.7265006303787231
aF0.43384093046188354
aI0
aa(lp251
F-1.1247828642474573
aF-1.889127556477682
aF-1.9110601584063929
aF-0.9718564192401331
aF1.726477026939392
aF0.433804988861084
aI0
aa(lp252
F-1.1247947851764124
aF-1.889127556477682
aF-1.9110482374774378
aF-0.9718564192401331
aF1.726477026939392
aF0.43381696939468384
aI0
aa(lp253
F-1.1247947851764124
aF-1.889139477406637
aF-1.911036793385641
aF-0.9718683401690882
aF1.726465106010437
aF0.43384093046188354
aI0
aa(lp254
F-1.1247828642474573
aF-1.8891757170306605
aF-1.911036793385641
aF-0.971832577382223
aF1.7265126705169678
aF0.43384093046188354
aI0
aa(lp255
F-1.1247828642474573
aF-1.889139477406637
aF-1.9110482374774378
aF-0.9718564192401331
aF1.7265126705169678
aF0.433804988861084
aI0
aa(lp256
F-1.1247828642474573
aF-1.8891637961017054
aF-1.9110601584063929
aF-0.9717963377581995
aF1.726465106010437
aF0.43384093046188354
aI0
aa(lp257
F-1.1248191038714808
aF-1.8891518751727503
aF-1.911036793385641
aF-0.9718802610980433
aF1.726465106010437
aF0.433804988861084
aI0
aa(lp258
F-1.124770466481344
aF-1.889127556477682
aF-1.9110243956195276
aF-0.971844498311178
aF1.7265006303787231
aF0.4338289499282837
aI0
aa(lp259
F-1.1248071829425257
aF-1.8891637961017054
aF-1.911072079335348
aF-0.971844498311178
aF1.7265245914459229
aF0.433804988861084
aI0
aa(lp260
F-1.124758545552389
aF-1.8891637961017054
aF-1.9110243956195276
aF-0.971844498311178
aF1.7265006303787231
aF0.43379300832748413
aI0
aa(lp261
F-1.1247947851764124
aF-1.889139477406637
aF-1.9110601584063929
aF-0.971832577382223
aF1.726477026939392
aF0.433804988861084
aI0
aa(lp262
F-1.1247947851764124
aF-1.8891637961017054
aF-1.911036793385641
aF-0.971832577382223
aF1.7265006303787231
aF0.4338289499282837
aI0
aa(lp263
F-1.1247828642474573
aF-1.889139477406637
aF-1.9110601584063929
aF-0.9718087355243128
aF1.726477026939392
aF0.433804988861084
aI0
aa(lp264
F-1.1247828642474573
aF-1.889127556477682
aF-1.9110601584063929
aF-0.9718683401690882
aF1.726465106010437
aF0.43384093046188354
aI0
aa(lp265
F-1.124758545552389
aF-1.889139477406637
aF-1.9110601584063929
aF-0.971844498311178
aF1.7265006303787231
aF0.433804988861084
aI0
aa(lp266
F-1.1247828642474573
aF-1.8891637961017054
aF-1.911036793385641
aF-0.971844498311178
aF1.726477026939392
aF0.43381696939468384
aI0
aa(lp267
F-1.1248071829425257
aF-1.889139477406637
aF-1.911036793385641
aF-0.971844498311178
aF1.7265006303787231
aF0.43384093046188354
aI0
aa(lp268
F-1.124758545552389
aF-1.889139477406637
aF-1.9110482374774378
aF-0.9718683401690882
aF1.7265245914459229
aF0.4338289499282837
aI0
aa(lp269
F-1.1247947851764124
aF-1.8891518751727503
aF-1.911072079335348
aF-0.9718802610980433
aF1.726488709449768
aF0.4338289499282837
aI0
aa(lp270
F-1.1247947851764124
aF-1.889139477406637
aF-1.9110124746905726
aF-0.971844498311178
aF1.7265366315841675
aF0.433804988861084
aI0
aa(lp271
F-1.1247828642474573
aF-1.889127556477682
aF-1.9110243956195276
aF-0.971844498311178
aF1.726488709449768
aF0.43379300832748413
aI0
aa(lp272
F-1.1247828642474573
aF-1.8891518751727503
aF-1.911036793385641
aF-0.971832577382223
aF1.726477026939392
aF0.4338289499282837
aI0
aa(lp273
F-1.124770466481344
aF-1.889139477406637
aF-1.9110601584063929
aF-0.971844498311178
aF1.726477026939392
aF0.43384093046188354
aI0
aa(lp274
F-1.124770466481344
aF-1.8891156355487269
aF-1.9110482374774378
aF-0.9718683401690882
aF1.7265006303787231
aF0.4338289499282837
aI0
aa(lp275
F-1.1247947851764124
aF-1.8891518751727503
aF-1.911036793385641
aF-0.9718206564532679
aF1.7265126705169678
aF0.43379300832748413
aI0
aa(lp276
F-1.1247947851764124
aF-1.8891518751727503
aF-1.9110005537616175
aF-0.971844498311178
aF1.726488709449768
aF0.4338289499282837
aI0
aa(lp277
F-1.1248310248004358
aF-1.8891518751727503
aF-1.911072079335348
aF-0.971844498311178
aF1.726488709449768
aF0.43379300832748413
aI0
aa(lp278
F-1.1248071829425257
aF-1.8891518751727503
aF-1.911036793385641
aF-0.971844498311178
aF1.726477026939392
aF0.433804988861084
aI0
aa(lp279
F-1.1248310248004358
aF-1.889139477406637
aF-1.9110601584063929
aF-0.9718683401690882
aF1.726477026939392
aF0.43384093046188354
aI0
aa(lp280
F-1.124758545552389
aF-1.889139477406637
aF-1.9110482374774378
aF-0.971832577382223
aF1.7265006303787231
aF0.43379300832748413
aI0
aa(lp281
F-1.1247947851764124
aF-1.8891518751727503
aF-1.9110601584063929
aF-0.971844498311178
aF1.7265126705169678
aF0.43384093046188354
aI0
aa(lp282
F-1.1247947851764124
aF-1.889127556477682
aF-1.9110601584063929
aF-0.971844498311178
aF1.726465106010437
aF0.43384093046188354
aI0
aa(lp283
F-1.1248310248004358
aF-1.8891156355487269
aF-1.9110601584063929
aF-0.9719045797931116
aF1.7265006303787231
aF0.43381696939468384
aI0
aa(lp284
F-1.1248071829425257
aF-1.8891637961017054
aF-1.9110601584063929
aF-0.9718564192401331
aF1.726465106010437
aF0.433804988861084
aI0
aa(lp285
F-1.1248191038714808
aF-1.889139477406637
aF-1.9110601584063929
aF-0.971832577382223
aF1.726477026939392
aF0.4338529109954834
aI0
aa(lp286
F-1.1247466246234339
aF-1.889139477406637
aF-1.9110243956195276
aF-0.9718926588641565
aF1.7265006303787231
aF0.433804988861084
aI0
aa(lp287
F-1.1247947851764124
aF-1.889139477406637
aF-1.9110601584063929
aF-0.9718683401690882
aF1.726488709449768
aF0.43384093046188354
aI0
aa(lp288
F-1.1248071829425257
aF-1.8891518751727503
aF-1.9110601584063929
aF-0.9718683401690882
aF1.726477026939392
aF0.4338529109954834
aI0
aa(lp289
F-1.1247947851764124
aF-1.889127556477682
aF-1.911036793385641
aF-0.9718087355243128
aF1.726465106010437
aF0.4338289499282837
aI0
aa(lp290
F-1.124770466481344
aF-1.8891518751727503
aF-1.911036793385641
aF-0.9718683401690882
aF1.726488709449768
aF0.4337810277938843
aI1
aa(lp291
F-1.1247947851764124
aF-1.889139477406637
aF-1.9110601584063929
aF-0.9718206564532679
aF1.7265006303787231
aF0.4338529109954834
aI1
aa(lp292
F-1.124770466481344
aF-1.889127556477682
aF-1.9110601584063929
aF-0.971844498311178
aF1.7265006303787231
aF0.433804988861084
aI1
aa(lp293
F-1.1247828642474573
aF-1.8891156355487269
aF-1.911084000264303
aF-0.9718564192401331
aF1.7265245914459229
aF0.43381696939468384
aI1
aa(lp294
F-1.1247828642474573
aF-1.8891518751727503
aF-1.9110243956195276
aF-0.9718683401690882
aF1.7265006303787231
aF0.43381696939468384
aI1
aa(lp295
F-1.124758545552389
aF-1.889139477406637
aF-1.9110482374774378
aF-0.9718564192401331
aF1.726488709449768
aF0.4338289499282837
aI1
aa(lp296
F-1.1248191038714808
aF-1.889139477406637
aF-1.9110482374774378
aF-0.9718564192401331
aF1.7264291048049927
aF0.433804988861084
aI1
aa(lp297
F-1.124770466481344
aF-1.8891518751727503
aF-1.911036793385641
aF-0.9718802610980433
aF1.726488709449768
aF0.433804988861084
aI1
aa(lp298
F-1.1247947851764124
aF-1.889139477406637
aF-1.911036793385641
aF-0.971832577382223
aF1.7265006303787231
aF0.43381696939468384
aI1
aa(lp299
F-1.1248071829425257
aF-1.889139477406637
aF-1.9110482374774378
aF-0.9718206564532679
aF1.726488709449768
aF0.43379300832748413
aI1
aa(lp300
F-1.1247466246234339
aF-1.8891518751727503
aF-1.911036793385641
aF-0.971844498311178
aF1.726477026939392
aF0.43384093046188354
aI1
aa(lp301
F-1.124770466481344
aF-1.889127556477682
aF-1.9110482374774378
aF-0.971844498311178
aF1.726477026939392
aF0.4338289499282837
aI1
aa(lp302
F-1.1248071829425257
aF-1.8891518751727503
aF-1.9110601584063929
aF-0.9718564192401331
aF1.726488709449768
aF0.43384093046188354
aI1
aa(lp303
F-1.124770466481344
aF-1.8891518751727503
aF-1.9110601584063929
aF-0.971832577382223
aF1.7265006303787231
aF0.43381696939468384
aI1
aa(lp304
F-1.1247947851764124
aF-1.8891518751727503
aF-1.9110124746905726
aF-0.9718683401690882
aF1.726477026939392
aF0.43381696939468384
aI1
aa(lp305
F-1.1248191038714808
aF-1.889139477406637
aF-1.9110601584063929
aF-0.9718683401690882
aF1.726488709449768
aF0.43384093046188354
aI1
aa(lp306
F-1.1247828642474573
aF-1.8891757170306605
aF-1.9110601584063929
aF-0.971844498311178
aF1.726488709449768
aF0.4338289499282837
aI1
aa(lp307
F-1.1247947851764124
aF-1.8891156355487269
aF-1.9110482374774378
aF-0.9718564192401331
aF1.7265006303787231
aF0.4338529109954834
aI1
aa(lp308
F-1.1247828642474573
aF-1.889127556477682
aF-1.911036793385641
aF-0.971832577382223
aF1.726477026939392
aF0.43381696939468384
aI1
aa(lp309
F-1.1248191038714808
aF-1.889139477406637
aF-1.9110124746905726
aF-0.9718564192401331
aF1.726477026939392
aF0.4338289499282837
aI1
aa(lp310
F-1.1247947851764124
aF-1.8891518751727503
aF-1.911036793385641
aF-0.971832577382223
aF1.7265126705169678
aF0.4338289499282837
aI1
aa(lp311
F-1.1247947851764124
aF-1.889139477406637
aF-1.9110482374774378
aF-0.971844498311178
aF1.726477026939392
aF0.4338289499282837
aI1
aa(lp312
F-1.1247828642474573
aF-1.889127556477682
aF-1.9110482374774378
aF-0.971832577382223
aF1.726488709449768
aF0.43386489152908325
aI1
aa(lp313
F-1.1248071829425257
aF-1.889127556477682
aF-1.9110601584063929
aF-0.971832577382223
aF1.7265126705169678
aF0.43381696939468384
aI1
aa(lp314
F-1.124770466481344
aF-1.889127556477682
aF-1.9110482374774378
aF-0.9718683401690882
aF1.726465106010437
aF0.4338529109954834
aI1
aa(lp315
F-1.1248191038714808
aF-1.889139477406637
aF-1.9110482374774378
aF-0.971844498311178
aF1.7265126705169678
aF0.433804988861084
aI1
aa(lp316
F-1.124758545552389
aF-1.8891637961017054
aF-1.911036793385641
aF-0.9718564192401331
aF1.7264530658721924
aF0.43381696939468384
aI1
aa(lp317
F-1.124770466481344
aF-1.8891518751727503
aF-1.9110243956195276
aF-0.9718206564532679
aF1.7265006303787231
aF0.43381696939468384
aI1
aa(lp318
F-1.1247947851764124
aF-1.8891518751727503
aF-1.911036793385641
aF-0.9718926588641565
aF1.726465106010437
aF0.43381696939468384
aI1
aa(lp319
F-1.124758545552389
aF-1.8891518751727503
aF-1.9110243956195276
aF-0.9718926588641565
aF1.726488709449768
aF0.4338289499282837
aI1
aa(lp320
F-1.1247828642474573
aF-1.8891637961017054
aF-1.9110601584063929
aF-0.9718564192401331
aF1.7265006303787231
aF0.43379300832748413
aI1
aa(lp321
F-1.1247828642474573
aF-1.889127556477682
aF-1.9110482374774378
aF-0.971844498311178
aF1.726488709449768
aF0.433804988861084
aI1
aa(lp322
F-1.1247947851764124
aF-1.889139477406637
aF-1.911036793385641
aF-0.9718564192401331
aF1.726488709449768
aF0.43381696939468384
aI1
aa(lp323
F-1.1248191038714808
aF-1.889139477406637
aF-1.911036793385641
aF-0.9717963377581995
aF1.726477026939392
aF0.4338289499282837
aI1
aa(lp324
F-1.1247828642474573
aF-1.889139477406637
aF-1.911084000264303
aF-0.9718206564532679
aF1.7265006303787231
aF0.43379300832748413
aI1
aa(lp325
F-1.1247947851764124
aF-1.8891757170306605
aF-1.911072079335348
aF-0.971832577382223
aF1.7265006303787231
aF0.4338289499282837
aI1
aa(lp326
F-1.1247828642474573
aF-1.8891518751727503
aF-1.911072079335348
aF-0.971832577382223
aF1.7265245914459229
aF0.433804988861084
aI1
aa(lp327
F-1.1247828642474573
aF-1.889139477406637
aF-1.9110601584063929
aF-0.9718802610980433
aF1.7265366315841675
aF0.43381696939468384
aI1
aa(lp328
F-1.1247828642474573
aF-1.889139477406637
aF-1.9110601584063929
aF-0.9718564192401331
aF1.726477026939392
aF0.4338529109954834
aI1
aa(lp329
F-1.1248191038714808
aF-1.8891518751727503
aF-1.9110482374774378
aF-0.9718683401690882
aF1.7265126705169678
aF0.43381696939468384
aI1
aa(lp330
F-1.124770466481344
aF-1.8891518751727503
aF-1.911036793385641
aF-0.9718802610980433
aF1.7265006303787231
aF0.43384093046188354
aI1
aa(lp331
F-1.1248191038714808
aF-1.889127556477682
aF-1.9110243956195276
aF-0.9718206564532679
aF1.7265726327896118
aF0.43381696939468384
aI1
aa(lp332
F-1.1247347036944788
aF-1.889127556477682
aF-1.9110482374774378
aF-0.971832577382223
aF1.726465106010437
aF0.43384093046188354
aI1
aa(lp333
F-1.1247828642474573
aF-1.889127556477682
aF-1.911036793385641
aF-0.971844498311178
aF1.726488709449768
aF0.433804988861084
aI1
aa(lp334
F-1.1247347036944788
aF-1.889127556477682
aF-1.9110601584063929
aF-0.971844498311178
aF1.7265006303787231
aF0.43384093046188354
aI1
aa(lp335
F-1.1248071829425257
aF-1.889127556477682
aF-1.9110243956195276
aF-0.9718564192401331
aF1.7265126705169678
aF0.4338289499282837
aI1
aa(lp336
F-1.1247828642474573
aF-1.889127556477682
aF-1.911036793385641
aF-0.9718926588641565
aF1.7265605926513672
aF0.43381696939468384
aI1
aa(lp337
F-1.124770466481344
aF-1.8891156355487269
aF-1.9111560026751917
aF-0.9719284216510218
aF1.7265366315841675
aF0.4338289499282837
aI1
aa(lp338
F-1.1247347036944788
aF-1.8890917936908167
aF-1.9111560026751917
aF-0.972168270741598
aF1.7266085147857666
aF0.4338289499282837
aI1
aa(lp339
F-1.1246989409076136
aF-1.889127556477682
aF-1.9114673773394983
aF-0.9730914274798792
aF1.7268122434616089
aF0.43384093046188354
aI1
aa(lp340
F-1.1247108618365687
aF-1.8891156355487269
aF-1.9115870634662073
aF-0.9742301146136683
aF1.726872205734253
aF0.43381696939468384
aI1
aa(lp341
F-1.1246870199786585
aF-1.8890917936908167
aF-1.911778752003805
aF-0.97522479692568
aF1.7268601655960083
aF0.433804988861084
aI1
aa(lp342
F-1.1246989409076136
aF-1.8890917936908167
aF-1.9125807921039026
aF-0.9767239729510706
aF1.7268362045288086
aF0.433804988861084
aI1
aa(lp343
F-1.1247347036944788
aF-1.8891156355487269
aF-1.9142454306231897
aF-0.9781625906573694
aF1.7268003225326538
aF0.4337570369243622
aI1
aa(lp344
F-1.1246870199786585
aF-1.8891156355487269
aF-1.9167841116534632
aF-0.9792407194720667
aF1.7268122434616089
aF0.4337570369243622
aI1
aa(lp345
F-1.1246870199786585
aF-1.8891037146197718
aF-1.9213107267962855
aF-0.9798644224749964
aF1.7268242835998535
aF0.4337810277938843
aI1
aa(lp346
F-1.1246631781207483
aF-1.8891037146197718
aF-1.926410977040426
aF-0.97992450395693
aF1.7268601655960083
aF0.43379300832748413
aI1
aa(lp347
F-1.124519173298971
aF-1.889031712208883
aF-1.9326136747943323
aF-0.9798525015460413
aF1.726872205734253
aF0.4337570369243622
aI1
aa(lp348
F-1.1244834105121058
aF-1.8889358679400843
aF-1.9398701826678675
aF-0.9798405806170862
aF1.7268961668014526
aF0.43374505639076233
aI1
aa(lp349
F-1.124507252370016
aF-1.8888757864581507
aF-1.9447434584247034
aF-0.9798167387591761
aF1.7269916534423828
aF0.4337330758571625
aI1
aa(lp350
F-1.1244352499591272
aF-1.8888757864581507
aF-1.9474852720843714
aF-0.9798405806170862
aF1.7270516157150269
aF0.43370911478996277
aI1
aa(lp351
F-1.1244595686541956
aF-1.8888042608844202
aF-1.947904411946432
aF-0.9798167387591761
aF1.7272074222564697
aF0.43370911478996277
aI1
aa(lp352
F-1.1243398825274866
aF-1.8886125723468226
aF-1.9478805700885218
aF-0.9798644224749964
aF1.727411150932312
aF0.4336971342563629
aI1
aa(lp353
F-1.1242201964007776
aF-1.8885043303119105
aF-1.948012653981344
aF-0.97992450395693
aF1.7277103662490845
aF0.4336731731891632
aI1
aa(lp354
F-1.123896900807516
aF-1.8883121649371546
aF-1.9483354727374476
aF-0.9800685087787073
aF1.728488564491272
aF0.43370911478996277
aI1
aa(lp355
F-1.1236451307879847
aF-1.8881567160235804
aF-1.9485867659198206
aF-0.9801881949054163
aF1.7292431592941284
aF0.4336971342563629
aI1
aa(lp356
F-1.1234539190875452
aF-1.8879407087909144
aF-1.9487784544574183
aF-0.9803441206561487
aF1.730392575263977
aF0.43370911478996277
aI1
aa(lp357
F-1.1229870955096644
aF-1.8876174131976526
aF-1.9489582220660608
aF-0.9806435743915003
aF1.731937050819397
aF0.43368515372276306
aI1
aa(lp358
F-1.1218612829791468
aF-1.8868377844439905
aF-1.9489582220660608
aF-0.9805834929095667
aF1.734667181968689
aF0.43374505639076233
aI1
aa(lp359
F-1.1192510763751429
aF-1.885519806538717
aF-1.9489219824420374
aF-0.9806197325335901
aF1.7392537593841553
aF0.4336971342563629
aI1
aa(lp360
F-1.1147726217852991
aF-1.8836496512042444
aF-1.9489219824420374
aF-0.9807036558734339
aF1.7454208135604858
aF0.43374505639076233
aI1
aa(lp361
F-1.1094802061664026
aF-1.8813961187945765
aF-1.948982063923971
aF-0.9814589659320276
aF1.7564852237701416
aF0.43374505639076233
aI1
aa(lp362
F-1.1051700750934046
aF-1.8797896544085901
aF-1.9493053595172327
aF-0.9833768049823206
aF1.7660883665084839
aF0.43374505639076233
aI1
aa(lp363
F-1.1017573515521448
aF-1.8785789648639124
aF-1.9507783094989222
aF-0.9867938200580042
aF1.7732013463974
aF0.4337570369243622
aI1
aa(lp364
F-1.0999968687640589
aF-1.8776443640338343
aF-1.95349628130068
aF-0.9944656530963343
aF1.7765302658081055
aF0.43374505639076233
aI1
aa(lp365
F-1.0998056570636194
aF-1.8766730467425745
aF-1.9569805304156702
aF-1.004535977040426
aF1.7764583826065063
aF0.4337210953235626
aI1
aa(lp366
F-1.0997336546527308
aF-1.875030819569723
aF-1.961818043385641
aF-1.02002460161318
aF1.7765302658081055
aF0.43370911478996277
aI1
aa(lp367
F-1.0996974150287073
aF-1.8733766714679163
aF-1.9653499762164515
aF-1.0338948408709925
aF1.7765542268753052
aF0.43370911478996277
aI1
aa(lp368
F-1.099661652241842
aF-1.8712552229510706
aF-1.9680441061602991
aF-1.0464828650103968
aF1.776698112487793
aF0.43370911478996277
aI1
aa(lp369
F-1.0996854940997522
aF-1.868941609059469
aF-1.9692414442645472
aF-1.0577519575702112
aF1.7770333290100098
aF0.4336971342563629
aI1
aa(lp370
F-1.0996492544757288
aF-1.86680776277651
aF-1.9693611303912562
aF-1.0665276686297815
aF1.7772725820541382
aF0.4336731731891632
aI1
aa(lp371
F-1.0996735731707972
aF-1.8641703764544886
aF-1.9696367422686976
aF-1.0774486700641077
aF1.7780152559280396
aF0.4337210953235626
aI1
aa(lp372
F-1.099661652241842
aF-1.8604424635516565
aF-1.9701994101153772
aF-1.0929983297931116
aF1.7789971828460693
aF0.43370911478996277
aI1
aa(lp373
F-1.0996254126178187
aF-1.8569543997394007
aF-1.9709537664996546
aF-1.108654801045553
aF1.780386209487915
aF0.43370911478996277
aI1
aa(lp374
F-1.099541966115133
aF-1.8535617033587855
aF-1.9714205900775355
aF-1.125054661427633
aF1.7834635972976685
aF0.43370911478996277
aI1
aa(lp375
F-1.0994342009173792
aF-1.850361172352926
aF-1.9715283552752894
aF-1.1401484648333948
aF1.7873430252075195
aF0.4337210953235626
aI1
aa(lp376
F-1.0994699637042444
aF-1.8469575087176722
aF-1.9715765158282679
aF-1.152388874684469
aF1.7908633947372437
aF0.43374505639076233
aI1
aa(lp377
F-1.0994222799884241
aF-1.8447755018817347
aF-1.9717558065997522
aF-1.1574481169330042
aF1.7917015552520752
aF0.4336971342563629
aI1
aa(lp378
F-1.0994461218463343
aF-1.8427136580096644
aF-1.9725220839129847
aF-1.1578076521502894
aF1.7920128107070923
aF0.4337330758571625
aI1
aa(lp379
F-1.0993621985064905
aF-1.8412993589984339
aF-1.9731925169574183
aF-1.1577838102923792
aF1.7921206951141357
aF0.43368515372276306
aI1
aa(lp380
F-1.0993025938617151
aF-1.8397653738604944
aF-1.973994557057516
aF-1.157759968434469
aF1.7921446561813354
aF0.4336971342563629
aI1
aa(lp381
F-1.0992305914508265
aF-1.8375714460956019
aF-1.9755752722369593
aF-1.1577838102923792
aF1.7921086549758911
aF0.43370911478996277
aI1
aa(lp382
F-1.0990632216082972
aF-1.8356059233294886
aF-1.9777300993548792
aF-1.1577361265765589
aF1.7921326160430908
aF0.4336971342563629
aI1
aa(lp383
F-1.0986440817462366
aF-1.83354360262026
aF-1.980771843587057
aF-1.1577361265765589
aF1.7921925783157349
aF0.4336971342563629
aI1
aa(lp384
F-1.0975902716266077
aF-1.8315065542804163
aF-1.9842680136310022
aF-1.1576398054706019
aF1.79220449924469
aF0.4336971342563629
aI1
aa(lp385
F-1.0949438253985804
aF-1.8288329283343714
aF-1.988422695790426
aF-1.1575444380389612
aF1.7923842668533325
aF0.4337690472602844
aI1
aa(lp386
F-1.090980354939596
aF-1.8255603949176233
aF-1.9932473341571253
aF-1.1573284308062952
aF1.792443871498108
aF0.4337690472602844
aI1
aa(lp387
F-1.0865500609027308
aF-1.8215931097613733
aF-1.9994381109820765
aF-1.1569207350360315
aF1.7924798727035522
aF0.4337690472602844
aI1
aa(lp388
F-1.0818679968463343
aF-1.8169062773333948
aF-2.006897274647848
aF-1.1568968931781214
aF1.792443871498108
aF0.43379300832748413
aI1
aa(lp389
F-1.0776293913470667
aF-1.8128064314471644
aF-2.0131829420672815
aF-1.1569808165179651
aF1.7924078702926636
aF0.433804988861084
aI1
aa(lp390
F-1.0744550863849085
aF-1.8088391462909144
aF-2.0187981764422815
aF-1.1569207350360315
aF1.7924199104309082
aF0.433804988861084
aI1
aa(lp391
F-1.0723121801959437
aF-1.8046553770648401
aF-2.0255988279925745
aF-1.1569808165179651
aF1.7924318313598633
aF0.433804988861084
aI1
aa(lp392
F-1.0707672278033655
aF-1.8009880224811
aF-2.032231156026022
aF-1.156825367604391
aF1.7924678325653076
aF0.433804988861084
aI1
aa(lp393
F-1.0688632170306605
aF-1.797164265309469
aF-2.0385645071612757
aF-1.1568730513202112
aF1.792455792427063
aF0.4338289499282837
aI1
aa(lp394
F-1.065833870564596
aF-1.7928364912616175
aF-2.044227425252096
aF-1.1568611303912562
aF1.7924917936325073
aF0.4338289499282837
aI1
aa(lp395
F-1.0635345617877405
aF-1.7893965880023401
aF-2.0472329298602503
aF-1.1568968931781214
aF1.792503833770752
aF0.433804988861084
aI1
aa(lp396
F-1.0622051397906702
aF-1.786208454762594
aF-2.0491960684405726
aF-1.156956974660055
aF1.792575716972351
aF0.4338529109954834
aI1
aa(lp397
F-1.061810318623678
aF-1.783403221760885
aF-2.0513628164874476
aF-1.1570046583758753
aF1.7925636768341064
aF0.43381696939468384
aI1
aa(lp398
F-1.0617507139789026
aF-1.7808626333819788
aF-2.0549901167498987
aF-1.156956974660055
aF1.7926955223083496
aF0.43379300832748413
aI1
aa(lp399
F-1.0617383162127894
aF-1.7790401617633265
aF-2.059228245412008
aF-1.1569927374469202
aF1.7936534881591797
aF0.4337570369243622
aI1
aa(lp400
F-1.0614870230304163
aF-1.7770984808551233
aF-2.063753906880514
aF-1.156956974660055
aF1.795533537864685
aF0.43374505639076233
aI1
aa(lp401
F-1.0604332129107874
aF-1.774569336568014
aF-2.068411175404684
aF-1.1569450537311
aF1.799209713935852
aF0.43374505639076233
aI1
aa(lp402
F-1.0587447325335901
aF-1.7724478880511683
aF-2.0713685194598597
aF-1.1570046583758753
aF1.8033767938613892
aF0.43379300832748413
aI1
aa(lp403
F-1.0554874579059046
aF-1.770505730305807
aF-2.0734275023089808
aF-1.1570408979998987
aF1.808106541633606
aF0.4337570369243622
aI1
aa(lp404
F-1.0500505606280726
aF-1.7683842817889612
aF-2.075905148183004
aF-1.1571248213397425
aF1.8133515119552612
aF0.4337570369243622
aI1
aa(lp405
F-1.045978848134176
aF-1.7666342894183558
aF-2.0784314314471644
aF-1.1572688261615198
aF1.8167998790740967
aF0.4337810277938843
aI1
aa(lp406
F-1.0417397657977503
aF-1.7644646803485315
aF-2.082860771809713
aF-1.1573885122882288
aF1.8184282779693604
aF0.43379300832748413
aI1
aa(lp407
F-1.0376318136798304
aF-1.7609642187701624
aF-2.090750042592184
aF-1.1573284308062952
aF1.819326400756836
aF0.43381696939468384
aI1
aa(lp408
F-1.035452667866842
aF-1.75786000887026
aF-2.099130455647604
aF-1.1573284308062952
aF1.8203802108764648
aF0.4337810277938843
aI1
aa(lp409
F-1.033788029347555
aF-1.7547195593463343
aF-2.1065285841571253
aF-1.1572206656085413
aF1.821398138999939
aF0.43379300832748413
aI1
aa(lp410
F-1.0313447157489222
aF-1.7505362669574183
aF-2.113196674977438
aF-1.1572688261615198
aF1.8221280574798584
aF0.43379300832748413
aI1
aa(lp411
F-1.0284107367144983
aF-1.7465809027301233
aF-2.118368450795309
aF-1.1572206656085413
aF1.8228703737258911
aF0.43379300832748413
aI1
aa(lp412
F-1.0258000532733362
aF-1.7425053755389612
aF-2.124449078236715
aF-1.1572688261615198
aF1.824271321296692
aF0.43379300832748413
aI1
aa(lp413
F-1.0240033308612269
aF-1.7376273314105433
aF-2.1317036787616175
aF-1.157304588948385
aF1.8259000778198242
aF0.43379300832748413
aI1
aa(lp414
F-1.0232494513141077
aF-1.733180348073141
aF-2.137270752583639
aF-1.157304588948385
aF1.8267861604690552
aF0.4337810277938843
aI1
aa(lp415
F-1.022578541432516
aF-1.7288654486285608
aF-2.141963307057516
aF-1.1572564283954065
aF1.8280433416366577
aF0.43379300832748413
aI1
aa(lp416
F-1.0212371985064905
aF-1.7235191504107874
aF-2.1477091948138636
aF-1.1572802702533167
aF1.8285104036331177
aF0.433804988861084
aI1
aa(lp417
F-1.0193331877337855
aF-1.719179932271139
aF-2.152700726185934
aF-1.1572802702533167
aF1.8285343647003174
aF0.4337810277938843
aI1
aa(lp418
F-1.0164230505572718
aF-1.7150328795062464
aF-2.1586268583880823
aF-1.15729266801943
aF1.8286062479019165
aF0.43379300832748413
aI1
aa(lp419
F-1.0135486761676233
aF-1.7109573523150843
aF-2.1643365065204065
aF-1.1572802702533167
aF1.8288335800170898
aF0.4337570369243622
aI1
aa(lp420
F-1.0117281118976038
aF-1.7065227667437952
aF-2.1705010573016565
aF-1.1573165098773401
aF1.8301388025283813
aF0.433804988861084
aI1
aa(lp421
F-1.0112255255328577
aF-1.7029154936419886
aF-2.1747868696795862
aF-1.157304588948385
aF1.8319708108901978
aF0.43379300832748413
aI1
aa(lp422
F-1.0112255255328577
aF-1.6989477316485804
aF-2.178772274647848
aF-1.15729266801943
aF1.8338388204574585
aF0.43379300832748413
aI1
aa(lp423
F-1.0111773649798792
aF-1.6942370573626917
aF-2.1842435042010706
aF-1.1572802702533167
aF1.8364012241363525
aF0.4338289499282837
aI1
aa(lp424
F-1.0112255255328577
aF-1.690209690724508
aF-2.1888402144061487
aF-1.1572206656085413
aF1.8386284112930298
aF0.43381696939468384
aI1
aa(lp425
F-1.0112136046039026
aF-1.6858232657061976
aF-2.192909542714254
aF-1.1572087446795862
aF1.8414065837860107
aF0.43384093046188354
aI1
aa(lp426
F-1.0112374464618128
aF-1.6809805075274866
aF-2.196512524281637
aF-1.1572564283954065
aF1.8446156978607178
aF0.43384093046188354
aI1
aa(lp427
F-1.0112255255328577
aF-1.6770013014422815
aF-2.1988347212420862
aF-1.1573403517352503
aF1.8472979068756104
aF0.4338529109954834
aI1
aa(lp428
F-1.011261288319723
aF-1.6729024092303675
aF-2.200869862233297
aF-1.1573403517352503
aF1.8494292497634888
aF0.4338529109954834
aI1
aa(lp429
F-1.0112493673907679
aF-1.6683834234820765
aF-2.203527275715963
aF-1.1573765913592737
aF1.8513212203979492
aF0.43388888239860535
aI1
aa(lp430
F-1.0112493673907679
aF-1.6645715872394007
aF-2.2073691526996058
aF-1.1573165098773401
aF1.8525304794311523
aF0.43384093046188354
aI1
aa(lp431
F-1.0112255255328577
aF-1.6607120672809046
aF-2.212097469960348
aF-1.1573165098773401
aF1.8531413078308105
aF0.4338529109954834
aI1
aa(lp432
F-1.0112493673907679
aF-1.6566608587848108
aF-2.2184775511371058
aF-1.157184902821676
aF1.8537877798080444
aF0.43384093046188354
aI1
aa(lp433
F-1.0111773649798792
aF-1.6536524931537073
aF-2.2234929243670862
aF-1.1571725050555628
aF1.855116844177246
aF0.43384093046188354
aI1
aa(lp434
F-1.0112374464618128
aF-1.6502726713763636
aF-2.226605240498678
aF-1.1572325865374964
aF1.8570804595947266
aF0.43384093046188354
aI1
aa(lp435
F-1.0112374464618128
aF-1.6475279966937464
aF-2.228400532399313
aF-1.1572087446795862
aF1.8592116832733154
aF0.43384093046188354
aI1
aa(lp436
F-1.0112255255328577
aF-1.645430866871969
aF-2.2295497099505823
aF-1.1572325865374964
aF1.8615108728408813
aF0.43386489152908325
aI1
aa(lp437
F-1.0112012068377894
aF-1.6433928648578089
aF-2.2309020201312464
aF-1.1573165098773401
aF1.8643364906311035
aF0.43384093046188354
aI1
aa(lp438
F-1.0112374464618128
aF-1.6419304052936
aF-2.2319911162005823
aF-1.157304588948385
aF1.8668513298034668
aF0.4338529109954834
aI1
aa(lp439
F-1.011273209248678
aF-1.6403840223895472
aF-2.232661549245016
aF-1.1573165098773401
aF1.869078516960144
aF0.4338529109954834
aI1
aa(lp440
F-1.0112136046039026
aF-1.6386826674090784
aF-2.232924763356344
aF-1.1572802702533167
aF1.870694875717163
aF0.4338529109954834
aI1
aa(lp441
F-1.011261288319723
aF-1.6369922796832483
aF-2.2328532377826136
aF-1.1572564283954065
aF1.871736764907837
aF0.4338529109954834
aI1
aa(lp442
F-1.0112255255328577
aF-1.6358779112445276
aF-2.2328174749957483
aF-1.157184902821676
aF1.8718925714492798
aF0.43379300832748413
aI1
aa(lp443
F-1.0112374464618128
aF-1.6352065245257776
aF-2.2327216307269495
aF-1.1571009794818323
aF1.8718805313110352
aF0.433804988861084
aI1
aa(lp444
F-1.0112493673907679
aF-1.6351588408099573
aF-2.2327097097979944
aF-1.1570647398578089
aF1.87186861038208
aF0.43381696939468384
aI1
aa(lp445
F-1.0112374464618128
aF-1.6351826826678675
aF-2.2326977888690394
aF-1.1570528189288538
aF1.8718206882476807
aF0.4337810277938843
aI1
aa(lp446
F-1.011285130177633
aF-1.6351707617389124
aF-2.2327335516559046
aF-1.1570647398578089
aF1.8717607259750366
aF0.43381696939468384
aI1
aa(lp447
F-1.0112970511065882
aF-1.6351826826678675
aF-2.2327216307269495
aF-1.1570408979998987
aF1.8717846870422363
aF0.4338289499282837
aI1
aa(lp448
F-1.0113094488727015
aF-1.6351826826678675
aF-2.2326377073871058
aF-1.1570289770709437
aF1.871736764907837
aF0.43379300832748413
aI1
aa(lp449
F-1.0112970511065882
aF-1.6351826826678675
aF-2.232553784047262
aF-1.156956974660055
aF1.871736764907837
aF0.4337690472602844
aI1
aa(lp450
F-1.0112970511065882
aF-1.6352184454547327
aF-2.2323506514178675
aF-1.1569207350360315
aF1.8717247247695923
aF0.4337810277938843
aI1
aa(lp451
F-1.011285130177633
aF-1.635230843220846
aF-2.232063595448629
aF-1.1564891974078577
aF1.871736764907837
aF0.4337810277938843
aI1
aa(lp452
F-1.011273209248678
aF-1.6352184454547327
aF-2.231811825429098
aF-1.1551826635943812
aF1.871748685836792
aF0.43374505639076233
aI1
aa(lp453
F-1.0113213698016565
aF-1.635230843220846
aF-2.2313807646380823
aF-1.1524131933795374
aF1.8717128038406372
aF0.433804988861084
aI1
aa(lp454
F-1.0112970511065882
aF-1.635230843220846
aF-2.230698887501852
aF-1.149247948323385
aF1.8717128038406372
aF0.43374505639076233
aI1
aa(lp455
F-1.011285130177633
aF-1.635230843220846
aF-2.229980770741598
aF-1.1453397909747522
aF1.8717007637023926
aF0.4337690472602844
aI1
aa(lp456
F-1.0112970511065882
aF-1.635242764149801
aF-2.2294657866107386
aF-1.1400769392596644
aF1.8717247247695923
aF0.4337570369243622
aI1
aa(lp457
F-1.0112970511065882
aF-1.6352546850787562
aF-2.2292264143573206
aF-1.1342862288104456
aF1.871748685836792
aF0.4337810277938843
aI1
aa(lp458
F-1.011273209248678
aF-1.6352666060077112
aF-2.22910720506777
aF-1.12445575395693
aF1.8717128038406372
aF0.4337570369243622
aI1
aa(lp459
F-1.0112970511065882
aF-1.6352666060077112
aF-2.22913104692568
aF-1.1095059553729456
aF1.8716768026351929
aF0.4338289499282837
aI1
aa(lp460
F-1.011273209248678
aF-1.6353743712054651
aF-2.2291787306415003
aF-1.0976255575763147
aF1.8717128038406372
aF0.4337690472602844
aI1
aa(lp461
F-1.0113213698016565
aF-1.6354463736163538
aF-2.2292264143573206
aF-1.0906723181353968
aF1.8717007637023926
aF0.4337810277938843
aI1
aa(lp462
F-1.0113332907306116
aF-1.6354225317584437
aF-2.2292502562152308
aF-1.0896170775042933
aF1.8716768026351929
aF0.4337690472602844
aI1
aa(lp463
F-1.0113452116595667
aF-1.6354463736163538
aF-2.229286495839254
aF-1.0897248427020472
aF1.8717007637023926
aF0.4337690472602844
aI1
aa(lp464
F-1.0113452116595667
aF-1.6354225317584437
aF-2.229370419179098
aF-1.0897968451129358
aF1.8717007637023926
aF0.4337690472602844
aI1
aa(lp465
F-1.0113452116595667
aF-1.6354225317584437
aF-2.2294543425189417
aF-1.0898807684527796
aF1.8716648817062378
aF0.4337690472602844
aI1
aa(lp466
F-1.0112970511065882
aF-1.6354225317584437
aF-2.2297170797931116
aF-1.0901206175433558
aF1.8717726469039917
aF0.4337810277938843
aI1
aa(lp467
F-1.011261288319723
aF-1.6354463736163538
aF-2.229645077382223
aF-1.0899408499347132
aF1.871748685836792
aF0.4337570369243622
aI1
aa(lp468
F-1.0112374464618128
aF-1.635470215474264
aF-2.229513470326559
aF-1.0898450056659144
aF1.8717007637023926
aF0.43370911478996277
aI1
aa(lp469
F-1.0112255255328577
aF-1.6353982130633753
aF-2.229274098073141
aF-1.089581314717428
aF1.8717007637023926
aF0.4336491823196411
aI1
aa(lp470
F-1.011141602193014
aF-1.6354463736163538
aF-2.2291787306415003
aF-1.0890420118915003
aF1.8717007637023926
aF0.4333971440792084
aI1
aa(lp471
F-1.010578457509176
aF-1.6354106108294886
aF-2.2292025724994105
aF-1.0879748503314417
aF1.871736764907837
aF0.4328814446926117
aI1
aa(lp472
F-1.008686367665426
aF-1.6354225317584437
aF-2.2292383352862757
aF-1.0869796911822718
aF1.8716888427734375
aF0.4314785599708557
aI1
aa(lp473
F-1.004327122365133
aF-1.6354225317584437
aF-2.2292383352862757
aF-1.0861166159259241
aF1.8717247247695923
aF0.42813271284103394
aI1
aa(lp474
F-0.9967697302447718
aF-1.6354225317584437
aF-2.229274098073141
aF-1.0860326925860804
aF1.8716888427734375
aF0.41904154419898987
aI1
aa(lp475
F-0.9877637068377894
aF-1.6354463736163538
aF-2.2292264143573206
aF-1.0860088507281702
aF1.8716528415679932
aF0.40502187609672546
aI1
aa(lp476
F-0.9774993101703089
aF-1.6354344526873987
aF-2.2292502562152308
aF-1.0858166853534144
aF1.8714371919631958
aF0.3866245746612549
aI1
aa(lp477
F-0.9657495657550257
aF-1.6354344526873987
aF-2.2292144934283655
aF-1.0848220030414026
aF1.8709580898284912
aF0.3632744550704956
aI1
aa(lp478
F-0.9561317602740687
aF-1.6354106108294886
aF-2.229274098073141
aF-1.0843661467181605
aF1.8705750703811646
aF0.3419148027896881
aI1
aa(lp479
F-0.946909252797262
aF-1.6354344526873987
aF-2.229274098073141
aF-1.0843542257892054
aF1.8701919317245483
aF0.31946462392807007
aI1
aa(lp480
F-0.9368479887591761
aF-1.6354106108294886
aF-2.229286495839254
aF-1.0843542257892054
aF1.8694616556167603
aF0.29062196612358093
aI1
aa(lp481
F-0.9289782683001917
aF-1.6353982130633753
aF-2.2293103376971644
aF-1.0843780676471155
aF1.868479609489441
aF0.263603150844574
aI1
aa(lp482
F-0.9213121573077601
aF-1.6354344526873987
aF-2.2293222586261194
aF-1.0843899885760706
aF1.8674976825714111
aF0.2329864501953125
aI1
aa(lp483
F-0.9125197569476526
aF-1.6353982130633753
aF-2.2293103376971644
aF-1.0843780676471155
aF1.8657615184783936
aF0.1934003084897995
aI1
aa(lp484
F-0.9063752333270472
aF-1.6354106108294886
aF-2.229346577321188
aF-1.084426228200094
aF1.8645881414413452
aF0.1573401391506195
aI1
aa(lp485
F-0.9005892912494105
aF-1.6354225317584437
aF-2.2293341795550745
aF-1.0844500700580042
aF1.8626242876052856
aF0.12017743289470673
aI1
aa(lp486
F-0.8954747358905237
aF-1.6353862921344202
aF-2.229381863270895
aF-1.0843780676471155
aF1.860588788986206
aF0.0758683830499649
aI1
aa(lp487
F-0.891090218220846
aF-1.6354106108294886
aF-2.2293341795550745
aF-1.0843060652362269
aF1.8586008548736572
aF0.03620097413659096
aI1
aa(lp488
F-0.8872206846820276
aF-1.6353862921344202
aF-2.2293341795550745
aF-1.0841625372516077
aF1.8572957515716553
aF-0.006390873585836232
aI1
aa(lp489
F-0.8832915464984339
aF-1.6354106108294886
aF-2.2294300238238733
aF-1.0831549803363245
aF1.8569365739822388
aF-0.05961782137026006
aI1
aa(lp490
F-0.8793743292437952
aF-1.635350529347555
aF-2.229478184376852
aF-1.0827954451190394
aF1.8568410873413086
aF-0.10666829744447881
aI1
aa(lp491
F-0.8757570425616663
aF-1.6353862921344202
aF-2.2295973936664026
aF-1.082855526600973
aF1.8568291664123535
aF-0.15311748186220342
aI1
aa(lp492
F-0.8727377096759241
aF-1.635350529347555
aF-2.229633156453268
aF-1.082867447529928
aF1.8568767309188843
aF-0.2045534292804163
aI1
aa(lp493
F-0.8701260725604456
aF-1.6352785269366663
aF-2.229621235524313
aF-1.0828316847430628
aF1.856900691986084
aF-0.2458565870868128
aI1
aa(lp494
F-0.8664968649493616
aF-1.6352904478656214
aF-2.2295973936664026
aF-1.0828912893878382
aF1.8569246530532837
aF-0.28486854234804326
aI1
aa(lp495
F-0.863201920186178
aF-1.6353142897235315
aF-2.2295973936664026
aF-1.082987133656637
aF1.8569486141204834
aF-0.3242748419391077
aI1
aa(lp496
F-0.8628786245929163
aF-1.6353386084186
aF-2.2295616308795374
aF-1.0829513708697718
aF1.8570444583892822
aF-0.348180119191305
aI1
aa(lp497
F-0.8629267851458948
aF-1.63536245027651
aF-2.229501549397604
aF-1.0829513708697718
aF1.8569844961166382
aF-0.36157113710512334
aI1
aa(lp498
F-0.8629143873797815
aF-1.6354106108294886
aF-2.2294657866107386
aF-1.0829513708697718
aF1.8570564985275269
aF-0.3627818266498011
aI1
aa(lp499
F-0.862950627003805
aF-1.6355422178851526
aF-2.2295616308795374
aF-1.0831549803363245
aF1.8570204973220825
aF-0.3628175894366663
aI1
aa(lp500
F-0.8630459944354456
aF-1.6354940573321741
aF-2.2295735518084925
aF-1.0831549803363245
aF1.8569844961166382
aF-0.3628175894366663
aI1
aa(lp501
F-0.8629863897906702
aF-1.6355302969561976
aF-2.2295854727374476
aF-1.0831192175494593
aF1.8570204973220825
aF-0.3628295103656214
aI1
aa(lp502
F-0.8629744688617151
aF-1.635470215474264
aF-2.229537312184469
aF-1.083083454762594
aF1.8570324182510376
aF-0.36280566850771123
aI1
aa(lp503
F-0.8629625479327601
aF-1.6354463736163538
aF-2.2295735518084925
aF-1.0831311384784144
aF1.8570444583892822
aF-0.36280566850771123
aI1
aa(lp504
F-0.8629267851458948
aF-1.6354225317584437
aF-2.2296927610980433
aF-1.0831311384784144
aF1.857008457183838
aF-0.36280566850771123
aI1
aa(lp505
F-0.8628667036639612
aF-1.6353743712054651
aF-2.229656998311178
aF-1.0829513708697718
aF1.8570324182510376
aF-0.36280566850771123
aI1
aa(lp506
F-0.862279240285055
aF-1.6351588408099573
aF-2.229645077382223
aF-1.0826638380633753
aF1.857008457183838
aF-0.36284190813173467
aI1
aa(lp507
F-0.8606622854815882
aF-1.634798828755514
aF-2.2297290007220667
aF-1.0825799147235315
aF1.856972575187683
aF-0.3628175894366663
aI1
aa(lp508
F-0.8575118223773401
aF-1.6340439955340784
aF-2.2297290007220667
aF-1.0825918356524866
aF1.8569486141204834
aF-0.3628295103656214
aI1
aa(lp509
F-0.8521087805377405
aF-1.6325696150409144
aF-2.229740921651022
aF-1.0822323004352015
aF1.8569605350494385
aF-0.3628657499896448
aI1
aa(lp510
F-0.8450163046466272
aF-1.6299689451800745
aF-2.2297290007220667
aF-1.0813091436969202
aF1.856912612915039
aF-0.36285382906068975
aI1
aa(lp511
F-0.8377803007708948
aF-1.6265290419207972
aF-2.2296813170062464
aF-1.0787432829486292
aF1.8568767309188843
aF-0.36284190813173467
aI1
aa(lp512
F-0.8302925268756312
aF-1.622202221547262
aF-2.2296813170062464
aF-1.0735886732684534
aF1.8568886518478394
aF-0.36285382906068975
aI1
aa(lp513
F-0.8210437933551233
aF-1.6167128721820276
aF-2.229776684437887
aF-1.0632184187518519
aF1.856900691986084
aF-0.36285382906068975
aI1
aa(lp514
F-0.8133638540851038
aF-1.6114028135882776
aF-2.230220142995016
aF-1.0536158720599573
aF1.856900691986084
aF-0.3628295103656214
aI1
aa(lp515
F-0.8065708319293421
aF-1.6051343123065394
aF-2.231225315724508
aF-1.045607868825094
aF1.8568886518478394
aF-0.3628295103656214
aI1
aa(lp516
F-0.7994182745562952
aF-1.5966008345233362
aF-2.2330687681781214
aF-1.0417235533343714
aF1.856912612915039
aF-0.362889591847555
aI1
aa(lp517
F-0.794433895741598
aF-1.5890381971942347
aF-2.2350438276873987
aF-1.0417116324054163
aF1.8568767309188843
aF-0.3628295103656214
aI1
aa(lp518
F-0.7901199499713343
aF-1.5815113226519983
aF-2.238622490559713
aF-1.0416877905475062
aF1.8568531274795532
aF-0.3628175894366663
aI1
aa(lp519
F-0.7879036108600062
aF-1.5737689177142542
aF-2.2442601362811487
aF-1.0416396299945276
aF1.8568646907806396
aF-0.3628657499896448
aI1
aa(lp520
F-0.7870648542987269
aF-1.5644081274615687
aF-2.25311786333193
aF-1.0415318647967737
aF1.8567811250686646
aF-0.362889591847555
aI1
aa(lp521
F-0.7870648542987269
aF-1.5565341154681605
aF-2.2608020941363733
aF-1.040908161793844
aF1.8567931652069092
aF-0.36291343370546514
aI1
aa(lp522
F-0.7870052496539515
aF-1.549006764088766
aF-2.2666552702533167
aF-1.039565388356344
aF1.8568410873413086
aF-0.3628776709185999
aI1
aa(lp523
F-0.7869213263141077
aF-1.540126148854391
aF-2.272268597279684
aF-1.036736313496725
aF1.8568171262741089
aF-0.3628776709185999
aI1
aa(lp524
F-0.7869213263141077
aF-1.5326717535602015
aF-2.2766249815570276
aF-1.0349744001971644
aF1.8568052053451538
aF-0.3628657499896448
aI1
aa(lp525
F-0.7869213263141077
aF-1.525048557912008
aF-2.2827656904803675
aF-1.0331156889544886
aF1.8568052053451538
aF-0.362889591847555
aI1
aa(lp526
F-0.786933724080221
aF-1.519332234059469
aF-2.2878883520709437
aF-1.0324443022357386
aF1.8568531274795532
aF-0.36284190813173467
aI1
aa(lp527
F-0.786957089100973
aF-1.5151494185077112
aF-2.291347328816549
aF-1.032600227986471
aF1.8568646907806396
aF-0.3628776709185999
aI1
aa(lp528
F-0.7870052496539515
aF-1.5135911146747034
aF-2.293022934590475
aF-1.0329597632037562
aF1.856972575187683
aF-0.3628175894366663
aI1
aa(lp529
F-0.7870171705829065
aF-1.5138910452472132
aF-2.293142382298605
aF-1.0333078543292444
aF1.856972575187683
aF-0.3628295103656214
aI1
aa(lp530
F-0.7870410124408167
aF-1.513879124318258
aF-2.293142382298605
aF-1.0333078543292444
aF1.8569605350494385
aF-0.36284190813173467
aI1
aa(lp531
F-0.7870290915118616
aF-1.513879124318258
aF-2.29315430322756
aF-1.0333197752581995
aF1.856972575187683
aF-0.3628295103656214
aI1
aa(lp532
F-0.7870290915118616
aF-1.5138667265521448
aF-2.293166462575094
aF-1.0334275404559534
aF1.856972575187683
aF-0.36285382906068975
aI1
aa(lp533
F-0.7870171705829065
aF-1.513879124318258
aF-2.293142382298605
aF-1.0334513823138636
aF1.8569844961166382
aF-0.36284190813173467
aI1
aa(lp534
F-0.7870052496539515
aF-1.5139268080340784
aF-2.2932143847094935
aF-1.033823315297262
aF1.8571044206619263
aF-0.36284190813173467
aI1
aa(lp535
F-0.7870410124408167
aF-1.5139029661761683
aF-2.2933221499072474
aF-1.034290615712301
aF1.8571163415908813
aF-0.36284190813173467
aI1
aa(lp536
F-0.7870052496539515
aF-1.513879124318258
aF-2.293657366429464
aF-1.0352380911456507
aF1.8571882247924805
aF-0.362889591847555
aI1
aa(lp537
F-0.7869928518878382
aF-1.5138071219073694
aF-2.293765131627218
aF-1.0352862516986292
aF1.8571044206619263
aF-0.36297351518739873
aI1
aa(lp538
F-0.7868855635272425
aF-1.5138071219073694
aF-2.2937291304217737
aF-1.0349023977862757
aF1.8571044206619263
aF-0.36317760149110967
aI1
aa(lp539
F-0.7868617216693323
aF-1.5138071219073694
aF-2.293741289769308
aF-1.0346625486956995
aF1.8570804595947266
aF-0.36413699785341436
aI1
aa(lp540
F-0.7868016401873987
aF-1.513758961354391
aF-2.293885056172506
aF-1.034710709248678
aF1.8570564985275269
aF-0.36649781862367803
aI1
aa(lp541
F-0.7867296377765101
aF-1.513543430958883
aF-2.2938969771014612
aF-1.0345786253558558
aF1.856972575187683
aF-0.37005883852113897
aI1
aa(lp542
F-0.7862384955035608
aF-1.513531510029928
aF-2.293873135243551
aF-1.033619228993551
aF1.8569365739822388
aF-0.3761962095843714
aI1
aa(lp543
F-0.7850402037249964
aF-1.5134237448321741
aF-2.2939682642566126
aF-1.0334513823138636
aF1.8568886518478394
aF-0.3843124548541468
aI1
aa(lp544
F-0.7825000921832483
aF-1.5132916609393519
aF-2.2939801851855677
aF-1.0334513823138636
aF1.8568646907806396
aF-0.3959763685809534
aI1
aa(lp545
F-0.778078858052389
aF-1.5132558981524866
aF-2.294148031865255
aF-1.033487621937887
aF1.8567931652069092
aF-0.41166860262026006
aI1
aa(lp546
F-0.7751191298114222
aF-1.5132439772235315
aF-2.2944112459765833
aF-1.0335114637957972
aF1.8567692041397095
aF-0.42391997972597295
aI1
aa(lp547
F-0.7730701605426233
aF-1.5132558981524866
aF-2.294973675404684
aF-1.033499542866842
aF1.856182336807251
aF-0.43443328539003545
aI1
aa(lp548
F-0.7710335890399378
aF-1.513195816670553
aF-2.295703951512472
aF-1.0335114637957972
aF1.8545902967453003
aF-0.4408944288836878
aI1
aa(lp549
F-0.7682059446917933
aF-1.5132201353656214
aF-2.297523323689596
aF-1.0335114637957972
aF1.8520275354385376
aF-0.44221336046327764
aI1
aa(lp550
F-0.7657855192767542
aF-1.5132201353656214
aF-2.300695006047384
aF-1.0334637800799769
aF1.849405288696289
aF-0.44221336046327764
aI1
aa(lp551
F-0.7641194502459925
aF-1.5131238142596644
aF-2.3063445726977747
aF-1.033356014882223
aF1.8469387292861938
aF-0.4422972838031214
aI1
aa(lp552
F-0.7631014029132288
aF-1.512848202382223
aF-2.3155723253833216
aF-1.031461540852682
aF1.843573808670044
aF-0.4422853628741663
aI1
aa(lp553
F-0.7627537886248987
aF-1.5123565832721155
aF-2.3230767885791224
aF-1.0270980040179651
aF1.8404126167297363
aF-0.4423330465899866
aI1
aa(lp554
F-0.7627776304828089
aF-1.5119016806231897
aF-2.329120461140768
aF-1.0173514525042933
aF1.8375389575958252
aF-0.44236880937685186
aI1
aa(lp555
F-0.7628138701068323
aF-1.5119255224811
aF-2.3313708941089075
aF-1.0024498144732874
aF1.8357069492340088
aF-0.44236880937685186
aI1
aa(lp556
F-0.762789551411764
aF-1.5119612852679651
aF-2.331585947667257
aF-0.9862058798419397
aF1.8353837728500366
aF-0.4423330465899866
aI1
aa(lp557
F-0.7628977934466761
aF-1.5120695273028772
aF-2.331585947667257
aF-0.9723838011371058
aF1.8354556560516357
aF-0.4422252813922327
aI1
aa(lp558
F-0.7628496328936976
aF-1.5120933691607874
aF-2.331585947667257
aF-0.9703100363360804
aF1.8354675769805908
aF-0.4421890417682093
aI1
aa(lp559
F-0.7629335562335413
aF-1.5121529738055628
aF-2.331538263951437
aF-0.970370117818014
aF1.8355751037597656
aF-0.4421647230731409
aI1
aa(lp560
F-0.7629454771624964
aF-1.5121529738055628
aF-2.3315025011645716
aF-0.9704659620868128
aF1.8355990648269653
aF-0.4421890417682093
aI1
aa(lp561
F-0.7629335562335413
aF-1.5121529738055628
aF-2.3315263430224817
aF-0.9703457991229456
aF1.8355870246887207
aF-0.44220143953432256
aI1
aa(lp562
F-0.7629335562335413
aF-1.5121172110186976
aF-2.3315144220935267
aF-0.9704297224627894
aF1.835623025894165
aF-0.4421647230731409
aI1
aa(lp563
F-0.7629097143756312
aF-1.512141529713766
aF-2.3315144220935267
aF-0.9704659620868128
aF1.8356709480285645
aF-0.4421647230731409
aI1
aa(lp564
F-0.7629216353045862
aF-1.5120814482318323
aF-2.331562344227926
aF-0.970489803944723
aF1.8357309103012085
aF-0.4421289602862757
aI1
aa(lp565
F-0.7628496328936976
aF-1.5121052900897425
aF-2.3315263430224817
aF-0.9705618063556116
aF1.836030125617981
aF-0.44220143953432256
aI1
aa(lp566
F-0.7628138701068323
aF-1.5121172110186976
aF-2.331454340611593
aF-0.9704540411578577
aF1.8363772630691528
aF-0.4422252813922327
aI1
aa(lp567
F-0.7628257910357874
aF-1.5120814482318323
aF-2.3307605425464075
aF-0.9700701872455042
aF1.836257815361023
aF-0.4424169699298304
aI1
aa(lp568
F-0.7628019491778772
aF-1.5120814482318323
aF-2.3293121496783655
aF-0.9680078665362757
aF1.8361738920211792
aF-0.44311219850649053
aI1
aa(lp569
F-0.7627418676959437
aF-1.5120933691607874
aF-2.3277085463153284
aF-0.9637764135943812
aF1.8362098932266235
aF-0.44477874437441045
aI1
aa(lp570
F-0.7626817862140101
aF-1.5121172110186976
aF-2.3275049368487757
aF-0.9596760908709925
aF1.8361380100250244
aF-0.4478114287005823
aI1
aa(lp571
F-0.7625506559955042
aF-1.5121052900897425
aF-2.3274453322040003
aF-0.9573624769793909
aF1.836090087890625
aF-0.45271426836122686
aI1
aa(lp572
F-0.7622984091388147
aF-1.5120695273028772
aF-2.32742149034609
aF-0.9541261831866663
aF1.8359462022781372
aF-0.46273547807802373
aI1
aa(lp573
F-0.7614477316485804
aF-1.5120695273028772
aF-2.3274689356433313
aF-0.9487913290606897
aF1.835838794708252
aF-0.4821427504168909
aI1
aa(lp574
F-0.7597101370440882
aF-1.5120814482318323
aF-2.3274930159198206
aF-0.9409149328814905
aF1.835850715637207
aF-0.5062487761126917
aI1
aa(lp575
F-0.7564752737628382
aF-1.5120933691607874
aF-2.3275049368487757
aF-0.9299939314471644
aF1.8358627557754517
aF-0.5366948286639612
aI1
aa(lp576
F-0.7519457975970667
aF-1.5120695273028772
aF-2.327780548726217
aF-0.9147217909442347
aF1.8358267545700073
aF-0.5782044569598597
aI1
aa(lp577
F-0.7491062323199671
aF-1.5120814482318323
aF-2.3278756777392786
aF-0.9019425551043909
aF1.8355032205581665
aF-0.6156485716449183
aI1
aa(lp578
F-0.7473447958575647
aF-1.5120933691607874
aF-2.3281753698932093
aF-0.8916690985309046
aF1.8341381549835205
aF-0.6513059774981897
aI1
aa(lp579
F-0.7463138739215296
aF-1.5120814482318323
aF-2.3285463492022913
aF-0.8860586325274866
aF1.832425832748413
aF-0.6823361555682581
aI1
aa(lp580
F-0.7461102644549769
aF-1.5120933691607874
aF-2.3293121496783655
aF-0.885878864918844
aF1.8299593925476074
aF-0.7097342650042933
aI1
aa(lp581
F-0.7460983435260218
aF-1.5121291319476526
aF-2.330580774937765
aF-0.8860467115985315
aF1.829695701599121
aF-0.7223900000201624
aI1
aa(lp582
F-0.7460745016681116
aF-1.5121052900897425
aF-2.3314064184771937
aF-0.8861907164203089
aF1.8298394680023193
aF-0.7271001974688929
aI1
aa(lp583
F-0.7461102644549769
aF-1.512141529713766
aF-2.331693712865011
aF-0.8862865606891077
aF1.8298394680023193
aF-0.7269447485553187
aI1
aa(lp584
F-0.7460983435260218
aF-1.512141529713766
aF-2.3315263430224817
aF-0.8861787954913538
aF1.829851508140564
aF-0.7269685904132288
aI1
aa(lp585
F-0.7460625807391565
aF-1.512141529713766
aF-2.3312750498401087
aF-0.8861306349383753
aF1.8298754692077637
aF-0.726992432271139
aI1
aa(lp586
F-0.7460864225970667
aF-1.5121291319476526
aF-2.331322971974508
aF-0.886202637349264
aF1.8298875093460083
aF-0.726992432271139
aI1
aa(lp587
F-0.7460745016681116
aF-1.512165371571676
aF-2.3313589731799524
aF-0.8862503210650843
aF1.829911470413208
aF-0.7269805113421839
aI1
aa(lp588
F-0.7460745016681116
aF-1.5121291319476526
aF-2.331299130116598
aF-0.8861668745623987
aF1.829911470413208
aF-0.7269685904132288
aI1
aa(lp589
F-0.7460263411151331
aF-1.5121052900897425
aF-2.3313944975482386
aF-0.886214558278219
aF1.8299473524093628
aF-0.726992432271139
aI1
aa(lp590
F-0.7459667364703577
aF-1.5121172110186976
aF-2.3313589731799524
aF-0.8861544767962855
aF1.830042839050293
aF-0.7269566694842737
aI1
aa(lp591
F-0.7459424177752894
aF-1.5121052900897425
aF-2.3312390486346644
aF-0.8860347906695765
aF1.8300073146820068
aF-0.726992432271139
aI1
aa(lp592
F-0.745882813130514
aF-1.5121052900897425
aF-2.33105975786318
aF-0.8850515524493616
aF1.8299473524093628
aF-0.727004353200094
aI1
aa(lp593
F-0.7457869688617151
aF-1.5120695273028772
aF-2.330820147191183
aF-0.8830140272723597
aF1.8299713134765625
aF-0.727004353200094
aI1
aa(lp594
F-0.7453196684466761
aF-1.5120814482318323
aF-2.330820147191183
aF-0.879669491444723
aF1.829923391342163
aF-0.7270525137530726
aI1
aa(lp595
F-0.7437499205218714
aF-1.5120695273028772
aF-2.330820147191183
aF-0.8726084868060511
aF1.829851508140564
aF-0.7270644346820276
aI1
aa(lp596
F-0.7421682516681116
aF-1.5120452086078089
aF-2.330855909978048
aF-0.858978573475973
aF1.8298155069351196
aF-0.7270644346820276
aI1
aa(lp597
F-0.7407658735858362
aF-1.5120332876788538
aF-2.330927912388937
aF-0.8338406721698206
aF1.8297436237335205
aF-0.7270525137530726
aI1
aa(lp598
F-0.7403586546527308
aF-1.5120576063739222
aF-2.3310118357287806
aF-0.8057425657855433
aF1.8296717405319214
aF-0.7270162741290491
aI1
aa(lp599
F-0.7403705755816858
aF-1.5120695273028772
aF-2.331334892903463
aF-0.7739394346820276
aF1.8293125629425049
aF-0.7270525137530726
aI1
aa(lp600
F-0.7403824965106409
aF-1.5120695273028772
aF-2.3322086969958704
aF-0.7382777372943323
aF1.8291571140289307
aF-0.7270405928241175
aI1
aa(lp601
F-0.740394417439596
aF-1.5121291319476526
aF-2.3338242212878626
aF-0.7140877882586878
aF1.8291807174682617
aF-0.727004353200094
aI1
aa(lp602
F-0.7404068152057093
aF-1.512141529713766
aF-2.3363495508777063
aF-0.7012255827533167
aF1.82927668094635
aF-0.7270286718951624
aI1
aa(lp603
F-0.7404068152057093
aF-1.512165371571676
aF-2.340060297642843
aF-0.7008302847491663
aF1.8293246030807495
aF-0.7270162741290491
aI1
aa(lp604
F-0.7404425779925745
aF-1.5122368971454065
aF-2.344559971486227
aF-0.701477352772848
aF1.8293006420135498
aF-0.7269805113421839
aI1
aa(lp605
F-0.7404306570636194
aF-1.5122368971454065
aF-2.34727651277651
aF-0.7014535109149378
aF1.8293125629425049
aF-0.7269685904132288
aI1
aa(lp606
F-0.740394417439596
aF-1.5122011343585413
aF-2.347265068684713
aF-0.7013934294330042
aF1.829372525215149
aF-0.726992432271139
aI1
aa(lp607
F-0.7404187361346644
aF-1.5122244993792933
aF-2.3473005930529993
aF-0.7014654318438929
aF1.8293604850769043
aF-0.726992432271139
aI1
aa(lp608
F-0.740394417439596
aF-1.5122368971454065
aF-2.3474443594561976
aF-0.7015131155597132
aF1.829563856124878
aF-0.7270162741290491
aI1
aa(lp609
F-0.7403586546527308
aF-1.5122244993792933
aF-2.348605457936422
aF-0.7026284376727503
aF1.8296117782592773
aF-0.727004353200094
aI1
aa(lp610
F-0.7404306570636194
aF-1.5122244993792933
aF-2.3525670210467737
aF-0.7052415052997034
aF1.8295283317565918
aF-0.7269085089312952
aI1
aa(lp611
F-0.7404544989215296
aF-1.5122244993792933
aF-2.360429588948385
aF-0.7076628843890589
aF1.8294084072113037
aF-0.7266929785357874
aI1
aa(lp612
F-0.7404425779925745
aF-1.5122130552874964
aF-2.37416917482485
aF-0.7085259596454065
aF1.829216718673706
aF-0.7266691366778772
aI1
aa(lp613
F-0.7404425779925745
aF-1.5122130552874964
aF-2.3876455465899866
aF-0.7084301153766077
aF1.8290852308273315
aF-0.7267048994647425
aI1
aa(lp614
F-0.7404544989215296
aF-1.5121529738055628
aF-2.3990986982928675
aF-0.7081783453570765
aF1.8290612697601318
aF-0.7267287413226526
aI1
aa(lp615
F-0.7404783407794397
aF-1.512165371571676
aF-2.409414354954855
aF-0.7080467383014124
aF1.8291212320327759
aF-0.7267287413226526
aI1
aa(lp616
F-0.7404425779925745
aF-1.5121172110186976
aF-2.415518585835592
aF-0.7080825010882776
aF1.8291691541671753
aF-0.7267287413226526
aI1
aa(lp617
F-0.7404544989215296
aF-1.5121172110186976
aF-2.4201021830188196
aF-0.7080467383014124
aF1.8291212320327759
aF-0.7267048994647425
aI1
aa(lp618
F-0.7404783407794397
aF-1.5121291319476526
aF-2.4225791136371058
aF-0.7080944220172327
aF1.8291212320327759
aF-0.7266929785357874
aI1
aa(lp619
F-0.7404783407794397
aF-1.5121291319476526
aF-2.423716131840841
aF-0.7082021872149866
aF1.8290852308273315
aF-0.7266810576068323
aI1
aa(lp620
F-0.7404544989215296
aF-1.5121172110186976
aF-2.4258583227740687
aF-0.708465878163473
aF1.8290972709655762
aF-0.7266448179828089
aI1
aa(lp621
F-0.7405145804034632
aF-1.5120814482318323
aF-2.43064529100527
aF-0.708465878163473
aF1.8290373086929321
aF-0.7266448179828089
aI1
aa(lp622
F-0.7404783407794397
aF-1.5120814482318323
aF-2.4355760256396692
aF-0.7084420363055628
aF1.8290133476257324
aF-0.726656738911764
aI1
aa(lp623
F-0.7404902617083948
aF-1.5120695273028772
aF-2.4401236216174524
aF-0.7083700338946741
aF1.8289893865585327
aF-0.7266328970538538
aI1
aa(lp624
F-0.7405265013324183
aF-1.5120452086078089
aF-2.4436658064471644
aF-0.7083342711078089
aF1.8290014266967773
aF-0.7266328970538538
aI1
aa(lp625
F-0.7405145804034632
aF-1.5120332876788538
aF-2.4450181166278284
aF-0.7083223501788538
aF1.8290133476257324
aF-0.7265971342669886
aI1
aa(lp626
F-0.7405503431903284
aF-1.5120213667498987
aF-2.4450300375567835
aF-0.7083342711078089
aF1.8289533853530884
aF-0.726417366658346
aI1
aa(lp627
F-0.740610424672262
aF-1.5120094458209437
aF-2.444982115422384
aF-0.7082980314837855
aF1.828139305114746
aF-0.7263453642474573
aI1
aa(lp628
F-0.741065804158346
aF-1.5119975248919886
aF-2.4450181166278284
aF-0.7082741896258753
aF1.8250499963760376
aF-0.7261775175677698
aI1
aa(lp629
F-0.7416051069842737
aF-1.5119016806231897
aF-2.4449461142169397
aF-0.7080705801593226
aF1.8197335004806519
aF-0.7260215918170374
aI1
aa(lp630
F-0.7419760862933558
aF-1.511829678212301
aF-2.444958273564474
aF-0.7076032797442835
aF1.8081305027008057
aF-0.7260215918170374
aI1
aa(lp631
F-0.7422040144549769
aF-1.5117338339435022
aF-2.444970194493429
aF-0.7076628843890589
aF1.781260371208191
aF-0.7260215918170374
aI1
aa(lp632
F-0.7421205679522913
aF-1.511709992085592
aF-2.444958273564474
aF-0.7076752821551722
aF1.7448937892913818
aF-0.7260578314410608
aI1
aa(lp633
F-0.742108170186178
aF-1.5117576758014124
aF-2.4449101130114954
aF-0.7075913588153284
aF1.6993781328201294
aF-0.726081673298971
aI1
aa(lp634
F-0.7420242468463343
aF-1.5117457548724573
aF-2.4447670618640345
aF-0.7073152701007288
aF1.644185185432434
aF-0.7261055151568812
aI1
aa(lp635
F-0.7420004049884241
aF-1.5117819944964808
aF-2.444827143345968
aF-0.7073271910296839
aF1.6062113046646118
aF-0.7261055151568812
aI1
aa(lp636
F-0.7419403235064905
aF-1.5117576758014124
aF-2.444803063069479
aF-0.7073152701007288
aF1.5834217071533203
aF-0.7261298338519495
aI1
aa(lp637
F-0.7417123953448694
aF-1.5117338339435022
aF-2.444599453602926
aF-0.70721942583193
aF1.5812780857086182
aF-0.7261655966388147
aI1
aa(lp638
F-0.7411015669452112
aF-1.511698071156637
aF-2.4440727869616907
aF-0.7066801230060022
aF1.5906434059143066
aF-0.7261775175677698
aI1
aa(lp639
F-0.7403228918658655
aF-1.5117338339435022
aF-2.4429357687579554
aF-0.705301586781637
aF1.6079838275909424
aF-0.7262495199786585
aI1
aa(lp640
F-0.7395437399493616
aF-1.5117219130145472
aF-2.440817658101217
aF-0.7022207419024866
aF1.6342816352844238
aF-0.72620135942568
aI1
aa(lp641
F-0.7394359747516077
aF-1.5117219130145472
aF-2.4398964087115687
aF-0.7012017408954065
aF1.6564356088638306
aF-0.7261894384967249
aI1
aa(lp642
F-0.7394359747516077
aF-1.511709992085592
aF-2.440171543751852
aF-0.701369587575094
aF1.6770567893981934
aF-0.7262137571917933
aI1
aa(lp643
F-0.7394240538226526
aF-1.5116856733905237
aF-2.4401236216174524
aF-0.7014415899859827
aF1.699593424797058
aF-0.7261775175677698
aI1
aa(lp644
F-0.7394598166095179
aF-1.5116618315326136
aF-2.4401236216174524
aF-0.7013934294330042
aF1.71475350856781
aF-0.7261417547809046
aI1
aa(lp645
F-0.7394240538226526
aF-1.5116618315326136
aF-2.440326992665426
aF-0.701608959828512
aF1.722022294998169
aF-0.7261417547809046
aI1
aa(lp646
F-0.739471737538473
aF-1.5116618315326136
aF-2.440422836934225
aF-0.7016690413104456
aF1.7225852012634277
aF-0.7261417547809046
aI1
aa(lp647
F-0.7394955793963831
aF-1.5116737524615687
aF-2.44041091600527
aF-0.7015970388995569
aF1.722501277923584
aF-0.7261417547809046
aI1
aa(lp648
F-0.7395079771624964
aF-1.5117338339435022
aF-2.44041091600527
aF-0.7016213575946253
aF1.7225133180618286
aF-0.7262137571917933
aI1
aa(lp649
F-0.7395675818072718
aF-1.5117457548724573
aF-2.440422836934225
aF-0.7016332785235804
aF1.722501277923584
aF-0.7261775175677698
aI1
aa(lp650
F-0.7395198980914515
aF-1.511805836354391
aF-2.440434519444601
aF-0.7016451994525355
aF1.7225133180618286
aF-0.72620135942568
aI1
aa(lp651
F-0.7395437399493616
aF-1.5119016806231897
aF-2.4403989950763147
aF-0.7016690413104456
aF1.722489356994629
aF-0.7261655966388147
aI1
aa(lp652
F-0.7395795027362269
aF-1.5119255224811
aF-2.4403868357287806
aF-0.7016451994525355
aF1.7225252389907837
aF-0.72620135942568
aI1
aa(lp653
F-0.7395675818072718
aF-1.5119136015521448
aF-2.440434519444601
aF-0.7016571203814905
aF1.7225133180618286
aF-0.7261655966388147
aI1
aa(lp654
F-0.7395919005023401
aF-1.5119136015521448
aF-2.440422836934225
aF-0.7016332785235804
aF1.7225252389907837
aF-0.7261775175677698
aI1
aa(lp655
F-0.7395675818072718
aF-1.5118773619281214
aF-2.440434519444601
aF-0.7016332785235804
aF1.7225133180618286
aF-0.7261775175677698
aI1
aa(lp656
F-0.7395795027362269
aF-1.5119136015521448
aF-2.440434519444601
aF-0.7016571203814905
aF1.7225252389907837
aF-0.7261536757098597
aI1
aa(lp657
F-0.7395919005023401
aF-1.5119016806231897
aF-2.440422836934225
aF-0.7016213575946253
aF1.7225252389907837
aF-0.7261655966388147
aI1
aa(lp658
F-0.7396038214312952
aF-1.5119255224811
aF-2.440422836934225
aF-0.7016690413104456
aF1.722501277923584
aF-0.7261536757098597
aI1
aa(lp659
F-0.7395795027362269
aF-1.5119136015521448
aF-2.440422836934225
aF-0.7016332785235804
aF1.7225252389907837
aF-0.7261775175677698
aI1
aa(lp660
F-0.7395556608783167
aF-1.5118897596942347
aF-2.440434519444601
aF-0.7016451994525355
aF1.7225372791290283
aF-0.7261655966388147
aI1
aa(lp661
F-0.7395556608783167
aF-1.5119136015521448
aF-2.440434519444601
aF-0.7016451994525355
aF1.722489356994629
aF-0.7261775175677698
aI1
aa(lp662
F-0.7395795027362269
aF-1.5119016806231897
aF-2.440422836934225
aF-0.7016451994525355
aF1.722489356994629
aF-0.7261655966388147
aI1
aa(lp663
F-0.7396162191974085
aF-1.5118897596942347
aF-2.440422836934225
aF-0.7016213575946253
aF1.7225372791290283
aF-0.72620135942568
aI1
aa(lp664
F-0.7395919005023401
aF-1.5119136015521448
aF-2.440434519444601
aF-0.7016690413104456
aF1.7225252389907837
aF-0.7261536757098597
aI1
aa(lp665
F-0.7396162191974085
aF-1.5119255224811
aF-2.44041091600527
aF-0.7016213575946253
aF1.7225133180618286
aF-0.7261655966388147
aI1
aa(lp666
F-0.7395795027362269
aF-1.5119255224811
aF-2.44041091600527
aF-0.7016332785235804
aF1.7225372791290283
aF-0.7261655966388147
aI1
aa(lp667
F-0.7396162191974085
aF-1.5119255224811
aF-2.440446440373556
aF-0.7016213575946253
aF1.7225252389907837
aF-0.7261536757098597
aI1
aa(lp668
F-0.7396038214312952
aF-1.5119136015521448
aF-2.440422836934225
aF-0.7016213575946253
aF1.722489356994629
aF-0.7261894384967249
aI1
aa(lp669
F-0.7395795027362269
aF-1.5119016806231897
aF-2.440422836934225
aF-0.7016213575946253
aF1.7225133180618286
aF-0.7261775175677698
aI1
aa(lp670
F-0.7395795027362269
aF-1.5118897596942347
aF-2.44041091600527
aF-0.7016332785235804
aF1.7225133180618286
aF-0.7261894384967249
aI1
aa(lp671
F-0.7395795027362269
aF-1.5119136015521448
aF-2.440446440373556
aF-0.7016332785235804
aF1.7225252389907837
aF-0.7261536757098597
aI1
aa(lp672
F-0.7395919005023401
aF-1.5119136015521448
aF-2.4403989950763147
aF-0.7016332785235804
aF1.7225372791290283
aF-0.7261655966388147
aI1
aa(lp673
F-0.7395437399493616
aF-1.5119136015521448
aF-2.440422836934225
aF-0.7016332785235804
aF1.7225133180618286
aF-0.7261536757098597
aI1
aa(lp674
F-0.7396162191974085
aF-1.511937443410055
aF-2.440446440373556
aF-0.7016213575946253
aF1.7225372791290283
aF-0.7261417547809046
aI1
aa(lp675
F-0.7396038214312952
aF-1.5119255224811
aF-2.440422836934225
aF-0.7016690413104456
aF1.722501277923584
aF-0.7261655966388147
aI1
aa(lp676
F-0.7396162191974085
aF-1.5119136015521448
aF-2.440434519444601
aF-0.7016451994525355
aF1.7225133180618286
aF-0.7261417547809046
aI1
aa(lp677
F-0.7395795027362269
aF-1.5119255224811
aF-2.440422836934225
aF-0.7016690413104456
aF1.7225133180618286
aF-0.7261655966388147
aI1
aa(lp678
F-0.7395919005023401
aF-1.5119255224811
aF-2.440446440373556
aF-0.7016571203814905
aF1.7225252389907837
aF-0.7261536757098597
aI1
aa(lp679
F-0.7396400610553187
aF-1.5119255224811
aF-2.440434519444601
aF-0.7016690413104456
aF1.722489356994629
aF-0.7261775175677698
aI1
aa(lp680
F-0.7395919005023401
aF-1.5119255224811
aF-2.440422836934225
aF-0.7016451994525355
aF1.722501277923584
aF-0.7261536757098597
aI1
aa(lp681
F-0.7396162191974085
aF-1.5119255224811
aF-2.440422836934225
aF-0.7016451994525355
aF1.7225492000579834
aF-0.7261775175677698
aI2
aa(lp682
F-0.7396038214312952
aF-1.5119016806231897
aF-2.440434519444601
aF-0.7016213575946253
aF1.722501277923584
aF-0.7261417547809046
aI2
aa(lp683
F-0.7396038214312952
aF-1.511937443410055
aF-2.440422836934225
aF-0.7016332785235804
aF1.7225252389907837
aF-0.7261894384967249
aI2
aa(lp684
F-0.7395919005023401
aF-1.5118897596942347
aF-2.440446440373556
aF-0.7016571203814905
aF1.7225133180618286
aF-0.7261536757098597
aI2
aa(lp685
F-0.7396038214312952
aF-1.5118897596942347
aF-2.440446440373556
aF-0.7016213575946253
aF1.7225133180618286
aF-0.7261894384967249
aI2
aa(lp686
F-0.7396162191974085
aF-1.5119136015521448
aF-2.440434519444601
aF-0.7016571203814905
aF1.7225133180618286
aF-0.72620135942568
aI2
aa(lp687
F-0.7396038214312952
aF-1.5118897596942347
aF-2.440434519444601
aF-0.7016451994525355
aF1.7225133180618286
aF-0.7261417547809046
aI2
aa(lp688
F-0.7396162191974085
aF-1.5119136015521448
aF-2.440434519444601
aF-0.7016332785235804
aF1.722561240196228
aF-0.7261775175677698
aI2
aa(lp689
F-0.7396038214312952
aF-1.5119016806231897
aF-2.440446440373556
aF-0.7016451994525355
aF1.7225372791290283
aF-0.7261536757098597
aI2
aa(lp690
F-0.7396038214312952
aF-1.5119016806231897
aF-2.4403989950763147
aF-0.7016451994525355
aF1.722501277923584
aF-0.7261775175677698
aI2
aa(lp691
F-0.7395919005023401
aF-1.5119255224811
aF-2.440422836934225
aF-0.7016213575946253
aF1.7225492000579834
aF-0.7261536757098597
aI2
aa(lp692
F-0.7395795027362269
aF-1.5119136015521448
aF-2.440434519444601
aF-0.7016332785235804
aF1.7225133180618286
aF-0.7261536757098597
aI2
aa(lp693
F-0.7395919005023401
aF-1.5119255224811
aF-2.440422836934225
aF-0.7016451994525355
aF1.7225252389907837
aF-0.7261417547809046
aI2
aa(lp694
F-0.7395919005023401
aF-1.5119255224811
aF-2.440446440373556
aF-0.7016332785235804
aF1.7225372791290283
aF-0.7261894384967249
aI2
aa(lp695
F-0.7395919005023401
aF-1.5119612852679651
aF-2.440446440373556
aF-0.7016571203814905
aF1.7225133180618286
aF-0.7261417547809046
aI2
aa(lp696
F-0.7395795027362269
aF-1.5119136015521448
aF-2.440446440373556
aF-0.7016571203814905
aF1.7225492000579834
aF-0.7261298338519495
aI2
aa(lp697
F-0.7396038214312952
aF-1.5119136015521448
aF-2.440434519444601
aF-0.7016571203814905
aF1.722501277923584
aF-0.7261417547809046
aI2
aa(lp698
F-0.7396038214312952
aF-1.5118897596942347
aF-2.440434519444601
aF-0.7016213575946253
aF1.7225133180618286
aF-0.7261775175677698
aI2
aa(lp699
F-0.7396038214312952
aF-1.511937443410055
aF-2.440422836934225
aF-0.7016690413104456
aF1.7225133180618286
aF-0.7261775175677698
aI2
aa(lp700
F-0.7395556608783167
aF-1.5119136015521448
aF-2.440434519444601
aF-0.7016213575946253
aF1.7225492000579834
aF-0.7261536757098597
aI2
aa(lp701
F-0.7396162191974085
aF-1.5119255224811
aF-2.44041091600527
aF-0.7016571203814905
aF1.722489356994629
aF-0.72620135942568
aI2
aa(lp702
F-0.7395795027362269
aF-1.5119016806231897
aF-2.440446440373556
aF-0.7016332785235804
aF1.7225252389907837
aF-0.7261894384967249
aI2
aa(lp703
F-0.7396038214312952
aF-1.5118773619281214
aF-2.440422836934225
aF-0.7016690413104456
aF1.7225372791290283
aF-0.7261655966388147
aI2
aa(lp704
F-0.7395795027362269
aF-1.5119016806231897
aF-2.44041091600527
aF-0.7016451994525355
aF1.722489356994629
aF-0.7261655966388147
aI2
aa(lp705
F-0.7396038214312952
aF-1.5119136015521448
aF-2.440422836934225
aF-0.7016571203814905
aF1.722501277923584
aF-0.7261655966388147
aI2
aa(lp706
F-0.7395795027362269
aF-1.5119255224811
aF-2.440458361302511
aF-0.7016571203814905
aF1.7225372791290283
aF-0.7261775175677698
aI2
aa(lp707
F-0.7395795027362269
aF-1.511937443410055
aF-2.440458361302511
aF-0.7015970388995569
aF1.7225372791290283
aF-0.7261775175677698
aI2
aa(lp708
F-0.7395795027362269
aF-1.5119136015521448
aF-2.440446440373556
aF-0.7016451994525355
aF1.7224773168563843
aF-0.7261894384967249
aI2
aa(lp709
F-0.7395919005023401
aF-1.511937443410055
aF-2.44041091600527
aF-0.7016213575946253
aF1.722501277923584
aF-0.7261536757098597
aI2
aa(lp710
F-0.7395919005023401
aF-1.511937443410055
aF-2.440434519444601
aF-0.7016332785235804
aF1.7225252389907837
aF-0.7261655966388147
aI2
aa(lp711
F-0.7395919005023401
aF-1.5119136015521448
aF-2.440434519444601
aF-0.7016690413104456
aF1.7225133180618286
aF-0.7261775175677698
aI2
aa(lp712
F-0.7396162191974085
aF-1.5119016806231897
aF-2.440422836934225
aF-0.7016332785235804
aF1.7225133180618286
aF-0.7261655966388147
aI2
aa(lp713
F-0.7395675818072718
aF-1.5119255224811
aF-2.440422836934225
aF-0.7016332785235804
aF1.7225133180618286
aF-0.7261655966388147
aI2
aa(lp714
F-0.7395795027362269
aF-1.5119016806231897
aF-2.4404943625079554
aF-0.7016928831683558
aF1.7225372791290283
aF-0.7261536757098597
aI2
aa(lp715
F-0.7396038214312952
aF-1.5118897596942347
aF-2.440817658101217
aF-0.7019808928119105
aF1.722501277923584
aF-0.7261417547809046
aI2
aa(lp716
F-0.7395919005023401
aF-1.5119255224811
aF-2.440960947667257
aF-0.7019932905780237
aF1.7225252389907837
aF-0.7261536757098597
aI2
aa(lp717
F-0.7396519819842737
aF-1.5118773619281214
aF-2.4409969488727015
aF-0.7019565741168421
aF1.7225133180618286
aF-0.7261775175677698
aI2
aa(lp718
F-0.7397115866290491
aF-1.5118535200702112
aF-2.44153601328005
aF-0.7022808233844202
aF1.7224773168563843
aF-0.7261417547809046
aI2
aa(lp719
F-0.7398431936847132
aF-1.5118773619281214
aF-2.442864243184225
aF-0.7026522795306605
aF1.7223814725875854
aF-0.7261655966388147
aI2
aa(lp720
F-0.7399991194354456
aF-1.511817757283346
aF-2.444467608128683
aF-0.7031672636615198
aF1.722333550453186
aF-0.7261417547809046
aI2
aa(lp721
F-0.7400711218463343
aF-1.5118415991412562
aF-2.4453893343554896
aF-0.7033475081073206
aF1.7223095893859863
aF-0.72620135942568
aI2
aa(lp722
F-0.7401669661151331
aF-1.5118415991412562
aF-2.445784393941061
aF-0.7035153547870081
aF1.7221777439117432
aF-0.7261655966388147
aI2
aa(lp723
F-0.7405865828143519
aF-1.511817757283346
aF-2.446202580128805
aF-0.7038748900042933
aF1.7214953899383545
aF-0.72620135942568
aI2
aa(lp724
F-0.7414372603045862
aF-1.5118535200702112
aF-2.4471004644977015
aF-0.7046421209918421
aF1.720717191696167
aF-0.72620135942568
aI2
aa(lp725
F-0.7423356215106409
aF-1.5117934385882776
aF-2.448979202901022
aF-0.7052295843707483
aF1.7201542854309082
aF-0.7262137571917933
aI2
aa(lp726
F-0.7429469267474573
aF-1.5117819944964808
aF-2.4523304144488733
aF-0.7069075743304651
aF1.7201542854309082
aF-0.72620135942568
aI2
aa(lp727
F-0.7429469267474573
aF-1.5116737524615687
aF-2.456327501927511
aF-0.7081187407123011
aF1.7201542854309082
aF-0.7262137571917933
aI2
aa(lp728
F-0.7429826895343226
aF-1.5116141478167933
aF-2.4596901575671595
aF-0.7080825010882776
aF1.7201303243637085
aF-0.7261775175677698
aI2
aa(lp729
F-0.7430666128741663
aF-1.511266056691305
aF-2.461581055318014
aF-0.7080705801593226
aF1.720022439956665
aF-0.7261775175677698
aI2
aa(lp730
F-0.7432463804828089
aF-1.5107386747943323
aF-2.4626346270190638
aF-0.7080705801593226
aF1.7191963195800781
aF-0.7261655966388147
aI2
aa(lp731
F-0.7437618414508265
aF-1.5099123159991663
aF-2.4643457571612757
aF-0.7081063429461878
aF1.7166575193405151
aF-0.7261775175677698
aI2
aa(lp732
F-0.7449477354632776
aF-1.5083897749530237
aF-2.4682708422290247
aF-0.7080705801593226
aF1.7105743885040283
aF-0.7261655966388147
aI2
aa(lp733
F-0.7460506598102015
aF-1.5066278616534632
aF-2.471394125615255
aF-0.7081063429461878
aF1.699965000152588
aF-0.7261775175677698
aI2
aa(lp734
F-0.7467454115497034
aF-1.5040515104876917
aF-2.4724589029895228
aF-0.708010498677389
aF1.6870197057724
aF-0.7261894384967249
aI2
aa(lp735
F-0.7469852606402796
aF-1.4996288458453577
aF-2.472100083027975
aF-0.7077468077289026
aF1.6729974746704102
aF-0.7261655966388147
aI2
aa(lp736
F-0.7469971815692347
aF-1.4954703489886683
aF-2.4721840063678187
aF-0.7078426519977015
aF1.6621356010437012
aF-0.7262137571917933
aI2
aa(lp737
F-0.7469733397113245
aF-1.491251293812887
aF-2.472231928502218
aF-0.7078545729266565
aF1.6533459424972534
aF-0.7262256781207483
aI2
aa(lp738
F-0.7469733397113245
aF-1.486110035573141
aF-2.4721840063678187
aF-0.70789081255068
aF1.6498255729675293
aF-0.72620135942568
aI2
aa(lp739
F-0.7469733397113245
aF-1.4816516081439417
aF-2.472196165715353
aF-0.7079027334796351
aF1.649849534034729
aF-0.7262495199786585
aI2
aa(lp740
F-0.7469733397113245
aF-1.4763663450824183
aF-2.472231928502218
aF-0.7079027334796351
aF1.6498615741729736
aF-0.7262495199786585
aI2
aa(lp741
F-0.7469490210162562
aF-1.4701102415667933
aF-2.472231928502218
aF-0.7081063429461878
aF1.6498855352401733
aF-0.7262495199786585
aI2
aa(lp742
F-0.7469852606402796
aF-1.462320629750387
aF-2.4726267496692103
aF-0.7083819548236292
aF1.6498136520385742
aF-0.72620135942568
aI2
aa(lp743
F-0.7469733397113245
aF-1.4555366675006312
aF-2.4733925501452845
aF-0.7099879423724573
aF1.6498255729675293
aF-0.7262256781207483
aI2
aa(lp744
F-0.7469852606402796
aF-1.447639290486471
aF-2.474828545247213
aF-0.7138598600970667
aF1.6497776508331299
aF-0.7262256781207483
aI2
aa(lp745
F-0.7470329443560999
aF-1.440915886555807
aF-2.47701865831484
aF-0.718055550252096
aF1.6497416496276855
aF-0.7262375990497034
aI2
aa(lp746
F-0.7470210234271448
aF-1.434671703969137
aF-2.479914728795187
aF-0.7222989241229456
aF1.6497416496276855
aF-0.7262495199786585
aI2
aa(lp747
F-0.7469371000873011
aF-1.4294589201556605
aF-2.4824276606189173
aF-0.7280052343951624
aF1.6497896909713745
aF-0.7262614409076136
aI2
aa(lp748
F-0.7469609419452112
aF-1.4247248808490198
aF-2.48446232477297
aF-0.7393086592303675
aF1.6497416496276855
aF-0.7262733618365687
aI2
aa(lp749
F-0.7469490210162562
aF-1.4222677389727991
aF-2.485312048588888
aF-0.7521112600909632
aF1.6497176885604858
aF-0.7262614409076136
aI2
aa(lp750
F-0.7469733397113245
aF-1.420877758656637
aF-2.485312048588888
aF-0.7670591513263147
aF1.6497297286987305
aF-0.7262495199786585
aI2
aa(lp751
F-0.7469733397113245
aF-1.4200990835772913
aF-2.485323969517843
aF-0.7838776747332972
aF1.6495859622955322
aF-0.7262256781207483
aI2
aa(lp752
F-0.7469971815692347
aF-1.4200270811664026
aF-2.4853361288653772
aF-0.7970269362079065
aF1.649142861366272
aF-0.7262256781207483
aI2
aa(lp753
F-0.7470210234271448
aF-1.4199913183795374
aF-2.4853480497943323
aF-0.8088591734515589
aF1.6485084295272827
aF-0.7262375990497034
aI2
aa(lp754
F-0.7469971815692347
aF-1.4199793974505823
aF-2.485300127659933
aF-0.821146313344137
aF1.6481249332427979
aF-0.7262137571917933
aI2
aa(lp755
F-0.7469971815692347
aF-1.4199073950396937
aF-2.4853480497943323
aF-0.830627743397848
aF1.6475859880447388
aF-0.7261775175677698
aI2
aa(lp756
F-0.7469852606402796
aF-1.4198115507708948
aF-2.485323969517843
aF-0.8376048246966761
aF1.6466400623321533
aF-0.7261536757098597
aI2
aa(lp757
F-0.7470329443560999
aF-1.4196556250201624
aF-2.4853718916522425
aF-0.8409975210772913
aF1.6437780857086182
aF-0.7261417547809046
aI2
aa(lp758
F-0.7471049467669886
aF-1.4194038550006312
aF-2.4853959719287317
aF-0.8411648909198206
aF1.6403651237487793
aF-0.7261417547809046
aI2
aa(lp759
F-0.7473209539996546
aF-1.4189723173724573
aF-2.485419813786642
aF-0.8411772886859339
aF1.6360058784484863
aF-0.7261417547809046
aI2
aa(lp760
F-0.7481353918658655
aF-1.418013874684469
aF-2.4855509440051478
aF-0.8413928190814417
aF1.6297310590744019
aF-0.7261298338519495
aI2
aa(lp761
F-0.7497652212726038
aF-1.416755501423971
aF-2.485934082661764
aF-0.841992203389303
aF1.620581865310669
aF-0.7261298338519495
aI2
aa(lp762
F-0.753371540700094
aF-1.4148500601397913
aF-2.4868553320514124
aF-0.842663590108053
aF1.6050734519958496
aF-0.7261417547809046
aI2
aa(lp763
F-0.7572062651263636
aF-1.413004223500387
aF-2.4876814524279993
aF-0.8427112738238733
aF1.5895535945892334
aF-0.7261655966388147
aI2
aa(lp764
F-0.7598422209369105
aF-1.4110987822162073
aF-2.488255564366476
aF-0.8427594343768519
aF1.5737459659576416
aF-0.7261894384967249
aI2
aa(lp765
F-0.7613280455218714
aF-1.4096248785602015
aF-2.4889021555529993
aF-0.8427355925189417
aF1.560644268989563
aF-0.7261894384967249
aI2
aa(lp766
F-0.7625144163714808
aF-1.4085944334613245
aF-2.4903140703784388
aF-0.8427713553058069
aF1.5494228601455688
aF-0.7261775175677698
aI2
aa(lp767
F-0.7637127081500452
aF-1.4082825819598597
aF-2.4924562613116663
aF-0.8427951971637171
aF1.5441895723342896
aF-0.7262137571917933
aI2
aa(lp768
F-0.7658932844745081
aF-1.4082468191729944
aF-2.4956515471087855
aF-0.8428314367877405
aF1.543830394744873
aF-0.7262256781207483
aI2
aa(lp769
F-0.7677624861346644
aF-1.4082587401019495
aF-2.4990256468402308
aF-0.8428552786456507
aF1.5438064336776733
aF-0.7262256781207483
aI2
aa(lp770
F-0.7690685431109827
aF-1.4081748167621058
aF-2.5027716795550745
aF-0.8428314367877405
aF1.5437943935394287
aF-0.7261655966388147
aI2
aa(lp771
F-0.7694638411151331
aF-1.4080069700824183
aF-2.5063017050372522
aF-0.8428071180926722
aF1.543758511543274
aF-0.7261655966388147
aI2
aa(lp772
F-0.7694876829730433
aF-1.407755200062887
aF-2.5087550322162073
aF-0.8428671995746058
aF1.5437464714050293
aF-0.7262137571917933
aI2
aa(lp773
F-0.7694757620440882
aF-1.4073594252215784
aF-2.510071341191427
aF-0.8428671995746058
aF1.5437464714050293
aF-0.72620135942568
aI2
aa(lp774
F-0.769571606312887
aF-1.40672475496401
aF-2.5109687487231653
aF-0.8429868857013147
aF1.543602705001831
aF-0.72620135942568
aI2
aa(lp775
F-0.7696674505816858
aF-1.4055140654193323
aF-2.5120697657214563
aF-0.8435266653644007
aF1.543063759803772
aF-0.7261655966388147
aI2
aa(lp776
F-0.7699311415301722
aF-1.4037163893329065
aF-2.513601605092184
aF-0.844245735798971
aF1.5420098304748535
aF-0.7261775175677698
aI2
aa(lp777
F-0.770266358052389
aF-1.4013312498675745
aF-2.516533676777975
aF-0.8451688925372522
aF1.5403931140899658
aF-0.7261536757098597
aI2
aa(lp778
F-0.7705662886248987
aF-1.3982155958758753
aF-2.520996872578756
aF-0.846846882496969
aF1.5383689403533936
aF-0.7261894384967249
aI2
aa(lp779
F-0.7710216681109827
aF-1.3956511656390589
aF-2.5245874563800257
aF-0.8486569563495081
aF1.538069725036621
aF-0.7261894384967249
aI2
aa(lp780
F-0.771644417439596
aF-1.3928826490985315
aF-2.528177324925558
aF-0.8499520460711878
aF1.5371716022491455
aF-0.7261775175677698
aI2
aa(lp781
F-0.7726629416095179
aF-1.3887842337237757
aF-2.5326646010028284
aF-0.850311581288473
aF1.534812569618225
aF-0.7261775175677698
aI2
aa(lp782
F-0.7740648428546351
aF-1.3844693342791956
aF-2.535644594823019
aF-0.8507912794696253
aF1.5330520868301392
aF-0.72620135942568
aI2
aa(lp783
F-0.7770722548114222
aF-1.3798916975604456
aF-2.537415329610006
aF-0.8523014227496546
aF1.530632734298706
aF-0.7262137571917933
aI2
aa(lp784
F-0.7816975752459925
aF-1.3748229185687464
aF-2.538719717656271
aF-0.8538597265826624
aF1.5275070667266846
aF-0.7262375990497034
aI2
aa(lp785
F-0.7871130148517054
aF-1.3683632055865687
aF-2.5406466166125696
aF-0.8556101957904261
aF1.5222734212875366
aF-0.7262495199786585
aI2
aa(lp786
F-0.7928040663348597
aF-1.3621791044818323
aF-2.5428603331195276
aF-0.8577435652362269
aF1.51878821849823
aF-0.7262614409076136
aI2
aa(lp787
F-0.7988789717303675
aF-1.3557923475848597
aF-2.5447269121753138
aF-0.8596861998187464
aF1.5173392295837402
aF-0.7262614409076136
aI2
aa(lp788
F-0.8064749876605433
aF-1.3474028746234339
aF-2.546976391469137
aF-0.8615439573871058
aF1.516668438911438
aF-0.7262733618365687
aI2
aa(lp789
F-0.81293231645693
aF-1.3401168028460901
aF-2.5486281553851526
aF-0.8643134276019495
aF1.5162733793258667
aF-0.7263096014605921
aI2
aa(lp790
F-0.8197615782367151
aF-1.333130184804098
aF-2.549884621297018
aF-0.8678019682513636
aF1.5162014961242676
aF-0.726992432271139
aI2
aa(lp791
F-0.8262432257281702
aF-1.3265274206744593
aF-2.5516796747790735
aF-0.8722370306598108
aF1.5161296129226685
aF-0.7275918165790003
aI2
aa(lp792
F-0.8338630835162562
aF-1.3188336531268519
aF-2.5550902525531214
aF-0.878890339528219
aF1.5158543586730957
aF-0.7279990355121058
aI2
aa(lp793
F-0.8396137396441858
aF-1.312446419392721
aF-2.5582011381732386
aF-0.8884924093829554
aF1.5154109001159668
aF-0.7285264174090784
aI2
aa(lp794
F-0.8463218847857874
aF-1.3056157271014612
aF-2.561300579701559
aF-0.9032853285418909
aF1.5147525072097778
aF-0.7291496435748499
aI2
aa(lp795
F-0.8512223402606409
aF-1.3003070990191858
aF-2.563119713460104
aF-0.9173110167132776
aF1.5142492055892944
aF-0.7300484816180628
aI2
aa(lp796
F-0.856109921132223
aF-1.2958129088031214
aF-2.564124886189596
aF-0.9312289396869105
aF1.5128724575042725
aF-0.7308991591082972
aI2
aa(lp797
F-0.8601835409747522
aF-1.2915828863727015
aF-2.5645435492144983
aF-0.9473765532123011
aF1.5105849504470825
aF-0.7323020140277308
aI2
aa(lp798
F-0.8627947012530726
aF-1.288095776234762
aF-2.5646513144122522
aF-0.961954418812887
aF1.507530927658081
aF-0.7340629736529749
aI2
aa(lp799
F-0.866089169179098
aF-1.2850998083697718
aF-2.5646513144122522
aF-0.9759324232684534
aF1.5024529695510864
aF-0.7359212080584925
aI2
aa(lp800
F-0.8698986212359827
aF-1.2824037710772913
aF-2.564758841191427
aF-0.9908335844623011
aF1.487626552581787
aF-0.7390969435321253
aI2
aa(lp801
F-0.8718393484698694
aF-1.2803662459002894
aF-2.564746920262472
aF-1.0014551321612757
aF1.46367347240448
aF-0.7421653906451624
aI2
aa(lp802
F-0.873420540486471
aF-1.2781012693988245
aF-2.5647109190570276
aF-1.0119808355914515
aF1.4249528646469116
aF-0.7459524313556116
aI2
aa(lp803
F-0.8748100439654749
aF-1.2762201468097132
aF-2.564734999333517
aF-1.0180471579181116
aF1.3851172924041748
aF-0.7480977217303675
aI2
aa(lp804
F-0.8769186178790491
aF-1.274614159260885
aF-2.5646753946887415
aF-1.019449536000387
aF1.343340277671814
aF-0.7496073881732386
aI2
aa(lp805
F-0.8788111845599573
aF-1.2735002676593226
aF-2.5647109190570276
aF-1.0194018522845667
aF1.3040893077850342
aF-0.7510102430926722
aI2
aa(lp806
F-0.8800213972674769
aF-1.2730563322650355
aF-2.564746920262472
aF-1.0194972197162073
aF1.2651244401931763
aF-0.7524479071246546
aI2
aa(lp807
F-0.8801167646991175
aF-1.2730682531939905
aF-2.564734999333517
aF-1.0195935408221644
aF1.238987684249878
aF-0.7533467451678675
aI2
aa(lp808
F-0.8801286856280726
aF-1.2730682531939905
aF-2.564866606389181
aF-1.0206359068499964
aF1.2201454639434814
aF-0.7535865942584437
aI2
aa(lp809
F-0.8801406065570276
aF-1.2730925718890589
aF-2.5650580565081995
aF-1.0227940718280237
aF1.2079750299453735
aF-0.7535865942584437
aI2
aa(lp810
F-0.8802006880389612
aF-1.2730925718890589
aF-2.5654051939593714
aF-1.0253236929522913
aF1.2051119804382324
aF-0.7535508314715784
aI2
aa(lp811
F-0.880164925252096
aF-1.2730801741229456
aF-2.565955702458517
aF-1.0282967726336878
aF1.2051119804382324
aF-0.7535627524005335
aI2
aa(lp812
F-0.8803928534137171
aF-1.2730563322650355
aF-2.56710392633547
aF-1.0319531599627894
aF1.2051359415054321
aF-0.7535389105426233
aI2
aa(lp813
F-0.8808358351336878
aF-1.2730444113360804
aF-2.5681570211993616
aF-1.036401096974508
aF1.205064058303833
aF-0.7535508314715784
aI2
aa(lp814
F-0.8817585150348108
aF-1.2730205694781702
aF-2.568923298512594
aF-1.0438092390643519
aF1.2050280570983887
aF-0.7535026709185999
aI2
aa(lp815
F-0.8836987654315394
aF-1.2729366461383265
aF-2.569653336201803
aF-1.0570686499225062
aF1.2050280570983887
aF-0.7534907499896448
aI2
aa(lp816
F-0.8867057005511683
aF-1.2728408018695276
aF-2.5698087851153772
aF-1.0718863646136683
aF1.2050161361694336
aF-0.7534549872027796
aI2
aa(lp817
F-0.8917730490313929
aF-1.2726367155658167
aF-2.569784704838888
aF-1.0886462370501917
aF1.2050161361694336
aF-0.7534425894366663
aI2
aa(lp818
F-0.897989575062887
aF-1.2721341292010706
aF-2.5697251001941126
aF-1.1037877241717737
aF1.2050400972366333
aF-0.7534788290606897
aI2
aa(lp819
F-0.9062669912921351
aF-1.2711146513568323
aF-2.5697131792651575
aF-1.1179822126971644
aF1.2050161361694336
aF-0.7534425894366663
aI2
aa(lp820
F-0.9141495863543909
aF-1.2699163595782679
aF-2.5697012583362024
aF-1.1265175978290003
aF1.2050520181655884
aF-0.7534549872027796
aI2
aa(lp821
F-0.9230731169330042
aF-1.268334690724508
aF-2.5697131792651575
aF-1.1320684591876429
aF1.2050520181655884
aF-0.7534788290606897
aI2
aa(lp822
F-0.9338052908526819
aF-1.2658904234515589
aF-2.5697012583362024
aF-1.1337469259845179
aF1.2050400972366333
aF-0.7534788290606897
aI2
aa(lp823
F-0.943183724080221
aF-1.2631104628192347
aF-2.569737259541647
aF-1.1338189283954065
aF1.2050520181655884
aF-0.7534669081317347
aI2
aa(lp824
F-0.9530418554889124
aF-1.2600305716144007
aF-2.569761101399557
aF-1.1341069380389612
aF1.205064058303833
aF-0.7534788290606897
aI2
aa(lp825
F-0.9645994345294397
aF-1.2566631476031702
aF-2.569749180470602
aF-1.1347420851336878
aF1.2050520181655884
aF-0.7534788290606897
aI2
aa(lp826
F-0.9747088591205042
aF-1.25366717973818
aF-2.569772783909933
aF-1.1354015509234827
aF1.2050520181655884
aF-0.7534907499896448
aI2
aa(lp827
F-0.9851644674884241
aF-1.2506597677813929
aF-2.569784704838888
aF-1.1359885374652308
aF1.2050400972366333
aF-0.7534425894366663
aI2
aa(lp828
F-0.9974764029132288
aF-1.2475798765765589
aF-2.569784704838888
aF-1.1366842428790491
aF1.2050520181655884
aF-0.7534907499896448
aI2
aa(lp829
F-1.0080040136920374
aF-1.2457340399371546
aF-2.569796625767843
aF-1.1376550833331507
aF1.205064058303833
aF-0.7534788290606897
aI2
aa(lp830
F-1.0207818190204065
aF-1.244499985371725
aF-2.569772783909933
aF-1.1383627096759241
aF1.2050161361694336
aF-0.7534907499896448
aI2
aa(lp831
F-1.031776253377096
aF-1.2438891569720667
aF-2.569796625767843
aF-1.1392014662372034
aF1.205004096031189
aF-0.7534788290606897
aI2
aa(lp832
F-1.0428531805621546
aF-1.2435057798968714
aF-2.569796625767843
aF-1.1397412459002894
aF1.2050161361694336
aF-0.7534907499896448
aI2
aa(lp833
F-1.0539186636554163
aF-1.2433255354510706
aF-2.5698207060443323
aF-1.1397531668292444
aF1.2050161361694336
aF-0.7534907499896448
aI2
aa(lp834
F-1.066552464162008
aF-1.2432177702533167
aF-2.5698087851153772
aF-1.1397531668292444
aF1.205004096031189
aF-0.7535389105426233
aI2
aa(lp835
F-1.077090088521139
aF-1.2431219259845179
aF-2.569796625767843
aF-1.1397889296161097
aF1.2050161361694336
aF-0.7535508314715784
aI2
aa(lp836
F-1.087053124104635
aF-1.2430499235736292
aF-2.5698087851153772
aF-1.1397889296161097
aF1.2050400972366333
aF-0.7535985151873987
aI2
aa(lp837
F-1.0980213324176233
aF-1.2429783979998987
aF-2.569772783909933
aF-1.1397770086871546
aF1.2050161361694336
aF-0.7536223570453089
aI2
aa(lp838
F-1.1069062391864222
aF-1.2429903189288538
aF-2.569796625767843
aF-1.1397531668292444
aF1.2049921751022339
aF-0.7536705175982874
aI2
aa(lp839
F-1.1150005499469202
aF-1.2429903189288538
aF-2.569772783909933
aF-1.1397889296161097
aF1.2050280570983887
aF-0.7537186781512659
aI2
aa(lp840
F-1.123681370412008
aF-1.2430022398578089
aF-2.569761101399557
aF-1.1397293249713343
aF1.2049801349639893
aF-0.7537062803851526
aI2
aa(lp841
F-1.130937401448385
aF-1.2429540793048304
aF-2.569761101399557
aF-1.1397293249713343
aF1.2049921751022339
aF-0.7536705175982874
aI2
aa(lp842
F-1.1375344435321253
aF-1.2430022398578089
aF-2.569784704838888
aF-1.1397412459002894
aF1.2049921751022339
aF-0.7536705175982874
aI2
aa(lp843
F-1.1454127470599573
aF-1.2429660002337855
aF-2.569784704838888
aF-1.1397531668292444
aF1.2049082517623901
aF-0.753730599080221
aI2
aa(lp844
F-1.1514833609210413
aF-1.2429421583758753
aF-2.569761101399557
aF-1.1396811644183558
aF1.2049921751022339
aF-0.7536943594561976
aI2
aa(lp845
F-1.157673184071676
aF-1.2429660002337855
aF-2.569737259541647
aF-1.1397293249713343
aF1.2050280570983887
aF-0.7537062803851526
aI2
aa(lp846
F-1.1642463842975062
aF-1.2429783979998987
aF-2.5697251001941126
aF-1.1396687666522425
aF1.2050280570983887
aF-0.7536943594561976
aI2
aa(lp847
F-1.1696580092059534
aF-1.2429540793048304
aF-2.5696893374072474
aF-1.1396568457232874
aF1.2050280570983887
aF-0.7537062803851526
aI2
aa(lp848
F-1.1732137838946741
aF-1.2429421583758753
aF-2.5697251001941126
aF-1.1396568457232874
aF1.2050280570983887
aF-0.7536466757403772
aI2
aa(lp849
F-1.176075283681051
aF-1.2430022398578089
aF-2.5695694128619593
aF-1.1395252386676233
aF1.205075979232788
aF-0.7536705175982874
aI2
aa(lp850
F-1.17712909380068
aF-1.2429903189288538
aF-2.5692222754107874
aF-1.1392853895770472
aF1.2050999402999878
aF-0.7536705175982874
aI2
aa(lp851
F-1.1770332495318812
aF-1.2429903189288538
aF-2.568049732838766
aF-1.1388419310199183
aF1.2052438259124756
aF-0.7536585966693323
aI2
aa(lp852
F-1.177021328602926
aF-1.2429783979998987
aF-2.564866606389181
aF-1.1386740843402308
aF1.205351710319519
aF-0.7536824385272425
aI2
aa(lp853
F-1.1769731680499476
aF-1.2429540793048304
aF-2.5602474848376673
aF-1.1386740843402308
aF1.2054115533828735
aF-0.7536824385272425
aI2
aa(lp854
F-1.1770570913897913
aF-1.2429660002337855
aF-2.5566933790790003
aF-1.138686482106344
aF1.2054355144500732
aF-0.7536585966693323
aI2
aa(lp855
F-1.1770451704608362
aF-1.2430022398578089
aF-2.553462568913595
aF-1.1387222448932093
aF1.2054475545883179
aF-0.7536347548114222
aI2
aa(lp856
F-1.1769970099078577
aF-1.243014160786764
aF-2.550614897404806
aF-1.1386502424823206
aF1.2055433988571167
aF-0.7536466757403772
aI2
aa(lp857
F-1.176889721547262
aF-1.2430022398578089
aF-2.548185412083761
aF-1.1382907072650355
aF1.206154227256775
aF-0.7536466757403772
aI2
aa(lp858
F-1.1765778700457972
aF-1.2430022398578089
aF-2.5444520155536097
aF-1.137799088154928
aF1.2077233791351318
aF-0.7536466757403772
aI2
aa(lp859
F-1.176434342061178
aF-1.2430022398578089
aF-2.5394375959979456
aF-1.1377270857440394
aF1.2098917961120605
aF-0.7536347548114222
aI2
aa(lp860
F-1.1764701048480433
aF-1.2430623213397425
aF-2.536051336918966
aF-1.1377509276019495
aF1.2105745077133179
aF-0.7536585966693323
aI2
aa(lp861
F-1.176446262990133
aF-1.2430623213397425
aF-2.533729855214254
aF-1.1377509276019495
aF1.2109216451644897
aF-0.7536347548114222
aI2
aa(lp862
F-1.176434342061178
aF-1.2430499235736292
aF-2.5325687567340296
aF-1.137799088154928
aF1.2109336853027344
aF-0.7536223570453089
aI2
aa(lp863
F-1.1764944235431116
aF-1.2430861631976526
aF-2.5326767603503626
aF-1.1378586927997034
aF1.2108381986618042
aF-0.7535746733294886
aI2
aa(lp864
F-1.1765182654010218
aF-1.2430980841266077
aF-2.5327606836902063
aF-1.1379550139056605
aF1.210766315460205
aF-0.7535627524005335
aI2
aa(lp865
F-1.176554028187887
aF-1.2430980841266077
aF-2.5327845255481165
aF-1.1379550139056605
aF1.2107782363891602
aF-0.7535627524005335
aI2
aa(lp866
F-1.1765063444720667
aF-1.2430980841266077
aF-2.5327845255481165
aF-1.1379550139056605
aF1.210766315460205
aF-0.7535265127765101
aI2
aa(lp867
F-1.1765301863299769
aF-1.2431100050555628
aF-2.5327964464770716
aF-1.1379550139056605
aF1.2107902765274048
aF-0.753514591847555
aI2
aa(lp868
F-1.176565949116842
aF-1.2430980841266077
aF-2.5328086058246058
aF-1.1379426161395472
aF1.210766315460205
aF-0.7535265127765101
aI2
aa(lp869
F-1.1765301863299769
aF-1.2430861631976526
aF-2.5327964464770716
aF-1.137930695210592
aF1.2107902765274048
aF-0.7535265127765101
aI2
aa(lp870
F-1.1765301863299769
aF-1.2430861631976526
aF-2.5328200499164026
aF-1.1379788557635706
aF1.210766315460205
aF-0.753514591847555
aI2
aa(lp871
F-1.176542107258932
aF-1.2431100050555628
aF-2.5327964464770716
aF-1.1379426161395472
aF1.210766315460205
aF-0.753514591847555
aI2
aa(lp872
F-1.176542107258932
aF-1.2430861631976526
aF-2.5328086058246058
aF-1.1379907766925257
aF1.210766315460205
aF-0.7535389105426233
aI2
aa(lp873
F-1.1765778700457972
aF-1.2430737654315394
aF-2.5327964464770716
aF-1.1379788557635706
aF1.210766315460205
aF-0.753514591847555
aI2
aa(lp874
F-1.176554028187887
aF-1.2430861631976526
aF-2.532844130192892
aF-1.1379907766925257
aF1.2107782363891602
aF-0.7535389105426233
aI2
aa(lp875
F-1.176542107258932
aF-1.2431219259845179
aF-2.5328200499164026
aF-1.137930695210592
aF1.2107782363891602
aF-0.7535265127765101
aI2
aa(lp876
F-1.176554028187887
aF-1.2430980841266077
aF-2.5328200499164026
aF-1.1379550139056605
aF1.2107423543930054
aF-0.7535508314715784
aI2
aa(lp877
F-1.176542107258932
aF-1.2430737654315394
aF-2.5328200499164026
aF-1.1379788557635706
aF1.2107303142547607
aF-0.7535265127765101
aI2
aa(lp878
F-1.1765301863299769
aF-1.2430861631976526
aF-2.532832209263937
aF-1.1379426161395472
aF1.2107902765274048
aF-0.7534907499896448
aI2
aa(lp879
F-1.176565949116842
aF-1.2430980841266077
aF-2.532832209263937
aF-1.1379550139056605
aF1.2107542753219604
aF-0.753514591847555
aI2
aa(lp880
F-1.176542107258932
aF-1.2430737654315394
aF-2.5327964464770716
aF-1.137918774281637
aF1.2107902765274048
aF-0.7535389105426233
aI2
aa(lp881
F-1.1765778700457972
aF-1.243133846913473
aF-2.5328086058246058
aF-1.1379907766925257
aF1.2107902765274048
aF-0.7535627524005335
aI2
aa(lp882
F-1.1765902678119105
aF-1.2430861631976526
aF-2.5328086058246058
aF-1.1379669348346155
aF1.2107782363891602
aF-0.7535026709185999
aI2
aa(lp883
F-1.1765063444720667
aF-1.2430861631976526
aF-2.5328200499164026
aF-1.1379550139056605
aF1.210766315460205
aF-0.7535508314715784
aI2
aa(lp884
F-1.1765063444720667
aF-1.2430861631976526
aF-2.5328200499164026
aF-1.1379550139056605
aF1.2108021974563599
aF-0.7535265127765101
aI2
aa.